; Listing generated by Microsoft (R) Optimizing Compiler Version 19.16.27034.0 

include listing.inc

INCLUDELIB MSVCRTD
INCLUDELIB OLDNAMES

CONST	SEGMENT
$SG172351 DB	'c:\qt\5.12.6\msvc2017_64\include\qtcore\qmetatype.h', 00H
	ORG $+12
$SG172352 DB	'qRegisterNormalizedMetaType was called with a not normal'
	DB	'ized type name, please call qRegisterMetaType instead.', 00H
	ORG $+1
$SG172353 DB	'qRegisterNormalizedMetaType', 00H
	ORG $+4
$SG172712 DB	'c:\qt\5.12.6\msvc2017_64\include\qtcore\qmetatype.h', 00H
	ORG $+12
$SG172713 DB	'qRegisterNormalizedMetaType was called with a not normal'
	DB	'ized type name, please call qRegisterMetaType instead.', 00H
	ORG $+1
$SG172714 DB	'qRegisterNormalizedMetaType', 00H
	ORG $+4
$SG173073 DB	'c:\qt\5.12.6\msvc2017_64\include\qtcore\qmetatype.h', 00H
	ORG $+12
$SG173074 DB	'qRegisterNormalizedMetaType was called with a not normal'
	DB	'ized type name, please call qRegisterMetaType instead.', 00H
	ORG $+1
$SG173075 DB	'qRegisterNormalizedMetaType', 00H
	ORG $+4
$SG173483 DB	'c:\qt\5.12.6\msvc2017_64\include\qtcore\qmetatype.h', 00H
	ORG $+12
$SG173484 DB	'qRegisterNormalizedMetaType was called with a not normal'
	DB	'ized type name, please call qRegisterMetaType instead.', 00H
	ORG $+1
$SG173485 DB	'qRegisterNormalizedMetaType', 00H
	ORG $+4
$SG175592 DB	'c:\qt\5.12.6\msvc2017_64\include\qtcore\qmetatype.h', 00H
	ORG $+12
$SG175593 DB	'qRegisterNormalizedMetaType was called with a not normal'
	DB	'ized type name, please call qRegisterMetaType instead.', 00H
	ORG $+1
$SG175594 DB	'qRegisterNormalizedMetaType', 00H
	ORG $+4
$SG167639 DB	'c:\qt\5.12.6\msvc2017_64\include\qtcore\qmetatype.h', 00H
	ORG $+12
$SG167640 DB	'qRegisterNormalizedMetaType was called with a not normal'
	DB	'ized type name, please call qRegisterMetaType instead.', 00H
	ORG $+1
$SG167641 DB	'qRegisterNormalizedMetaType', 00H
	ORG $+4
$SG175909 DB	'c:\qt\5.12.6\msvc2017_64\include\qtcore\qmetatype.h', 00H
	ORG $+12
$SG175910 DB	'qRegisterNormalizedMetaType was called with a not normal'
	DB	'ized type name, please call qRegisterMetaType instead.', 00H
	ORG $+1
$SG175911 DB	'qRegisterNormalizedMetaType', 00H
	ORG $+4
$SG176226 DB	'c:\qt\5.12.6\msvc2017_64\include\qtcore\qmetatype.h', 00H
	ORG $+12
$SG176227 DB	'qRegisterNormalizedMetaType was called with a not normal'
	DB	'ized type name, please call qRegisterMetaType instead.', 00H
	ORG $+1
$SG176228 DB	'qRegisterNormalizedMetaType', 00H
	ORG $+4
$SG170786 DB	'c:\qt\5.12.6\msvc2017_64\include\qtcore\qmetatype.h', 00H
	ORG $+12
$SG170787 DB	'qRegisterNormalizedMetaType was called with a not normal'
	DB	'ized type name, please call qRegisterMetaType instead.', 00H
	ORG $+1
$SG170788 DB	'qRegisterNormalizedMetaType', 00H
	ORG $+4
?qt_meta_stringdata_wview@@3Uqt_meta_stringdata_wview_t@@B DD 0ffffffffH ; qt_meta_stringdata_wview
	DD	05H
	DD	00H
	ORG $+4
	DQ	00000000000000a8H
	DD	0ffffffffH
	DD	012H
	DD	00H
	ORG $+4
	DQ	0000000000000096H
	DD	0ffffffffH
	DD	00H
	DD	00H
	ORG $+4
	DQ	0000000000000091H
	DD	0ffffffffH
	DD	0cH
	DD	00H
	ORG $+4
	DQ	000000000000007aH
	DD	0ffffffffH
	DD	0eH
	DD	00H
	ORG $+4
	DQ	000000000000006fH
	DD	0ffffffffH
	DD	010H
	DD	00H
	ORG $+4
	DQ	0000000000000066H
	DD	0ffffffffH
	DD	0fH
	DD	00H
	ORG $+4
	DQ	000000000000005fH
	DB	077H
	DB	076H
	DB	069H
	DB	065H
	DB	077H
	DB	00H
	DB	063H
	DB	068H
	DB	061H
	DB	06eH
	DB	067H
	DB	065H
	DB	054H
	DB	072H
	DB	061H
	DB	06eH
	DB	073H
	DB	070H
	DB	061H
	DB	072H
	DB	065H
	DB	06eH
	DB	063H
	DB	079H
	DB	00H
	DB	00H
	DB	063H
	DB	06fH
	DB	06cH
	DB	06fH
	DB	072H
	DB	050H
	DB	061H
	DB	06cH
	DB	065H
	DB	074H
	DB	074H
	DB	065H
	DB	00H
	DB	063H
	DB	068H
	DB	061H
	DB	06eH
	DB	067H
	DB	065H
	DB	052H
	DB	065H
	DB	064H
	DB	043H
	DB	06fH
	DB	06cH
	DB	06fH
	DB	072H
	DB	00H
	DB	063H
	DB	068H
	DB	061H
	DB	06eH
	DB	067H
	DB	065H
	DB	047H
	DB	072H
	DB	065H
	DB	065H
	DB	06eH
	DB	043H
	DB	06fH
	DB	06cH
	DB	06fH
	DB	072H
	DB	00H
	DB	063H
	DB	068H
	DB	061H
	DB	06eH
	DB	067H
	DB	065H
	DB	042H
	DB	06cH
	DB	075H
	DB	065H
	DB	043H
	DB	06fH
	DB	06cH
	DB	06fH
	DB	072H
	DB	00H
	ORG $+1
?qt_meta_data_wview@@3QBIB DD 08H			; qt_meta_data_wview
	DD	00H
	DD	00H
	DD	00H
	DD	05H
	DD	0eH
	DD	00H
	DD	00H
	DD	00H
	DD	00H
	DD	00H
	DD	00H
	DD	00H
	DD	00H
	DD	01H
	DD	01H
	DD	027H
	DD	02H
	DD	08H
	DD	03H
	DD	00H
	DD	02aH
	DD	02H
	DD	08H
	DD	04H
	DD	01H
	DD	02bH
	DD	02H
	DD	08H
	DD	05H
	DD	01H
	DD	02eH
	DD	02H
	DD	08H
	DD	06H
	DD	01H
	DD	031H
	DD	02H
	DD	08H
	DD	02bH
	DD	02H
	DD	02H
	DD	02bH
	DD	02bH
	DD	02H
	DD	02H
	DD	02bH
	DD	02H
	DD	02H
	DD	02bH
	DD	02H
	DD	02H
	DD	00H
	ORG $+4
$SG171147 DB	'c:\qt\5.12.6\msvc2017_64\include\qtcore\qmetatype.h', 00H
	ORG $+4
$SG171148 DB	'qRegisterNormalizedMetaType was called with a not normal'
	DB	'ized type name, please call qRegisterMetaType instead.', 00H
	ORG $+1
$SG171149 DB	'qRegisterNormalizedMetaType', 00H
	ORG $+4
$SG154958 DB	'Ui::wview', 00H
	ORG $+6
?qt_meta_stringdata_xModelNavigator@@3Uqt_meta_stringdata_xModelNavigator_t@@B DD 0ffffffffH ; qt_meta_stringdata_xModelNavigator
	DD	0fH
	DD	00H
	ORG $+4
	DQ	0000000000000108H
	DD	0ffffffffH
	DD	017H
	DD	00H
	ORG $+4
	DQ	0000000000000100H
	DD	0ffffffffH
	DD	00H
	DD	00H
	ORG $+4
	DQ	0000000000000100H
	DD	0ffffffffH
	DD	0cH
	DD	00H
	ORG $+4
	DQ	00000000000000e9H
	DD	0ffffffffH
	DD	016H
	DD	00H
	ORG $+4
	DQ	00000000000000deH
	DD	0ffffffffH
	DD	0bH
	DD	00H
	ORG $+4
	DQ	00000000000000ddH
	DD	0ffffffffH
	DD	013H
	DD	00H
	ORG $+4
	DQ	00000000000000d1H
	DD	0ffffffffH
	DD	08H
	DD	00H
	ORG $+4
	DQ	00000000000000cdH
	DD	0ffffffffH
	DD	019H
	DD	00H
	ORG $+4
	DQ	00000000000000beH
	DD	0ffffffffH
	DD	0bH
	DD	00H
	ORG $+4
	DQ	00000000000000c0H
	DD	0ffffffffH
	DD	010H
	DD	00H
	ORG $+4
	DQ	00000000000000b4H
	DB	078H
	DB	04dH
	DB	06fH
	DB	064H
	DB	065H
	DB	06cH
	DB	04eH
	DB	061H
	DB	076H
	DB	069H
	DB	067H
	DB	061H
	DB	074H
	DB	06fH
	DB	072H
	DB	00H
	DB	064H
	DB	065H
	DB	066H
	DB	069H
	DB	06eH
	DB	065H
	DB	064H
	DB	053H
	DB	069H
	DB	06dH
	DB	075H
	DB	06cH
	DB	061H
	DB	074H
	DB	069H
	DB	06fH
	DB	06eH
	DB	057H
	DB	069H
	DB	064H
	DB	067H
	DB	065H
	DB	074H
	DB	00H
	DB	00H
	DB	077H
	DB	073H
	DB	069H
	DB	06dH
	DB	075H
	DB	06cH
	DB	061H
	DB	074H
	DB	069H
	DB	06fH
	DB	06eH
	DB	02aH
	DB	00H
	DB	064H
	DB	065H
	DB	066H
	DB	069H
	DB	06eH
	DB	065H
	DB	064H
	DB	050H
	DB	06fH
	DB	069H
	DB	06eH
	DB	074H
	DB	04dH
	DB	061H
	DB	073H
	DB	073H
	DB	057H
	DB	069H
	DB	064H
	DB	067H
	DB	065H
	DB	074H
	DB	00H
	DB	077H
	DB	070H
	DB	06fH
	DB	069H
	DB	06eH
	DB	074H
	DB	06dH
	DB	061H
	DB	073H
	DB	073H
	DB	02aH
	DB	00H
	DB	064H
	DB	065H
	DB	066H
	DB	069H
	DB	06eH
	DB	065H
	DB	064H
	DB	052H
	DB	065H
	DB	073H
	DB	075H
	DB	06cH
	DB	074H
	DB	057H
	DB	069H
	DB	064H
	DB	067H
	DB	065H
	DB	074H
	DB	00H
	DB	077H
	DB	072H
	DB	065H
	DB	073H
	DB	075H
	DB	06cH
	DB	074H
	DB	02aH
	DB	00H
	DB	049H
	DB	06eH
	DB	069H
	DB	074H
	DB	069H
	DB	061H
	DB	06cH
	DB	069H
	DB	07aH
	DB	065H
	DB	057H
	DB	069H
	DB	064H
	DB	067H
	DB	065H
	DB	074H
	DB	053H
	DB	074H
	DB	061H
	DB	074H
	DB	065H
	DB	06dH
	DB	065H
	DB	06eH
	DB	074H
	DB	00H
	DB	063H
	DB	06cH
	DB	069H
	DB	063H
	DB	06bH
	DB	041H
	DB	063H
	DB	074H
	DB	069H
	DB	06fH
	DB	06eH
	DB	00H
	DB	051H
	DB	054H
	DB	072H
	DB	065H
	DB	065H
	DB	057H
	DB	069H
	DB	064H
	DB	067H
	DB	065H
	DB	074H
	DB	049H
	DB	074H
	DB	065H
	DB	06dH
	DB	02aH
	DB	00H
	ORG $+3
$SG171508 DB	'c:\qt\5.12.6\msvc2017_64\include\qtcore\qmetatype.h', 00H
	ORG $+4
$SG171509 DB	'qRegisterNormalizedMetaType was called with a not normal'
	DB	'ized type name, please call qRegisterMetaType instead.', 00H
	ORG $+1
$SG171510 DB	'qRegisterNormalizedMetaType', 00H
	ORG $+4
?qt_meta_data_xModelNavigator@@3QBIB DD 08H		; qt_meta_data_xModelNavigator
	DD	00H
	DD	00H
	DD	00H
	DD	05H
	DD	0eH
	DD	00H
	DD	00H
	DD	00H
	DD	00H
	DD	00H
	DD	00H
	DD	00H
	DD	04H
	DD	01H
	DD	01H
	DD	027H
	DD	02H
	DD	06H
	DD	04H
	DD	01H
	DD	02aH
	DD	02H
	DD	06H
	DD	06H
	DD	01H
	DD	02dH
	DD	02H
	DD	06H
	DD	08H
	DD	00H
	DD	030H
	DD	02H
	DD	06H
	DD	09H
	DD	02H
	DD	031H
	DD	02H
	DD	08H
	DD	02bH
	DD	080000003H
	DD	02H
	DD	02bH
	DD	080000005H
	DD	02H
	DD	02bH
	DD	080000007H
	DD	02H
	DD	02bH
	DD	02bH
	DD	08000000aH
	DD	02H
	DD	02H
	DD	02H
	DD	00H
CONST	ENDS
PUBLIC	?__empty_global_delete@@YAXPEAX@Z		; __empty_global_delete
PUBLIC	?__empty_global_delete@@YAXPEAX_K@Z		; __empty_global_delete
PUBLIC	??2@YAPEAX_KPEAX@Z				; operator new
PUBLIC	??0QFlag@@QEAA@H@Z				; QFlag::QFlag
PUBLIC	??BQFlag@@QEBAHXZ				; QFlag::operator int
PUBLIC	?_Store_relaxed_4@std@@YAXPECKK@Z		; std::_Store_relaxed_4
PUBLIC	?_Store_release_4@std@@YAXPECKK@Z		; std::_Store_release_4
PUBLIC	?_Store_seq_cst_4@std@@YAXPECKK@Z		; std::_Store_seq_cst_4
PUBLIC	?_Atomic_store_4@std@@YAXPECKKW4memory_order@1@@Z ; std::_Atomic_store_4
PUBLIC	?_Load_seq_cst_4@std@@YAKPECK@Z			; std::_Load_seq_cst_4
PUBLIC	?_Load_relaxed_4@std@@YAKPECK@Z			; std::_Load_relaxed_4
PUBLIC	?_Load_acquire_4@std@@YAKPECK@Z			; std::_Load_acquire_4
PUBLIC	?_Atomic_load_4@std@@YAKPECKW4memory_order@1@@Z	; std::_Atomic_load_4
PUBLIC	?store@_Atomic_int@std@@QEAAXHW4memory_order@2@@Z ; std::_Atomic_int::store
PUBLIC	?load@_Atomic_int@std@@QEBAHW4memory_order@2@@Z	; std::_Atomic_int::load
PUBLIC	??0?$atomic@H@std@@QEAA@H@Z			; std::atomic<int>::atomic<int>
PUBLIC	?atomic_store_explicit@std@@YAXPEAU_Atomic_int@1@HW4memory_order@1@@Z ; std::atomic_store_explicit
PUBLIC	?atomic_load_explicit@std@@YAHPEBU_Atomic_int@1@W4memory_order@1@@Z ; std::atomic_load_explicit
PUBLIC	?loadAcquire@?$QBasicAtomicInteger@H@@QEBAHXZ	; QBasicAtomicInteger<int>::loadAcquire
PUBLIC	?storeRelease@?$QBasicAtomicInteger@H@@QEAAXH@Z	; QBasicAtomicInteger<int>::storeRelease
PUBLIC	??0?$QBasicAtomicInteger@H@@QEAA@H@Z		; QBasicAtomicInteger<int>::QBasicAtomicInteger<int>
PUBLIC	??8@YA_NAEBVQByteArray@@0@Z			; operator==
PUBLIC	??0?$QFlags@W4TypeFlag@QMetaType@@@@QEAA@VQFlag@@@Z ; QFlags<enum QMetaType::TypeFlag>::QFlags<enum QMetaType::TypeFlag>
PUBLIC	??_5?$QFlags@W4TypeFlag@QMetaType@@@@QEAAAEAV0@W4TypeFlag@QMetaType@@@Z ; QFlags<enum QMetaType::TypeFlag>::operator|=
PUBLIC	??C?$QScopedPointer@VQObjectData@@U?$QScopedPointerDeleter@VQObjectData@@@@@@QEBAPEAVQObjectData@@XZ ; QScopedPointer<QObjectData,QScopedPointerDeleter<QObjectData> >::operator->
PUBLIC	?metaObject@wview@@UEBAPEBUQMetaObject@@XZ	; wview::metaObject
PUBLIC	?qt_metacast@wview@@UEAAPEAXPEBD@Z		; wview::qt_metacast
PUBLIC	?qt_metacall@wview@@UEAAHW4Call@QMetaObject@@HPEAPEAX@Z ; wview::qt_metacall
PUBLIC	?qt_static_metacall@wview@@CAXPEAVQObject@@W4Call@QMetaObject@@HPEAPEAX@Z ; wview::qt_static_metacall
PUBLIC	?metaObject@xModelNavigator@@UEBAPEBUQMetaObject@@XZ ; xModelNavigator::metaObject
PUBLIC	?qt_metacast@xModelNavigator@@UEAAPEAXPEBD@Z	; xModelNavigator::qt_metacast
PUBLIC	?qt_metacall@xModelNavigator@@UEAAHW4Call@QMetaObject@@HPEAPEAX@Z ; xModelNavigator::qt_metacall
PUBLIC	?qt_static_metacall@xModelNavigator@@CAXPEAVQObject@@W4Call@QMetaObject@@HPEAPEAX@Z ; xModelNavigator::qt_static_metacall
PUBLIC	?definedSimulationWidget@xModelNavigator@@QEAAXPEAVwsimulation@@@Z ; xModelNavigator::definedSimulationWidget
PUBLIC	?definedPointMassWidget@xModelNavigator@@QEAAXPEAVwpointmass@@@Z ; xModelNavigator::definedPointMassWidget
PUBLIC	?definedResultWidget@xModelNavigator@@QEAAXPEAVwresult@@@Z ; xModelNavigator::definedResultWidget
PUBLIC	?InitializeWidgetStatement@xModelNavigator@@QEAAXXZ ; xModelNavigator::InitializeWidgetStatement
PUBLIC	??$qRegisterMetaType@PEAVwsimulation@@@@YAHXZ	; qRegisterMetaType<wsimulation *>
PUBLIC	??$qRegisterMetaType@PEAVwpointmass@@@@YAHXZ	; qRegisterMetaType<wpointmass *>
PUBLIC	??$qRegisterMetaType@PEAVwresult@@@@YAHXZ	; qRegisterMetaType<wresult *>
PUBLIC	??$storeRelease@H@?$QAtomicOps@H@@SAXAEAU?$atomic@H@std@@H@Z ; QAtomicOps<int>::storeRelease<int>
PUBLIC	??$loadAcquire@H@?$QAtomicOps@H@@SAHAEBU?$atomic@H@std@@@Z ; QAtomicOps<int>::loadAcquire<int>
PUBLIC	??$qMetaTypeId@PEAVwsimulation@@@@YAHXZ		; qMetaTypeId<wsimulation *>
PUBLIC	??$qMetaTypeId@PEAVwpointmass@@@@YAHXZ		; qMetaTypeId<wpointmass *>
PUBLIC	??$qMetaTypeId@PEAVwresult@@@@YAHXZ		; qMetaTypeId<wresult *>
PUBLIC	?qt_metatype_id@?$QMetaTypeIdQObject@PEAVwsimulation@@$07@@SAHXZ ; QMetaTypeIdQObject<wsimulation *,8>::qt_metatype_id
PUBLIC	?qt_metatype_id@?$QMetaTypeId2@PEAVwsimulation@@@@SAHXZ ; QMetaTypeId2<wsimulation *>::qt_metatype_id
PUBLIC	?qt_metatype_id@?$QMetaTypeIdQObject@PEAVwpointmass@@$07@@SAHXZ ; QMetaTypeIdQObject<wpointmass *,8>::qt_metatype_id
PUBLIC	?qt_metatype_id@?$QMetaTypeId2@PEAVwpointmass@@@@SAHXZ ; QMetaTypeId2<wpointmass *>::qt_metatype_id
PUBLIC	?qt_metatype_id@?$QMetaTypeIdQObject@PEAVwresult@@$07@@SAHXZ ; QMetaTypeIdQObject<wresult *,8>::qt_metatype_id
PUBLIC	?qt_metatype_id@?$QMetaTypeId2@PEAVwresult@@@@SAHXZ ; QMetaTypeId2<wresult *>::qt_metatype_id
PUBLIC	??$qRegisterNormalizedMetaType@PEAVwresult@@@@YAHAEBVQByteArray@@PEAPEAVwresult@@W4DefinedType@?$MetaTypeDefinedHelper@PEAVwresult@@$00@QtPrivate@@@Z ; qRegisterNormalizedMetaType<wresult *>
PUBLIC	??$qRegisterNormalizedMetaType@PEAVwpointmass@@@@YAHAEBVQByteArray@@PEAPEAVwpointmass@@W4DefinedType@?$MetaTypeDefinedHelper@PEAVwpointmass@@$00@QtPrivate@@@Z ; qRegisterNormalizedMetaType<wpointmass *>
PUBLIC	??$qRegisterNormalizedMetaType@PEAVwsimulation@@@@YAHAEBVQByteArray@@PEAPEAVwsimulation@@W4DefinedType@?$MetaTypeDefinedHelper@PEAVwsimulation@@$00@QtPrivate@@@Z ; qRegisterNormalizedMetaType<wsimulation *>
PUBLIC	?qt_metatype_id@?$QMetaTypeIdHelper@PEAVwresult@@$00@QtPrivate@@SAHXZ ; QtPrivate::QMetaTypeIdHelper<wresult *,1>::qt_metatype_id
PUBLIC	?Destruct@?$QMetaTypeFunctionHelper@PEAVwresult@@$00@QtMetaTypePrivate@@SAXPEAX@Z ; QtMetaTypePrivate::QMetaTypeFunctionHelper<wresult *,1>::Destruct
PUBLIC	?Construct@?$QMetaTypeFunctionHelper@PEAVwresult@@$00@QtMetaTypePrivate@@SAPEAXPEAXPEBX@Z ; QtMetaTypePrivate::QMetaTypeFunctionHelper<wresult *,1>::Construct
PUBLIC	?value@?$MetaObjectForType@PEAVwresult@@X@QtPrivate@@SAPEBUQMetaObject@@XZ ; QtPrivate::MetaObjectForType<wresult *,void>::value
PUBLIC	?registerConverter@?$SequentialContainerConverterHelper@PEAVwresult@@$0A@@QtPrivate@@SA_NH@Z ; QtPrivate::SequentialContainerConverterHelper<wresult *,0>::registerConverter
PUBLIC	?registerConverter@?$AssociativeContainerConverterHelper@PEAVwresult@@$0A@@QtPrivate@@SA_NH@Z ; QtPrivate::AssociativeContainerConverterHelper<wresult *,0>::registerConverter
PUBLIC	?registerConverter@?$IsPair@PEAVwresult@@@QtPrivate@@SA_NH@Z ; QtPrivate::IsPair<wresult *>::registerConverter
PUBLIC	?registerConverter@?$MetaTypeSmartPointerHelper@PEAVwresult@@X@QtPrivate@@SA_NH@Z ; QtPrivate::MetaTypeSmartPointerHelper<wresult *,void>::registerConverter
PUBLIC	?qt_metatype_id@?$QMetaTypeIdHelper@PEAVwpointmass@@$00@QtPrivate@@SAHXZ ; QtPrivate::QMetaTypeIdHelper<wpointmass *,1>::qt_metatype_id
PUBLIC	?Destruct@?$QMetaTypeFunctionHelper@PEAVwpointmass@@$00@QtMetaTypePrivate@@SAXPEAX@Z ; QtMetaTypePrivate::QMetaTypeFunctionHelper<wpointmass *,1>::Destruct
PUBLIC	?Construct@?$QMetaTypeFunctionHelper@PEAVwpointmass@@$00@QtMetaTypePrivate@@SAPEAXPEAXPEBX@Z ; QtMetaTypePrivate::QMetaTypeFunctionHelper<wpointmass *,1>::Construct
PUBLIC	?value@?$MetaObjectForType@PEAVwpointmass@@X@QtPrivate@@SAPEBUQMetaObject@@XZ ; QtPrivate::MetaObjectForType<wpointmass *,void>::value
PUBLIC	?registerConverter@?$SequentialContainerConverterHelper@PEAVwpointmass@@$0A@@QtPrivate@@SA_NH@Z ; QtPrivate::SequentialContainerConverterHelper<wpointmass *,0>::registerConverter
PUBLIC	?registerConverter@?$AssociativeContainerConverterHelper@PEAVwpointmass@@$0A@@QtPrivate@@SA_NH@Z ; QtPrivate::AssociativeContainerConverterHelper<wpointmass *,0>::registerConverter
PUBLIC	?registerConverter@?$IsPair@PEAVwpointmass@@@QtPrivate@@SA_NH@Z ; QtPrivate::IsPair<wpointmass *>::registerConverter
PUBLIC	?registerConverter@?$MetaTypeSmartPointerHelper@PEAVwpointmass@@X@QtPrivate@@SA_NH@Z ; QtPrivate::MetaTypeSmartPointerHelper<wpointmass *,void>::registerConverter
PUBLIC	?qt_metatype_id@?$QMetaTypeIdHelper@PEAVwsimulation@@$00@QtPrivate@@SAHXZ ; QtPrivate::QMetaTypeIdHelper<wsimulation *,1>::qt_metatype_id
PUBLIC	?Destruct@?$QMetaTypeFunctionHelper@PEAVwsimulation@@$00@QtMetaTypePrivate@@SAXPEAX@Z ; QtMetaTypePrivate::QMetaTypeFunctionHelper<wsimulation *,1>::Destruct
PUBLIC	?Construct@?$QMetaTypeFunctionHelper@PEAVwsimulation@@$00@QtMetaTypePrivate@@SAPEAXPEAXPEBX@Z ; QtMetaTypePrivate::QMetaTypeFunctionHelper<wsimulation *,1>::Construct
PUBLIC	?value@?$MetaObjectForType@PEAVwsimulation@@X@QtPrivate@@SAPEBUQMetaObject@@XZ ; QtPrivate::MetaObjectForType<wsimulation *,void>::value
PUBLIC	?registerConverter@?$SequentialContainerConverterHelper@PEAVwsimulation@@$0A@@QtPrivate@@SA_NH@Z ; QtPrivate::SequentialContainerConverterHelper<wsimulation *,0>::registerConverter
PUBLIC	?registerConverter@?$AssociativeContainerConverterHelper@PEAVwsimulation@@$0A@@QtPrivate@@SA_NH@Z ; QtPrivate::AssociativeContainerConverterHelper<wsimulation *,0>::registerConverter
PUBLIC	?registerConverter@?$IsPair@PEAVwsimulation@@@QtPrivate@@SA_NH@Z ; QtPrivate::IsPair<wsimulation *>::registerConverter
PUBLIC	?registerConverter@?$MetaTypeSmartPointerHelper@PEAVwsimulation@@X@QtPrivate@@SA_NH@Z ; QtPrivate::MetaTypeSmartPointerHelper<wsimulation *,void>::registerConverter
PUBLIC	??_C@_02DKCKIIND@?$CFs@				; `string'
PUBLIC	??_C@_0BF@ELBANHFK@Invalid?5memory_order@	; `string'
PUBLIC	??_C@_0GK@HCPCNJPA@c?3?2program?5files?5?$CIx86?$CJ?2microsof@ ; `string'
PUBLIC	??_C@_1NE@JIAMEJOL@?$AAc?$AA?3?$AA?2?$AAp?$AAr?$AAo?$AAg?$AAr?$AAa?$AAm?$AA?5?$AAf?$AAi?$AAl?$AAe@ ; `string'
PUBLIC	??_C@_1CO@MPEJOJHF@?$AA?$CC?$AAI?$AAn?$AAv?$AAa?$AAl?$AAi?$AAd?$AA?5?$AAm?$AAe?$AAm?$AAo?$AAr?$AAy@ ; `string'
PUBLIC	??_C@_1CK@BEBCCGEN@?$AAs?$AAt?$AAd?$AA?3?$AA?3?$AA_?$AAA?$AAt?$AAo?$AAm?$AAi?$AAc?$AA_?$AAs?$AAt@ ; `string'
PUBLIC	??_C@_1CI@NMHCEFB@?$AAs?$AAt?$AAd?$AA?3?$AA?3?$AA_?$AAA?$AAt?$AAo?$AAm?$AAi?$AAc?$AA_?$AAl?$AAo@ ; `string'
PUBLIC	?staticMetaObject@wview@@2UQMetaObject@@B	; wview::staticMetaObject
PUBLIC	?staticMetaObject@xModelNavigator@@2UQMetaObject@@B ; xModelNavigator::staticMetaObject
PUBLIC	?metatype_id@?1??qt_metatype_id@?$QMetaTypeIdQObject@PEAVwresult@@$07@@SAHXZ@4V?$QBasicAtomicInteger@H@@A ; `QMetaTypeIdQObject<wresult *,8>::qt_metatype_id'::`2'::metatype_id
PUBLIC	?$TSS0@?1??qt_metatype_id@?$QMetaTypeIdQObject@PEAVwresult@@$07@@SAHXZ@4HA ; TSS0<`template-parameter-2',QMetaTypeIdQObject<wresult *,8>::t_metatype_id,int * const volatile,void,int, ?? &>
PUBLIC	?metatype_id@?1??qt_metatype_id@?$QMetaTypeIdQObject@PEAVwpointmass@@$07@@SAHXZ@4V?$QBasicAtomicInteger@H@@A ; `QMetaTypeIdQObject<wpointmass *,8>::qt_metatype_id'::`2'::metatype_id
PUBLIC	?$TSS0@?1??qt_metatype_id@?$QMetaTypeIdQObject@PEAVwpointmass@@$07@@SAHXZ@4HA ; TSS0<`template-parameter-2',QMetaTypeIdQObject<wpointmass *,8>::t_metatype_id,int * const volatile,void,int, ?? &>
PUBLIC	?metatype_id@?1??qt_metatype_id@?$QMetaTypeIdQObject@PEAVwsimulation@@$07@@SAHXZ@4V?$QBasicAtomicInteger@H@@A ; `QMetaTypeIdQObject<wsimulation *,8>::qt_metatype_id'::`2'::metatype_id
PUBLIC	?$TSS0@?1??qt_metatype_id@?$QMetaTypeIdQObject@PEAVwsimulation@@$07@@SAHXZ@4HA ; TSS0<`template-parameter-2',QMetaTypeIdQObject<wsimulation *,8>::t_metatype_id,int * const volatile,void,int, ?? &>
EXTRN	_Init_thread_header:PROC
EXTRN	_Init_thread_footer:PROC
EXTRN	__imp__invalid_parameter:PROC
EXTRN	__imp__CrtDbgReport:PROC
EXTRN	memcmp:PROC
EXTRN	strcmp:PROC
EXTRN	strlen:PROC
EXTRN	__imp_?qt_assert_x@@YAXPEBD00H@Z:PROC
EXTRN	__imp_?className@QMetaObject@@QEBAPEBDXZ:PROC
EXTRN	__imp_?normalizedType@QMetaObject@@SA?AVQByteArray@@PEBD@Z:PROC
EXTRN	__imp_?activate@QMetaObject@@SAXPEAVQObject@@PEBU1@HPEAPEAX@Z:PROC
EXTRN	__imp_??0QByteArray@@QEAA@XZ:PROC
EXTRN	__imp_??1QByteArray@@QEAA@XZ:PROC
EXTRN	__imp_?size@QByteArray@@QEBAHXZ:PROC
EXTRN	__imp_?reserve@QByteArray@@QEAAXH@Z:PROC
EXTRN	__imp_?constData@QByteArray@@QEBAPEBDXZ:PROC
EXTRN	__imp_?append@QByteArray@@QEAAAEAV1@D@Z:PROC
EXTRN	__imp_?append@QByteArray@@QEAAAEAV1@PEBD@Z:PROC
EXTRN	__imp_?registerNormalizedType@QMetaType@@SAHAEBVQByteArray@@P6AXPEAX@ZP6APEAX1PEBX@ZHV?$QFlags@W4TypeFlag@QMetaType@@@@PEBUQMetaObject@@@Z:PROC
EXTRN	__imp_?registerNormalizedTypedef@QMetaType@@SAHAEBVQByteArray@@H@Z:PROC
EXTRN	__imp_?dynamicMetaObject@QObjectData@@QEBAPEAUQMetaObject@@XZ:PROC
EXTRN	__imp_?qt_metacast@QWidget@@UEAAPEAXPEBD@Z:PROC
EXTRN	__imp_?qt_metacall@QWidget@@UEAAHW4Call@QMetaObject@@HPEAPEAX@Z:PROC
EXTRN	__imp_?qt_metacast@QDockWidget@@UEAAPEAXPEBD@Z:PROC
EXTRN	__imp_?qt_metacall@QDockWidget@@UEAAHW4Call@QMetaObject@@HPEAPEAX@Z:PROC
EXTRN	?changeTransparency@wview@@AEAAXH@Z:PROC	; wview::changeTransparency
EXTRN	?colorPalette@wview@@AEAAXXZ:PROC		; wview::colorPalette
EXTRN	?changeRedColor@wview@@AEAAXH@Z:PROC		; wview::changeRedColor
EXTRN	?changeGreenColor@wview@@AEAAXH@Z:PROC		; wview::changeGreenColor
EXTRN	?changeBlueColor@wview@@AEAAXH@Z:PROC		; wview::changeBlueColor
EXTRN	?clickAction@xModelNavigator@@AEAAXPEAVQTreeWidgetItem@@H@Z:PROC ; xModelNavigator::clickAction
EXTRN	__CxxFrameHandler3:PROC
EXTRN	_Init_thread_epoch:DWORD
EXTRN	__imp_?staticMetaObject@QWidget@@2UQMetaObject@@B:BYTE
EXTRN	__imp_?staticMetaObject@QDockWidget@@2UQMetaObject@@B:BYTE
EXTRN	?staticMetaObject@wsimulation@@2UQMetaObject@@B:BYTE ; wsimulation::staticMetaObject
EXTRN	?staticMetaObject@wpointmass@@2UQMetaObject@@B:BYTE ; wpointmass::staticMetaObject
EXTRN	?staticMetaObject@wresult@@2UQMetaObject@@B:BYTE ; wresult::staticMetaObject
EXTRN	_tls_index:DWORD
_BSS	SEGMENT
?staticMetaObject@wview@@2UQMetaObject@@B DB 030H DUP (?) ; wview::staticMetaObject
?staticMetaObject@xModelNavigator@@2UQMetaObject@@B DB 030H DUP (?) ; xModelNavigator::staticMetaObject
_BSS	ENDS
;	COMDAT ?metatype_id@?1??qt_metatype_id@?$QMetaTypeIdQObject@PEAVwresult@@$07@@SAHXZ@4V?$QBasicAtomicInteger@H@@A
_BSS	SEGMENT
?metatype_id@?1??qt_metatype_id@?$QMetaTypeIdQObject@PEAVwresult@@$07@@SAHXZ@4V?$QBasicAtomicInteger@H@@A DD 01H DUP (?) ; `QMetaTypeIdQObject<wresult *,8>::qt_metatype_id'::`2'::metatype_id
_BSS	ENDS
;	COMDAT ?$TSS0@?1??qt_metatype_id@?$QMetaTypeIdQObject@PEAVwresult@@$07@@SAHXZ@4HA
_BSS	SEGMENT
?$TSS0@?1??qt_metatype_id@?$QMetaTypeIdQObject@PEAVwresult@@$07@@SAHXZ@4HA DD 01H DUP (?) ; TSS0<`template-parameter-2',QMetaTypeIdQObject<wresult *,8>::t_metatype_id,int * const volatile,void,int, ?? &>
_BSS	ENDS
;	COMDAT ?metatype_id@?1??qt_metatype_id@?$QMetaTypeIdQObject@PEAVwpointmass@@$07@@SAHXZ@4V?$QBasicAtomicInteger@H@@A
_BSS	SEGMENT
?metatype_id@?1??qt_metatype_id@?$QMetaTypeIdQObject@PEAVwpointmass@@$07@@SAHXZ@4V?$QBasicAtomicInteger@H@@A DD 01H DUP (?) ; `QMetaTypeIdQObject<wpointmass *,8>::qt_metatype_id'::`2'::metatype_id
_BSS	ENDS
;	COMDAT ?$TSS0@?1??qt_metatype_id@?$QMetaTypeIdQObject@PEAVwpointmass@@$07@@SAHXZ@4HA
_BSS	SEGMENT
?$TSS0@?1??qt_metatype_id@?$QMetaTypeIdQObject@PEAVwpointmass@@$07@@SAHXZ@4HA DD 01H DUP (?) ; TSS0<`template-parameter-2',QMetaTypeIdQObject<wpointmass *,8>::t_metatype_id,int * const volatile,void,int, ?? &>
_BSS	ENDS
;	COMDAT ?metatype_id@?1??qt_metatype_id@?$QMetaTypeIdQObject@PEAVwsimulation@@$07@@SAHXZ@4V?$QBasicAtomicInteger@H@@A
_BSS	SEGMENT
?metatype_id@?1??qt_metatype_id@?$QMetaTypeIdQObject@PEAVwsimulation@@$07@@SAHXZ@4V?$QBasicAtomicInteger@H@@A DD 01H DUP (?) ; `QMetaTypeIdQObject<wsimulation *,8>::qt_metatype_id'::`2'::metatype_id
_BSS	ENDS
;	COMDAT ?$TSS0@?1??qt_metatype_id@?$QMetaTypeIdQObject@PEAVwsimulation@@$07@@SAHXZ@4HA
_BSS	SEGMENT
?$TSS0@?1??qt_metatype_id@?$QMetaTypeIdQObject@PEAVwsimulation@@$07@@SAHXZ@4HA DD 01H DUP (?) ; TSS0<`template-parameter-2',QMetaTypeIdQObject<wsimulation *,8>::t_metatype_id,int * const volatile,void,int, ?? &>
_BSS	ENDS
;	COMDAT pdata
pdata	SEGMENT
$pdata$?_Atomic_store_4@std@@YAXPECKKW4memory_order@1@@Z DD imagerel $LN13
	DD	imagerel $LN13+212
	DD	imagerel $unwind$?_Atomic_store_4@std@@YAXPECKKW4memory_order@1@@Z
pdata	ENDS
;	COMDAT pdata
pdata	SEGMENT
$pdata$?_Load_seq_cst_4@std@@YAKPECK@Z DD imagerel $LN3
	DD	imagerel $LN3+27
	DD	imagerel $unwind$?_Load_seq_cst_4@std@@YAKPECK@Z
pdata	ENDS
;	COMDAT pdata
pdata	SEGMENT
$pdata$?_Load_relaxed_4@std@@YAKPECK@Z DD imagerel $LN3
	DD	imagerel $LN3+27
	DD	imagerel $unwind$?_Load_relaxed_4@std@@YAKPECK@Z
pdata	ENDS
;	COMDAT pdata
pdata	SEGMENT
$pdata$?_Load_acquire_4@std@@YAKPECK@Z DD imagerel $LN3
	DD	imagerel $LN3+24
	DD	imagerel $unwind$?_Load_acquire_4@std@@YAKPECK@Z
pdata	ENDS
;	COMDAT pdata
pdata	SEGMENT
$pdata$?_Atomic_load_4@std@@YAKPECKW4memory_order@1@@Z DD imagerel $LN13
	DD	imagerel $LN13+204
	DD	imagerel $unwind$?_Atomic_load_4@std@@YAKPECKW4memory_order@1@@Z
pdata	ENDS
;	COMDAT pdata
pdata	SEGMENT
$pdata$?store@_Atomic_int@std@@QEAAXHW4memory_order@2@@Z DD imagerel $LN3
	DD	imagerel $LN3+42
	DD	imagerel $unwind$?store@_Atomic_int@std@@QEAAXHW4memory_order@2@@Z
pdata	ENDS
;	COMDAT pdata
pdata	SEGMENT
$pdata$?load@_Atomic_int@std@@QEBAHW4memory_order@2@@Z DD imagerel $LN3
	DD	imagerel $LN3+32
	DD	imagerel $unwind$?load@_Atomic_int@std@@QEBAHW4memory_order@2@@Z
pdata	ENDS
;	COMDAT pdata
pdata	SEGMENT
$pdata$?atomic_store_explicit@std@@YAXPEAU_Atomic_int@1@HW4memory_order@1@@Z DD imagerel $LN3
	DD	imagerel $LN3+55
	DD	imagerel $unwind$?atomic_store_explicit@std@@YAXPEAU_Atomic_int@1@HW4memory_order@1@@Z
pdata	ENDS
;	COMDAT pdata
pdata	SEGMENT
$pdata$?atomic_load_explicit@std@@YAHPEBU_Atomic_int@1@W4memory_order@1@@Z DD imagerel $LN3
	DD	imagerel $LN3+45
	DD	imagerel $unwind$?atomic_load_explicit@std@@YAHPEBU_Atomic_int@1@W4memory_order@1@@Z
pdata	ENDS
;	COMDAT pdata
pdata	SEGMENT
$pdata$?loadAcquire@?$QBasicAtomicInteger@H@@QEBAHXZ DD imagerel $LN3
	DD	imagerel $LN3+27
	DD	imagerel $unwind$?loadAcquire@?$QBasicAtomicInteger@H@@QEBAHXZ
pdata	ENDS
;	COMDAT pdata
pdata	SEGMENT
$pdata$?storeRelease@?$QBasicAtomicInteger@H@@QEAAXH@Z DD imagerel $LN3
	DD	imagerel $LN3+35
	DD	imagerel $unwind$?storeRelease@?$QBasicAtomicInteger@H@@QEAAXH@Z
pdata	ENDS
;	COMDAT pdata
pdata	SEGMENT
$pdata$??0?$QBasicAtomicInteger@H@@QEAA@H@Z DD imagerel $LN3
	DD	imagerel $LN3+40
	DD	imagerel $unwind$??0?$QBasicAtomicInteger@H@@QEAA@H@Z
pdata	ENDS
;	COMDAT pdata
pdata	SEGMENT
$pdata$??8@YA_NAEBVQByteArray@@0@Z DD imagerel $LN5
	DD	imagerel $LN5+164
	DD	imagerel $unwind$??8@YA_NAEBVQByteArray@@0@Z
pdata	ENDS
;	COMDAT pdata
pdata	SEGMENT
$pdata$??0?$QFlags@W4TypeFlag@QMetaType@@@@QEAA@VQFlag@@@Z DD imagerel $LN3
	DD	imagerel $LN3+40
	DD	imagerel $unwind$??0?$QFlags@W4TypeFlag@QMetaType@@@@QEAA@VQFlag@@@Z
pdata	ENDS
pdata	SEGMENT
$pdata$?metaObject@wview@@UEBAPEBUQMetaObject@@XZ DD imagerel $LN5
	DD	imagerel $LN5+88
	DD	imagerel $unwind$?metaObject@wview@@UEBAPEBUQMetaObject@@XZ
$pdata$?qt_metacast@wview@@UEAAPEAXPEBD@Z DD imagerel $LN8
	DD	imagerel $LN8+136
	DD	imagerel $unwind$?qt_metacast@wview@@UEAAPEAXPEBD@Z
$pdata$?qt_metacall@wview@@UEAAHW4Call@QMetaObject@@HPEAPEAX@Z DD imagerel $LN9
	DD	imagerel $LN9+174
	DD	imagerel $unwind$?qt_metacall@wview@@UEAAHW4Call@QMetaObject@@HPEAPEAX@Z
$pdata$?qt_static_metacall@wview@@CAXPEAVQObject@@W4Call@QMetaObject@@HPEAPEAX@Z DD imagerel $LN12
	DD	imagerel $LN12+235
	DD	imagerel $unwind$?qt_static_metacall@wview@@CAXPEAVQObject@@W4Call@QMetaObject@@HPEAPEAX@Z
$pdata$?metaObject@xModelNavigator@@UEBAPEBUQMetaObject@@XZ DD imagerel $LN5
	DD	imagerel $LN5+88
	DD	imagerel $unwind$?metaObject@xModelNavigator@@UEBAPEBUQMetaObject@@XZ
$pdata$?qt_metacast@xModelNavigator@@UEAAPEAXPEBD@Z DD imagerel $LN5
	DD	imagerel $LN5+75
	DD	imagerel $unwind$?qt_metacast@xModelNavigator@@UEAAPEAXPEBD@Z
$pdata$?qt_metacall@xModelNavigator@@UEAAHW4Call@QMetaObject@@HPEAPEAX@Z DD imagerel $LN9
	DD	imagerel $LN9+174
	DD	imagerel $unwind$?qt_metacall@xModelNavigator@@UEAAHW4Call@QMetaObject@@HPEAPEAX@Z
$pdata$?qt_static_metacall@xModelNavigator@@CAXPEAVQObject@@W4Call@QMetaObject@@HPEAPEAX@Z DD imagerel $LN50
	DD	imagerel $LN50+1322
	DD	imagerel $unwind$?qt_static_metacall@xModelNavigator@@CAXPEAVQObject@@W4Call@QMetaObject@@HPEAPEAX@Z
$pdata$?definedSimulationWidget@xModelNavigator@@QEAAXPEAVwsimulation@@@Z DD imagerel $LN3
	DD	imagerel $LN3+64
	DD	imagerel $unwind$?definedSimulationWidget@xModelNavigator@@QEAAXPEAVwsimulation@@@Z
$pdata$?definedPointMassWidget@xModelNavigator@@QEAAXPEAVwpointmass@@@Z DD imagerel $LN3
	DD	imagerel $LN3+67
	DD	imagerel $unwind$?definedPointMassWidget@xModelNavigator@@QEAAXPEAVwpointmass@@@Z
$pdata$?definedResultWidget@xModelNavigator@@QEAAXPEAVwresult@@@Z DD imagerel $LN3
	DD	imagerel $LN3+67
	DD	imagerel $unwind$?definedResultWidget@xModelNavigator@@QEAAXPEAVwresult@@@Z
$pdata$?InitializeWidgetStatement@xModelNavigator@@QEAAXXZ DD imagerel $LN3
	DD	imagerel $LN3+41
	DD	imagerel $unwind$?InitializeWidgetStatement@xModelNavigator@@QEAAXXZ
pdata	ENDS
;	COMDAT pdata
pdata	SEGMENT
$pdata$??$qRegisterMetaType@PEAVwsimulation@@@@YAHXZ DD imagerel $LN3
	DD	imagerel $LN3+14
	DD	imagerel $unwind$??$qRegisterMetaType@PEAVwsimulation@@@@YAHXZ
pdata	ENDS
;	COMDAT pdata
pdata	SEGMENT
$pdata$??$qRegisterMetaType@PEAVwpointmass@@@@YAHXZ DD imagerel $LN3
	DD	imagerel $LN3+14
	DD	imagerel $unwind$??$qRegisterMetaType@PEAVwpointmass@@@@YAHXZ
pdata	ENDS
;	COMDAT pdata
pdata	SEGMENT
$pdata$??$qRegisterMetaType@PEAVwresult@@@@YAHXZ DD imagerel $LN3
	DD	imagerel $LN3+14
	DD	imagerel $unwind$??$qRegisterMetaType@PEAVwresult@@@@YAHXZ
pdata	ENDS
;	COMDAT pdata
pdata	SEGMENT
$pdata$??$storeRelease@H@?$QAtomicOps@H@@SAXAEAU?$atomic@H@std@@H@Z DD imagerel $LN3
	DD	imagerel $LN3+38
	DD	imagerel $unwind$??$storeRelease@H@?$QAtomicOps@H@@SAXAEAU?$atomic@H@std@@H@Z
pdata	ENDS
;	COMDAT pdata
pdata	SEGMENT
$pdata$??$loadAcquire@H@?$QAtomicOps@H@@SAHAEBU?$atomic@H@std@@@Z DD imagerel $LN3
	DD	imagerel $LN3+29
	DD	imagerel $unwind$??$loadAcquire@H@?$QAtomicOps@H@@SAHAEBU?$atomic@H@std@@@Z
pdata	ENDS
;	COMDAT pdata
pdata	SEGMENT
$pdata$??$qMetaTypeId@PEAVwsimulation@@@@YAHXZ DD imagerel $LN3
	DD	imagerel $LN3+14
	DD	imagerel $unwind$??$qMetaTypeId@PEAVwsimulation@@@@YAHXZ
pdata	ENDS
;	COMDAT pdata
pdata	SEGMENT
$pdata$??$qMetaTypeId@PEAVwpointmass@@@@YAHXZ DD imagerel $LN3
	DD	imagerel $LN3+14
	DD	imagerel $unwind$??$qMetaTypeId@PEAVwpointmass@@@@YAHXZ
pdata	ENDS
;	COMDAT pdata
pdata	SEGMENT
$pdata$??$qMetaTypeId@PEAVwresult@@@@YAHXZ DD imagerel $LN3
	DD	imagerel $LN3+14
	DD	imagerel $unwind$??$qMetaTypeId@PEAVwresult@@@@YAHXZ
pdata	ENDS
;	COMDAT pdata
pdata	SEGMENT
$pdata$?qt_metatype_id@?$QMetaTypeIdQObject@PEAVwsimulation@@$07@@SAHXZ DD imagerel $LN6
	DD	imagerel $LN6+282
	DD	imagerel $unwind$?qt_metatype_id@?$QMetaTypeIdQObject@PEAVwsimulation@@$07@@SAHXZ
pdata	ENDS
;	COMDAT pdata
pdata	SEGMENT
$pdata$?dtor$0@?0??qt_metatype_id@?$QMetaTypeIdQObject@PEAVwsimulation@@$07@@SAHXZ@4HA DD imagerel ?dtor$0@?0??qt_metatype_id@?$QMetaTypeIdQObject@PEAVwsimulation@@$07@@SAHXZ@4HA
	DD	imagerel ?dtor$0@?0??qt_metatype_id@?$QMetaTypeIdQObject@PEAVwsimulation@@$07@@SAHXZ@4HA+25
	DD	imagerel $unwind$?dtor$0@?0??qt_metatype_id@?$QMetaTypeIdQObject@PEAVwsimulation@@$07@@SAHXZ@4HA
pdata	ENDS
;	COMDAT pdata
pdata	SEGMENT
$pdata$?qt_metatype_id@?$QMetaTypeId2@PEAVwsimulation@@@@SAHXZ DD imagerel $LN3
	DD	imagerel $LN3+14
	DD	imagerel $unwind$?qt_metatype_id@?$QMetaTypeId2@PEAVwsimulation@@@@SAHXZ
pdata	ENDS
;	COMDAT pdata
pdata	SEGMENT
$pdata$?qt_metatype_id@?$QMetaTypeIdQObject@PEAVwpointmass@@$07@@SAHXZ DD imagerel $LN6
	DD	imagerel $LN6+282
	DD	imagerel $unwind$?qt_metatype_id@?$QMetaTypeIdQObject@PEAVwpointmass@@$07@@SAHXZ
pdata	ENDS
;	COMDAT pdata
pdata	SEGMENT
$pdata$?dtor$0@?0??qt_metatype_id@?$QMetaTypeIdQObject@PEAVwpointmass@@$07@@SAHXZ@4HA DD imagerel ?dtor$0@?0??qt_metatype_id@?$QMetaTypeIdQObject@PEAVwpointmass@@$07@@SAHXZ@4HA
	DD	imagerel ?dtor$0@?0??qt_metatype_id@?$QMetaTypeIdQObject@PEAVwpointmass@@$07@@SAHXZ@4HA+25
	DD	imagerel $unwind$?dtor$0@?0??qt_metatype_id@?$QMetaTypeIdQObject@PEAVwpointmass@@$07@@SAHXZ@4HA
pdata	ENDS
;	COMDAT pdata
pdata	SEGMENT
$pdata$?qt_metatype_id@?$QMetaTypeId2@PEAVwpointmass@@@@SAHXZ DD imagerel $LN3
	DD	imagerel $LN3+14
	DD	imagerel $unwind$?qt_metatype_id@?$QMetaTypeId2@PEAVwpointmass@@@@SAHXZ
pdata	ENDS
;	COMDAT pdata
pdata	SEGMENT
$pdata$?qt_metatype_id@?$QMetaTypeIdQObject@PEAVwresult@@$07@@SAHXZ DD imagerel $LN6
	DD	imagerel $LN6+282
	DD	imagerel $unwind$?qt_metatype_id@?$QMetaTypeIdQObject@PEAVwresult@@$07@@SAHXZ
pdata	ENDS
;	COMDAT pdata
pdata	SEGMENT
$pdata$?dtor$0@?0??qt_metatype_id@?$QMetaTypeIdQObject@PEAVwresult@@$07@@SAHXZ@4HA DD imagerel ?dtor$0@?0??qt_metatype_id@?$QMetaTypeIdQObject@PEAVwresult@@$07@@SAHXZ@4HA
	DD	imagerel ?dtor$0@?0??qt_metatype_id@?$QMetaTypeIdQObject@PEAVwresult@@$07@@SAHXZ@4HA+25
	DD	imagerel $unwind$?dtor$0@?0??qt_metatype_id@?$QMetaTypeIdQObject@PEAVwresult@@$07@@SAHXZ@4HA
pdata	ENDS
;	COMDAT pdata
pdata	SEGMENT
$pdata$?qt_metatype_id@?$QMetaTypeId2@PEAVwresult@@@@SAHXZ DD imagerel $LN3
	DD	imagerel $LN3+14
	DD	imagerel $unwind$?qt_metatype_id@?$QMetaTypeId2@PEAVwresult@@@@SAHXZ
pdata	ENDS
;	COMDAT pdata
pdata	SEGMENT
$pdata$??$qRegisterNormalizedMetaType@PEAVwresult@@@@YAHAEBVQByteArray@@PEAPEAVwresult@@W4DefinedType@?$MetaTypeDefinedHelper@PEAVwresult@@$00@QtPrivate@@@Z DD imagerel $LN11
	DD	imagerel $LN11+346
	DD	imagerel $unwind$??$qRegisterNormalizedMetaType@PEAVwresult@@@@YAHAEBVQByteArray@@PEAPEAVwresult@@W4DefinedType@?$MetaTypeDefinedHelper@PEAVwresult@@$00@QtPrivate@@@Z
pdata	ENDS
;	COMDAT pdata
pdata	SEGMENT
$pdata$??$qRegisterNormalizedMetaType@PEAVwpointmass@@@@YAHAEBVQByteArray@@PEAPEAVwpointmass@@W4DefinedType@?$MetaTypeDefinedHelper@PEAVwpointmass@@$00@QtPrivate@@@Z DD imagerel $LN11
	DD	imagerel $LN11+346
	DD	imagerel $unwind$??$qRegisterNormalizedMetaType@PEAVwpointmass@@@@YAHAEBVQByteArray@@PEAPEAVwpointmass@@W4DefinedType@?$MetaTypeDefinedHelper@PEAVwpointmass@@$00@QtPrivate@@@Z
pdata	ENDS
;	COMDAT pdata
pdata	SEGMENT
$pdata$??$qRegisterNormalizedMetaType@PEAVwsimulation@@@@YAHAEBVQByteArray@@PEAPEAVwsimulation@@W4DefinedType@?$MetaTypeDefinedHelper@PEAVwsimulation@@$00@QtPrivate@@@Z DD imagerel $LN11
	DD	imagerel $LN11+346
	DD	imagerel $unwind$??$qRegisterNormalizedMetaType@PEAVwsimulation@@@@YAHAEBVQByteArray@@PEAPEAVwsimulation@@W4DefinedType@?$MetaTypeDefinedHelper@PEAVwsimulation@@$00@QtPrivate@@@Z
pdata	ENDS
;	COMDAT pdata
pdata	SEGMENT
$pdata$?qt_metatype_id@?$QMetaTypeIdHelper@PEAVwresult@@$00@QtPrivate@@SAHXZ DD imagerel $LN3
	DD	imagerel $LN3+14
	DD	imagerel $unwind$?qt_metatype_id@?$QMetaTypeIdHelper@PEAVwresult@@$00@QtPrivate@@SAHXZ
pdata	ENDS
;	COMDAT pdata
pdata	SEGMENT
$pdata$?Construct@?$QMetaTypeFunctionHelper@PEAVwresult@@$00@QtMetaTypePrivate@@SAPEAXPEAXPEBX@Z DD imagerel $LN4
	DD	imagerel $LN4+95
	DD	imagerel $unwind$?Construct@?$QMetaTypeFunctionHelper@PEAVwresult@@$00@QtMetaTypePrivate@@SAPEAXPEAXPEBX@Z
pdata	ENDS
;	COMDAT pdata
pdata	SEGMENT
$pdata$?qt_metatype_id@?$QMetaTypeIdHelper@PEAVwpointmass@@$00@QtPrivate@@SAHXZ DD imagerel $LN3
	DD	imagerel $LN3+14
	DD	imagerel $unwind$?qt_metatype_id@?$QMetaTypeIdHelper@PEAVwpointmass@@$00@QtPrivate@@SAHXZ
pdata	ENDS
;	COMDAT pdata
pdata	SEGMENT
$pdata$?Construct@?$QMetaTypeFunctionHelper@PEAVwpointmass@@$00@QtMetaTypePrivate@@SAPEAXPEAXPEBX@Z DD imagerel $LN4
	DD	imagerel $LN4+95
	DD	imagerel $unwind$?Construct@?$QMetaTypeFunctionHelper@PEAVwpointmass@@$00@QtMetaTypePrivate@@SAPEAXPEAXPEBX@Z
pdata	ENDS
;	COMDAT pdata
pdata	SEGMENT
$pdata$?qt_metatype_id@?$QMetaTypeIdHelper@PEAVwsimulation@@$00@QtPrivate@@SAHXZ DD imagerel $LN3
	DD	imagerel $LN3+14
	DD	imagerel $unwind$?qt_metatype_id@?$QMetaTypeIdHelper@PEAVwsimulation@@$00@QtPrivate@@SAHXZ
pdata	ENDS
;	COMDAT pdata
pdata	SEGMENT
$pdata$?Construct@?$QMetaTypeFunctionHelper@PEAVwsimulation@@$00@QtMetaTypePrivate@@SAPEAXPEAXPEBX@Z DD imagerel $LN4
	DD	imagerel $LN4+95
	DD	imagerel $unwind$?Construct@?$QMetaTypeFunctionHelper@PEAVwsimulation@@$00@QtMetaTypePrivate@@SAPEAXPEAXPEBX@Z
pdata	ENDS
CRT$XCU	SEGMENT
??staticMetaObject$initializer$@wview@@2P6AXXZEA@@3P6AXXZEA DQ FLAT:??__E?staticMetaObject@wview@@2UQMetaObject@@B@@YAXXZ ; ??staticMetaObject$initializer$@wview@@2P6AXXZEA@@3P6AXXZEA
CRT$XCU	ENDS
;	COMDAT ??_C@_1CI@NMHCEFB@?$AAs?$AAt?$AAd?$AA?3?$AA?3?$AA_?$AAA?$AAt?$AAo?$AAm?$AAi?$AAc?$AA_?$AAl?$AAo@
CONST	SEGMENT
??_C@_1CI@NMHCEFB@?$AAs?$AAt?$AAd?$AA?3?$AA?3?$AA_?$AAA?$AAt?$AAo?$AAm?$AAi?$AAc?$AA_?$AAl?$AAo@ DB 's'
	DB	00H, 't', 00H, 'd', 00H, ':', 00H, ':', 00H, '_', 00H, 'A', 00H
	DB	't', 00H, 'o', 00H, 'm', 00H, 'i', 00H, 'c', 00H, '_', 00H, 'l'
	DB	00H, 'o', 00H, 'a', 00H, 'd', 00H, '_', 00H, '4', 00H, 00H, 00H ; `string'
CONST	ENDS
;	COMDAT ??_C@_1CK@BEBCCGEN@?$AAs?$AAt?$AAd?$AA?3?$AA?3?$AA_?$AAA?$AAt?$AAo?$AAm?$AAi?$AAc?$AA_?$AAs?$AAt@
CONST	SEGMENT
??_C@_1CK@BEBCCGEN@?$AAs?$AAt?$AAd?$AA?3?$AA?3?$AA_?$AAA?$AAt?$AAo?$AAm?$AAi?$AAc?$AA_?$AAs?$AAt@ DB 's'
	DB	00H, 't', 00H, 'd', 00H, ':', 00H, ':', 00H, '_', 00H, 'A', 00H
	DB	't', 00H, 'o', 00H, 'm', 00H, 'i', 00H, 'c', 00H, '_', 00H, 's'
	DB	00H, 't', 00H, 'o', 00H, 'r', 00H, 'e', 00H, '_', 00H, '4', 00H
	DB	00H, 00H					; `string'
CONST	ENDS
;	COMDAT ??_C@_1CO@MPEJOJHF@?$AA?$CC?$AAI?$AAn?$AAv?$AAa?$AAl?$AAi?$AAd?$AA?5?$AAm?$AAe?$AAm?$AAo?$AAr?$AAy@
CONST	SEGMENT
??_C@_1CO@MPEJOJHF@?$AA?$CC?$AAI?$AAn?$AAv?$AAa?$AAl?$AAi?$AAd?$AA?5?$AAm?$AAe?$AAm?$AAo?$AAr?$AAy@ DB '"'
	DB	00H, 'I', 00H, 'n', 00H, 'v', 00H, 'a', 00H, 'l', 00H, 'i', 00H
	DB	'd', 00H, ' ', 00H, 'm', 00H, 'e', 00H, 'm', 00H, 'o', 00H, 'r'
	DB	00H, 'y', 00H, '_', 00H, 'o', 00H, 'r', 00H, 'd', 00H, 'e', 00H
	DB	'r', 00H, '"', 00H, 00H, 00H			; `string'
CONST	ENDS
;	COMDAT ??_C@_1NE@JIAMEJOL@?$AAc?$AA?3?$AA?2?$AAp?$AAr?$AAo?$AAg?$AAr?$AAa?$AAm?$AA?5?$AAf?$AAi?$AAl?$AAe@
CONST	SEGMENT
??_C@_1NE@JIAMEJOL@?$AAc?$AA?3?$AA?2?$AAp?$AAr?$AAo?$AAg?$AAr?$AAa?$AAm?$AA?5?$AAf?$AAi?$AAl?$AAe@ DB 'c'
	DB	00H, ':', 00H, '\', 00H, 'p', 00H, 'r', 00H, 'o', 00H, 'g', 00H
	DB	'r', 00H, 'a', 00H, 'm', 00H, ' ', 00H, 'f', 00H, 'i', 00H, 'l'
	DB	00H, 'e', 00H, 's', 00H, ' ', 00H, '(', 00H, 'x', 00H, '8', 00H
	DB	'6', 00H, ')', 00H, '\', 00H, 'm', 00H, 'i', 00H, 'c', 00H, 'r'
	DB	00H, 'o', 00H, 's', 00H, 'o', 00H, 'f', 00H, 't', 00H, ' ', 00H
	DB	'v', 00H, 'i', 00H, 's', 00H, 'u', 00H, 'a', 00H, 'l', 00H, ' '
	DB	00H, 's', 00H, 't', 00H, 'u', 00H, 'd', 00H, 'i', 00H, 'o', 00H
	DB	'\', 00H, '2', 00H, '0', 00H, '1', 00H, '7', 00H, '\', 00H, 'c'
	DB	00H, 'o', 00H, 'm', 00H, 'm', 00H, 'u', 00H, 'n', 00H, 'i', 00H
	DB	't', 00H, 'y', 00H, '\', 00H, 'v', 00H, 'c', 00H, '\', 00H, 't'
	DB	00H, 'o', 00H, 'o', 00H, 'l', 00H, 's', 00H, '\', 00H, 'm', 00H
	DB	's', 00H, 'v', 00H, 'c', 00H, '\', 00H, '1', 00H, '4', 00H, '.'
	DB	00H, '1', 00H, '6', 00H, '.', 00H, '2', 00H, '7', 00H, '0', 00H
	DB	'2', 00H, '3', 00H, '\', 00H, 'i', 00H, 'n', 00H, 'c', 00H, 'l'
	DB	00H, 'u', 00H, 'd', 00H, 'e', 00H, '\', 00H, 'x', 00H, 'a', 00H
	DB	't', 00H, 'o', 00H, 'm', 00H, 'i', 00H, 'c', 00H, '.', 00H, 'h'
	DB	00H, 00H, 00H				; `string'
CONST	ENDS
;	COMDAT ??_C@_0GK@HCPCNJPA@c?3?2program?5files?5?$CIx86?$CJ?2microsof@
CONST	SEGMENT
??_C@_0GK@HCPCNJPA@c?3?2program?5files?5?$CIx86?$CJ?2microsof@ DB 'c:\pro'
	DB	'gram files (x86)\microsoft visual studio\2017\community\vc\to'
	DB	'ols\msvc\14.16.27023\include\xatomic.h', 00H ; `string'
CONST	ENDS
;	COMDAT ??_C@_0BF@ELBANHFK@Invalid?5memory_order@
CONST	SEGMENT
??_C@_0BF@ELBANHFK@Invalid?5memory_order@ DB 'Invalid memory_order', 00H ; `string'
CONST	ENDS
;	COMDAT ??_C@_02DKCKIIND@?$CFs@
CONST	SEGMENT
??_C@_02DKCKIIND@?$CFs@ DB '%s', 00H			; `string'
CONST	ENDS
;	COMDAT xdata
xdata	SEGMENT
$unwind$?Construct@?$QMetaTypeFunctionHelper@PEAVwsimulation@@$00@QtMetaTypePrivate@@SAPEAXPEAXPEBX@Z DD 010e01H
	DD	0620eH
xdata	ENDS
;	COMDAT xdata
xdata	SEGMENT
$unwind$?qt_metatype_id@?$QMetaTypeIdHelper@PEAVwsimulation@@$00@QtPrivate@@SAHXZ DD 010401H
	DD	04204H
xdata	ENDS
;	COMDAT xdata
xdata	SEGMENT
$unwind$?Construct@?$QMetaTypeFunctionHelper@PEAVwpointmass@@$00@QtMetaTypePrivate@@SAPEAXPEAXPEBX@Z DD 010e01H
	DD	0620eH
xdata	ENDS
;	COMDAT xdata
xdata	SEGMENT
$unwind$?qt_metatype_id@?$QMetaTypeIdHelper@PEAVwpointmass@@$00@QtPrivate@@SAHXZ DD 010401H
	DD	04204H
xdata	ENDS
;	COMDAT xdata
xdata	SEGMENT
$unwind$?Construct@?$QMetaTypeFunctionHelper@PEAVwresult@@$00@QtMetaTypePrivate@@SAPEAXPEAXPEBX@Z DD 010e01H
	DD	0620eH
xdata	ENDS
;	COMDAT xdata
xdata	SEGMENT
$unwind$?qt_metatype_id@?$QMetaTypeIdHelper@PEAVwresult@@$00@QtPrivate@@SAHXZ DD 010401H
	DD	04204H
xdata	ENDS
;	COMDAT xdata
xdata	SEGMENT
$unwind$??$qRegisterNormalizedMetaType@PEAVwsimulation@@@@YAHAEBVQByteArray@@PEAPEAVwsimulation@@W4DefinedType@?$MetaTypeDefinedHelper@PEAVwsimulation@@$00@QtPrivate@@@Z DD 011301H
	DD	0c213H
xdata	ENDS
;	COMDAT xdata
xdata	SEGMENT
$unwind$??$qRegisterNormalizedMetaType@PEAVwpointmass@@@@YAHAEBVQByteArray@@PEAPEAVwpointmass@@W4DefinedType@?$MetaTypeDefinedHelper@PEAVwpointmass@@$00@QtPrivate@@@Z DD 011301H
	DD	0c213H
xdata	ENDS
;	COMDAT xdata
xdata	SEGMENT
$unwind$??$qRegisterNormalizedMetaType@PEAVwresult@@@@YAHAEBVQByteArray@@PEAPEAVwresult@@W4DefinedType@?$MetaTypeDefinedHelper@PEAVwresult@@$00@QtPrivate@@@Z DD 011301H
	DD	0c213H
xdata	ENDS
;	COMDAT xdata
xdata	SEGMENT
$unwind$?qt_metatype_id@?$QMetaTypeId2@PEAVwresult@@@@SAHXZ DD 010401H
	DD	04204H
xdata	ENDS
;	COMDAT xdata
xdata	SEGMENT
$unwind$?dtor$0@?0??qt_metatype_id@?$QMetaTypeIdQObject@PEAVwresult@@$07@@SAHXZ@4HA DD 020601H
	DD	050023206H
xdata	ENDS
;	COMDAT xdata
xdata	SEGMENT
$ip2state$?qt_metatype_id@?$QMetaTypeIdQObject@PEAVwresult@@$07@@SAHXZ DD imagerel ?qt_metatype_id@?$QMetaTypeIdQObject@PEAVwresult@@$07@@SAHXZ
	DD	0ffffffffH
	DD	imagerel ?qt_metatype_id@?$QMetaTypeIdQObject@PEAVwresult@@$07@@SAHXZ+159
	DD	00H
	DD	imagerel ?qt_metatype_id@?$QMetaTypeIdQObject@PEAVwresult@@$07@@SAHXZ+262
	DD	0ffffffffH
xdata	ENDS
;	COMDAT xdata
xdata	SEGMENT
$stateUnwindMap$?qt_metatype_id@?$QMetaTypeIdQObject@PEAVwresult@@$07@@SAHXZ DD 0ffffffffH
	DD	imagerel ?dtor$0@?0??qt_metatype_id@?$QMetaTypeIdQObject@PEAVwresult@@$07@@SAHXZ@4HA
xdata	ENDS
;	COMDAT CONST
CONST	SEGMENT
$cppxdata$?qt_metatype_id@?$QMetaTypeIdQObject@PEAVwresult@@$07@@SAHXZ DD 019930522H
	DD	01H
	DD	imagerel $stateUnwindMap$?qt_metatype_id@?$QMetaTypeIdQObject@PEAVwresult@@$07@@SAHXZ
	DD	00H
	DD	00H
	DD	03H
	DD	imagerel $ip2state$?qt_metatype_id@?$QMetaTypeIdQObject@PEAVwresult@@$07@@SAHXZ
	DD	040H
	DD	00H
	DD	01H
CONST	ENDS
;	COMDAT xdata
xdata	SEGMENT
$unwind$?qt_metatype_id@?$QMetaTypeIdQObject@PEAVwresult@@$07@@SAHXZ DD 010d11H
	DD	0a204H
	DD	imagerel __CxxFrameHandler3
	DD	imagerel $cppxdata$?qt_metatype_id@?$QMetaTypeIdQObject@PEAVwresult@@$07@@SAHXZ
xdata	ENDS
;	COMDAT xdata
xdata	SEGMENT
$unwind$?qt_metatype_id@?$QMetaTypeId2@PEAVwpointmass@@@@SAHXZ DD 010401H
	DD	04204H
xdata	ENDS
;	COMDAT xdata
xdata	SEGMENT
$unwind$?dtor$0@?0??qt_metatype_id@?$QMetaTypeIdQObject@PEAVwpointmass@@$07@@SAHXZ@4HA DD 020601H
	DD	050023206H
xdata	ENDS
;	COMDAT xdata
xdata	SEGMENT
$ip2state$?qt_metatype_id@?$QMetaTypeIdQObject@PEAVwpointmass@@$07@@SAHXZ DD imagerel ?qt_metatype_id@?$QMetaTypeIdQObject@PEAVwpointmass@@$07@@SAHXZ
	DD	0ffffffffH
	DD	imagerel ?qt_metatype_id@?$QMetaTypeIdQObject@PEAVwpointmass@@$07@@SAHXZ+159
	DD	00H
	DD	imagerel ?qt_metatype_id@?$QMetaTypeIdQObject@PEAVwpointmass@@$07@@SAHXZ+262
	DD	0ffffffffH
xdata	ENDS
;	COMDAT xdata
xdata	SEGMENT
$stateUnwindMap$?qt_metatype_id@?$QMetaTypeIdQObject@PEAVwpointmass@@$07@@SAHXZ DD 0ffffffffH
	DD	imagerel ?dtor$0@?0??qt_metatype_id@?$QMetaTypeIdQObject@PEAVwpointmass@@$07@@SAHXZ@4HA
xdata	ENDS
;	COMDAT CONST
CONST	SEGMENT
$cppxdata$?qt_metatype_id@?$QMetaTypeIdQObject@PEAVwpointmass@@$07@@SAHXZ DD 019930522H
	DD	01H
	DD	imagerel $stateUnwindMap$?qt_metatype_id@?$QMetaTypeIdQObject@PEAVwpointmass@@$07@@SAHXZ
	DD	00H
	DD	00H
	DD	03H
	DD	imagerel $ip2state$?qt_metatype_id@?$QMetaTypeIdQObject@PEAVwpointmass@@$07@@SAHXZ
	DD	040H
	DD	00H
	DD	01H
CONST	ENDS
;	COMDAT xdata
xdata	SEGMENT
$unwind$?qt_metatype_id@?$QMetaTypeIdQObject@PEAVwpointmass@@$07@@SAHXZ DD 010d11H
	DD	0a204H
	DD	imagerel __CxxFrameHandler3
	DD	imagerel $cppxdata$?qt_metatype_id@?$QMetaTypeIdQObject@PEAVwpointmass@@$07@@SAHXZ
xdata	ENDS
;	COMDAT xdata
xdata	SEGMENT
$unwind$?qt_metatype_id@?$QMetaTypeId2@PEAVwsimulation@@@@SAHXZ DD 010401H
	DD	04204H
xdata	ENDS
;	COMDAT xdata
xdata	SEGMENT
$unwind$?dtor$0@?0??qt_metatype_id@?$QMetaTypeIdQObject@PEAVwsimulation@@$07@@SAHXZ@4HA DD 020601H
	DD	050023206H
xdata	ENDS
;	COMDAT xdata
xdata	SEGMENT
$ip2state$?qt_metatype_id@?$QMetaTypeIdQObject@PEAVwsimulation@@$07@@SAHXZ DD imagerel ?qt_metatype_id@?$QMetaTypeIdQObject@PEAVwsimulation@@$07@@SAHXZ
	DD	0ffffffffH
	DD	imagerel ?qt_metatype_id@?$QMetaTypeIdQObject@PEAVwsimulation@@$07@@SAHXZ+159
	DD	00H
	DD	imagerel ?qt_metatype_id@?$QMetaTypeIdQObject@PEAVwsimulation@@$07@@SAHXZ+262
	DD	0ffffffffH
xdata	ENDS
;	COMDAT xdata
xdata	SEGMENT
$stateUnwindMap$?qt_metatype_id@?$QMetaTypeIdQObject@PEAVwsimulation@@$07@@SAHXZ DD 0ffffffffH
	DD	imagerel ?dtor$0@?0??qt_metatype_id@?$QMetaTypeIdQObject@PEAVwsimulation@@$07@@SAHXZ@4HA
xdata	ENDS
;	COMDAT CONST
CONST	SEGMENT
$cppxdata$?qt_metatype_id@?$QMetaTypeIdQObject@PEAVwsimulation@@$07@@SAHXZ DD 019930522H
	DD	01H
	DD	imagerel $stateUnwindMap$?qt_metatype_id@?$QMetaTypeIdQObject@PEAVwsimulation@@$07@@SAHXZ
	DD	00H
	DD	00H
	DD	03H
	DD	imagerel $ip2state$?qt_metatype_id@?$QMetaTypeIdQObject@PEAVwsimulation@@$07@@SAHXZ
	DD	040H
	DD	00H
	DD	01H
CONST	ENDS
;	COMDAT xdata
xdata	SEGMENT
$unwind$?qt_metatype_id@?$QMetaTypeIdQObject@PEAVwsimulation@@$07@@SAHXZ DD 010d11H
	DD	0a204H
	DD	imagerel __CxxFrameHandler3
	DD	imagerel $cppxdata$?qt_metatype_id@?$QMetaTypeIdQObject@PEAVwsimulation@@$07@@SAHXZ
xdata	ENDS
;	COMDAT xdata
xdata	SEGMENT
$unwind$??$qMetaTypeId@PEAVwresult@@@@YAHXZ DD 010401H
	DD	04204H
xdata	ENDS
;	COMDAT xdata
xdata	SEGMENT
$unwind$??$qMetaTypeId@PEAVwpointmass@@@@YAHXZ DD 010401H
	DD	04204H
xdata	ENDS
;	COMDAT xdata
xdata	SEGMENT
$unwind$??$qMetaTypeId@PEAVwsimulation@@@@YAHXZ DD 010401H
	DD	04204H
xdata	ENDS
;	COMDAT xdata
xdata	SEGMENT
$unwind$??$loadAcquire@H@?$QAtomicOps@H@@SAHAEBU?$atomic@H@std@@@Z DD 010901H
	DD	04209H
xdata	ENDS
;	COMDAT xdata
xdata	SEGMENT
$unwind$??$storeRelease@H@?$QAtomicOps@H@@SAXAEAU?$atomic@H@std@@H@Z DD 010d01H
	DD	0420dH
xdata	ENDS
;	COMDAT xdata
xdata	SEGMENT
$unwind$??$qRegisterMetaType@PEAVwresult@@@@YAHXZ DD 010401H
	DD	04204H
xdata	ENDS
;	COMDAT xdata
xdata	SEGMENT
$unwind$??$qRegisterMetaType@PEAVwpointmass@@@@YAHXZ DD 010401H
	DD	04204H
xdata	ENDS
;	COMDAT xdata
xdata	SEGMENT
$unwind$??$qRegisterMetaType@PEAVwsimulation@@@@YAHXZ DD 010401H
	DD	04204H
xdata	ENDS
xdata	SEGMENT
$unwind$?metaObject@wview@@UEBAPEBUQMetaObject@@XZ DD 010901H
	DD	06209H
$unwind$?qt_metacast@wview@@UEAAPEAXPEBD@Z DD 010e01H
	DD	0620eH
$unwind$?qt_metacall@wview@@UEAAHW4Call@QMetaObject@@HPEAPEAX@Z DD 011701H
	DD	04217H
$unwind$?qt_static_metacall@wview@@CAXPEAVQObject@@W4Call@QMetaObject@@HPEAPEAX@Z DD 011701H
	DD	06217H
$unwind$?metaObject@xModelNavigator@@UEBAPEBUQMetaObject@@XZ DD 010901H
	DD	06209H
$unwind$?qt_metacast@xModelNavigator@@UEAAPEAXPEBD@Z DD 010e01H
	DD	0420eH
$unwind$?qt_metacall@xModelNavigator@@UEAAHW4Call@QMetaObject@@HPEAPEAX@Z DD 011701H
	DD	04217H
$unwind$?qt_static_metacall@xModelNavigator@@CAXPEAVQObject@@W4Call@QMetaObject@@HPEAPEAX@Z DD 021a01H
	DD	015011aH
$unwind$?definedSimulationWidget@xModelNavigator@@QEAAXPEAVwsimulation@@@Z DD 010e01H
	DD	0620eH
$unwind$?definedPointMassWidget@xModelNavigator@@QEAAXPEAVwpointmass@@@Z DD 010e01H
	DD	0620eH
$unwind$?definedResultWidget@xModelNavigator@@QEAAXPEAVwresult@@@Z DD 010e01H
	DD	0620eH
$unwind$?InitializeWidgetStatement@xModelNavigator@@QEAAXXZ DD 010901H
	DD	04209H
xdata	ENDS
;	COMDAT xdata
xdata	SEGMENT
$unwind$??0?$QFlags@W4TypeFlag@QMetaType@@@@QEAA@VQFlag@@@Z DD 010d01H
	DD	0420dH
xdata	ENDS
;	COMDAT xdata
xdata	SEGMENT
$ip2state$??8@YA_NAEBVQByteArray@@0@Z DD imagerel ??8@YA_NAEBVQByteArray@@0@Z
	DD	0ffffffffH
xdata	ENDS
;	COMDAT CONST
CONST	SEGMENT
$cppxdata$??8@YA_NAEBVQByteArray@@0@Z DD 019930522H
	DD	00H
	DD	00H
	DD	00H
	DD	00H
	DD	01H
	DD	imagerel $ip2state$??8@YA_NAEBVQByteArray@@0@Z
	DD	038H
	DD	00H
	DD	05H
CONST	ENDS
;	COMDAT xdata
xdata	SEGMENT
$unwind$??8@YA_NAEBVQByteArray@@0@Z DD 011719H
	DD	0820eH
	DD	imagerel __CxxFrameHandler3
	DD	imagerel $cppxdata$??8@YA_NAEBVQByteArray@@0@Z
xdata	ENDS
;	COMDAT xdata
xdata	SEGMENT
$unwind$??0?$QBasicAtomicInteger@H@@QEAA@H@Z DD 010d01H
	DD	0420dH
xdata	ENDS
;	COMDAT xdata
xdata	SEGMENT
$unwind$?storeRelease@?$QBasicAtomicInteger@H@@QEAAXH@Z DD 010d01H
	DD	0420dH
xdata	ENDS
;	COMDAT xdata
xdata	SEGMENT
$unwind$?loadAcquire@?$QBasicAtomicInteger@H@@QEBAHXZ DD 010901H
	DD	04209H
xdata	ENDS
;	COMDAT xdata
xdata	SEGMENT
$ip2state$?atomic_load_explicit@std@@YAHPEBU_Atomic_int@1@W4memory_order@1@@Z DD imagerel ?atomic_load_explicit@std@@YAHPEBU_Atomic_int@1@W4memory_order@1@@Z
	DD	0ffffffffH
xdata	ENDS
;	COMDAT CONST
CONST	SEGMENT
$cppxdata$?atomic_load_explicit@std@@YAHPEBU_Atomic_int@1@W4memory_order@1@@Z DD 019930522H
	DD	00H
	DD	00H
	DD	00H
	DD	00H
	DD	01H
	DD	imagerel $ip2state$?atomic_load_explicit@std@@YAHPEBU_Atomic_int@1@W4memory_order@1@@Z
	DD	020H
	DD	00H
	DD	05H
CONST	ENDS
;	COMDAT xdata
xdata	SEGMENT
$unwind$?atomic_load_explicit@std@@YAHPEBU_Atomic_int@1@W4memory_order@1@@Z DD 011619H
	DD	0620dH
	DD	imagerel __CxxFrameHandler3
	DD	imagerel $cppxdata$?atomic_load_explicit@std@@YAHPEBU_Atomic_int@1@W4memory_order@1@@Z
xdata	ENDS
;	COMDAT xdata
xdata	SEGMENT
$ip2state$?atomic_store_explicit@std@@YAXPEAU_Atomic_int@1@HW4memory_order@1@@Z DD imagerel ?atomic_store_explicit@std@@YAXPEAU_Atomic_int@1@HW4memory_order@1@@Z
	DD	0ffffffffH
xdata	ENDS
;	COMDAT CONST
CONST	SEGMENT
$cppxdata$?atomic_store_explicit@std@@YAXPEAU_Atomic_int@1@HW4memory_order@1@@Z DD 019930522H
	DD	00H
	DD	00H
	DD	00H
	DD	00H
	DD	01H
	DD	imagerel $ip2state$?atomic_store_explicit@std@@YAXPEAU_Atomic_int@1@HW4memory_order@1@@Z
	DD	020H
	DD	00H
	DD	05H
CONST	ENDS
;	COMDAT xdata
xdata	SEGMENT
$unwind$?atomic_store_explicit@std@@YAXPEAU_Atomic_int@1@HW4memory_order@1@@Z DD 011b19H
	DD	06212H
	DD	imagerel __CxxFrameHandler3
	DD	imagerel $cppxdata$?atomic_store_explicit@std@@YAXPEAU_Atomic_int@1@HW4memory_order@1@@Z
xdata	ENDS
;	COMDAT xdata
xdata	SEGMENT
$unwind$?load@_Atomic_int@std@@QEBAHW4memory_order@2@@Z DD 010d01H
	DD	0420dH
xdata	ENDS
;	COMDAT xdata
xdata	SEGMENT
$unwind$?store@_Atomic_int@std@@QEAAXHW4memory_order@2@@Z DD 011201H
	DD	04212H
xdata	ENDS
;	COMDAT xdata
xdata	SEGMENT
$unwind$?_Atomic_load_4@std@@YAKPECKW4memory_order@1@@Z DD 010d01H
	DD	0820dH
xdata	ENDS
;	COMDAT xdata
xdata	SEGMENT
$unwind$?_Load_acquire_4@std@@YAKPECK@Z DD 010901H
	DD	04209H
xdata	ENDS
;	COMDAT xdata
xdata	SEGMENT
$unwind$?_Load_relaxed_4@std@@YAKPECK@Z DD 010901H
	DD	02209H
xdata	ENDS
;	COMDAT xdata
xdata	SEGMENT
$unwind$?_Load_seq_cst_4@std@@YAKPECK@Z DD 010901H
	DD	02209H
xdata	ENDS
;	COMDAT xdata
xdata	SEGMENT
$unwind$?_Atomic_store_4@std@@YAXPECKKW4memory_order@1@@Z DD 011201H
	DD	08212H
xdata	ENDS
CRT$XCU	SEGMENT
??staticMetaObject$initializer$@xModelNavigator@@2P6AXXZEA@@3P6AXXZEA DQ FLAT:??__E?staticMetaObject@xModelNavigator@@2UQMetaObject@@B@@YAXXZ ; ??staticMetaObject$initializer$@xModelNavigator@@2P6AXXZEA@@3P6AXXZEA
CRT$XCU	ENDS
; Function compile flags: /Odtp
;	COMDAT ?registerConverter@?$MetaTypeSmartPointerHelper@PEAVwsimulation@@X@QtPrivate@@SA_NH@Z
_TEXT	SEGMENT
__formal$ = 8
?registerConverter@?$MetaTypeSmartPointerHelper@PEAVwsimulation@@X@QtPrivate@@SA_NH@Z PROC ; QtPrivate::MetaTypeSmartPointerHelper<wsimulation *,void>::registerConverter, COMDAT
; File c:\qt\5.12.6\msvc2017_64\include\qtcore\qmetatype.h
; Line 1635
	mov	DWORD PTR [rsp+8], ecx
	xor	al, al
	ret	0
?registerConverter@?$MetaTypeSmartPointerHelper@PEAVwsimulation@@X@QtPrivate@@SA_NH@Z ENDP ; QtPrivate::MetaTypeSmartPointerHelper<wsimulation *,void>::registerConverter
_TEXT	ENDS
; Function compile flags: /Odtp
;	COMDAT ?registerConverter@?$IsPair@PEAVwsimulation@@@QtPrivate@@SA_NH@Z
_TEXT	SEGMENT
__formal$ = 8
?registerConverter@?$IsPair@PEAVwsimulation@@@QtPrivate@@SA_NH@Z PROC ; QtPrivate::IsPair<wsimulation *>::registerConverter, COMDAT
; File c:\qt\5.12.6\msvc2017_64\include\qtcore\qmetatype.h
; Line 1620
	mov	DWORD PTR [rsp+8], ecx
; Line 1621
	xor	al, al
; Line 1622
	ret	0
?registerConverter@?$IsPair@PEAVwsimulation@@@QtPrivate@@SA_NH@Z ENDP ; QtPrivate::IsPair<wsimulation *>::registerConverter
_TEXT	ENDS
; Function compile flags: /Odtp
;	COMDAT ?registerConverter@?$AssociativeContainerConverterHelper@PEAVwsimulation@@$0A@@QtPrivate@@SA_NH@Z
_TEXT	SEGMENT
__formal$ = 8
?registerConverter@?$AssociativeContainerConverterHelper@PEAVwsimulation@@$0A@@QtPrivate@@SA_NH@Z PROC ; QtPrivate::AssociativeContainerConverterHelper<wsimulation *,0>::registerConverter, COMDAT
; File c:\qt\5.12.6\msvc2017_64\include\qtcore\qmetatype.h
; Line 1567
	mov	DWORD PTR [rsp+8], ecx
; Line 1568
	xor	al, al
; Line 1569
	ret	0
?registerConverter@?$AssociativeContainerConverterHelper@PEAVwsimulation@@$0A@@QtPrivate@@SA_NH@Z ENDP ; QtPrivate::AssociativeContainerConverterHelper<wsimulation *,0>::registerConverter
_TEXT	ENDS
; Function compile flags: /Odtp
;	COMDAT ?registerConverter@?$SequentialContainerConverterHelper@PEAVwsimulation@@$0A@@QtPrivate@@SA_NH@Z
_TEXT	SEGMENT
__formal$ = 8
?registerConverter@?$SequentialContainerConverterHelper@PEAVwsimulation@@$0A@@QtPrivate@@SA_NH@Z PROC ; QtPrivate::SequentialContainerConverterHelper<wsimulation *,0>::registerConverter, COMDAT
; File c:\qt\5.12.6\msvc2017_64\include\qtcore\qmetatype.h
; Line 1544
	mov	DWORD PTR [rsp+8], ecx
; Line 1545
	xor	al, al
; Line 1546
	ret	0
?registerConverter@?$SequentialContainerConverterHelper@PEAVwsimulation@@$0A@@QtPrivate@@SA_NH@Z ENDP ; QtPrivate::SequentialContainerConverterHelper<wsimulation *,0>::registerConverter
_TEXT	ENDS
; Function compile flags: /Odtp
;	COMDAT ?value@?$MetaObjectForType@PEAVwsimulation@@X@QtPrivate@@SAPEBUQMetaObject@@XZ
_TEXT	SEGMENT
?value@?$MetaObjectForType@PEAVwsimulation@@X@QtPrivate@@SAPEBUQMetaObject@@XZ PROC ; QtPrivate::MetaObjectForType<wsimulation *,void>::value, COMDAT
; File c:\qt\5.12.6\msvc2017_64\include\qtcore\qmetatype.h
; Line 1476
	lea	rax, OFFSET FLAT:?staticMetaObject@wsimulation@@2UQMetaObject@@B ; wsimulation::staticMetaObject
	ret	0
?value@?$MetaObjectForType@PEAVwsimulation@@X@QtPrivate@@SAPEBUQMetaObject@@XZ ENDP ; QtPrivate::MetaObjectForType<wsimulation *,void>::value
_TEXT	ENDS
; Function compile flags: /Odtp
;	COMDAT ?Construct@?$QMetaTypeFunctionHelper@PEAVwsimulation@@$00@QtMetaTypePrivate@@SAPEAXPEAXPEBX@Z
_TEXT	SEGMENT
$T1 = 32
$T2 = 40
where$ = 64
t$ = 72
?Construct@?$QMetaTypeFunctionHelper@PEAVwsimulation@@$00@QtMetaTypePrivate@@SAPEAXPEAXPEBX@Z PROC ; QtMetaTypePrivate::QMetaTypeFunctionHelper<wsimulation *,1>::Construct, COMDAT
; File c:\qt\5.12.6\msvc2017_64\include\qtcore\qmetatype.h
; Line 802
$LN4:
	mov	QWORD PTR [rsp+16], rdx
	mov	QWORD PTR [rsp+8], rcx
	sub	rsp, 56					; 00000038H
; Line 803
	cmp	QWORD PTR t$[rsp], 0
	je	SHORT $LN2@Construct
; Line 804
	mov	rdx, QWORD PTR where$[rsp]
	mov	ecx, 8
	call	??2@YAPEAX_KPEAX@Z			; operator new
	mov	QWORD PTR $T1[rsp], rax
	mov	rax, QWORD PTR $T1[rsp]
	mov	rcx, QWORD PTR t$[rsp]
	mov	rcx, QWORD PTR [rcx]
	mov	QWORD PTR [rax], rcx
	mov	rax, QWORD PTR $T1[rsp]
	jmp	SHORT $LN1@Construct
$LN2@Construct:
; Line 805
	mov	rdx, QWORD PTR where$[rsp]
	mov	ecx, 8
	call	??2@YAPEAX_KPEAX@Z			; operator new
	mov	QWORD PTR $T2[rsp], rax
	mov	rax, QWORD PTR $T2[rsp]
$LN1@Construct:
; Line 806
	add	rsp, 56					; 00000038H
	ret	0
?Construct@?$QMetaTypeFunctionHelper@PEAVwsimulation@@$00@QtMetaTypePrivate@@SAPEAXPEAXPEBX@Z ENDP ; QtMetaTypePrivate::QMetaTypeFunctionHelper<wsimulation *,1>::Construct
_TEXT	ENDS
; Function compile flags: /Odtp
;	COMDAT ?Destruct@?$QMetaTypeFunctionHelper@PEAVwsimulation@@$00@QtMetaTypePrivate@@SAXPEAX@Z
_TEXT	SEGMENT
t$ = 8
?Destruct@?$QMetaTypeFunctionHelper@PEAVwsimulation@@$00@QtMetaTypePrivate@@SAXPEAX@Z PROC ; QtMetaTypePrivate::QMetaTypeFunctionHelper<wsimulation *,1>::Destruct, COMDAT
; File c:\qt\5.12.6\msvc2017_64\include\qtcore\qmetatype.h
; Line 796
	mov	QWORD PTR [rsp+8], rcx
; Line 799
	ret	0
?Destruct@?$QMetaTypeFunctionHelper@PEAVwsimulation@@$00@QtMetaTypePrivate@@SAXPEAX@Z ENDP ; QtMetaTypePrivate::QMetaTypeFunctionHelper<wsimulation *,1>::Destruct
_TEXT	ENDS
; Function compile flags: /Odtp
;	COMDAT ?qt_metatype_id@?$QMetaTypeIdHelper@PEAVwsimulation@@$00@QtPrivate@@SAHXZ
_TEXT	SEGMENT
?qt_metatype_id@?$QMetaTypeIdHelper@PEAVwsimulation@@$00@QtPrivate@@SAHXZ PROC ; QtPrivate::QMetaTypeIdHelper<wsimulation *,1>::qt_metatype_id, COMDAT
; File c:\qt\5.12.6\msvc2017_64\include\qtcore\qmetatype.h
; Line 1675
$LN3:
	sub	rsp, 40					; 00000028H
	call	?qt_metatype_id@?$QMetaTypeId2@PEAVwsimulation@@@@SAHXZ ; QMetaTypeId2<wsimulation *>::qt_metatype_id
	add	rsp, 40					; 00000028H
	ret	0
?qt_metatype_id@?$QMetaTypeIdHelper@PEAVwsimulation@@$00@QtPrivate@@SAHXZ ENDP ; QtPrivate::QMetaTypeIdHelper<wsimulation *,1>::qt_metatype_id
_TEXT	ENDS
; Function compile flags: /Odtp
;	COMDAT ?registerConverter@?$MetaTypeSmartPointerHelper@PEAVwpointmass@@X@QtPrivate@@SA_NH@Z
_TEXT	SEGMENT
__formal$ = 8
?registerConverter@?$MetaTypeSmartPointerHelper@PEAVwpointmass@@X@QtPrivate@@SA_NH@Z PROC ; QtPrivate::MetaTypeSmartPointerHelper<wpointmass *,void>::registerConverter, COMDAT
; File c:\qt\5.12.6\msvc2017_64\include\qtcore\qmetatype.h
; Line 1635
	mov	DWORD PTR [rsp+8], ecx
	xor	al, al
	ret	0
?registerConverter@?$MetaTypeSmartPointerHelper@PEAVwpointmass@@X@QtPrivate@@SA_NH@Z ENDP ; QtPrivate::MetaTypeSmartPointerHelper<wpointmass *,void>::registerConverter
_TEXT	ENDS
; Function compile flags: /Odtp
;	COMDAT ?registerConverter@?$IsPair@PEAVwpointmass@@@QtPrivate@@SA_NH@Z
_TEXT	SEGMENT
__formal$ = 8
?registerConverter@?$IsPair@PEAVwpointmass@@@QtPrivate@@SA_NH@Z PROC ; QtPrivate::IsPair<wpointmass *>::registerConverter, COMDAT
; File c:\qt\5.12.6\msvc2017_64\include\qtcore\qmetatype.h
; Line 1620
	mov	DWORD PTR [rsp+8], ecx
; Line 1621
	xor	al, al
; Line 1622
	ret	0
?registerConverter@?$IsPair@PEAVwpointmass@@@QtPrivate@@SA_NH@Z ENDP ; QtPrivate::IsPair<wpointmass *>::registerConverter
_TEXT	ENDS
; Function compile flags: /Odtp
;	COMDAT ?registerConverter@?$AssociativeContainerConverterHelper@PEAVwpointmass@@$0A@@QtPrivate@@SA_NH@Z
_TEXT	SEGMENT
__formal$ = 8
?registerConverter@?$AssociativeContainerConverterHelper@PEAVwpointmass@@$0A@@QtPrivate@@SA_NH@Z PROC ; QtPrivate::AssociativeContainerConverterHelper<wpointmass *,0>::registerConverter, COMDAT
; File c:\qt\5.12.6\msvc2017_64\include\qtcore\qmetatype.h
; Line 1567
	mov	DWORD PTR [rsp+8], ecx
; Line 1568
	xor	al, al
; Line 1569
	ret	0
?registerConverter@?$AssociativeContainerConverterHelper@PEAVwpointmass@@$0A@@QtPrivate@@SA_NH@Z ENDP ; QtPrivate::AssociativeContainerConverterHelper<wpointmass *,0>::registerConverter
_TEXT	ENDS
; Function compile flags: /Odtp
;	COMDAT ?registerConverter@?$SequentialContainerConverterHelper@PEAVwpointmass@@$0A@@QtPrivate@@SA_NH@Z
_TEXT	SEGMENT
__formal$ = 8
?registerConverter@?$SequentialContainerConverterHelper@PEAVwpointmass@@$0A@@QtPrivate@@SA_NH@Z PROC ; QtPrivate::SequentialContainerConverterHelper<wpointmass *,0>::registerConverter, COMDAT
; File c:\qt\5.12.6\msvc2017_64\include\qtcore\qmetatype.h
; Line 1544
	mov	DWORD PTR [rsp+8], ecx
; Line 1545
	xor	al, al
; Line 1546
	ret	0
?registerConverter@?$SequentialContainerConverterHelper@PEAVwpointmass@@$0A@@QtPrivate@@SA_NH@Z ENDP ; QtPrivate::SequentialContainerConverterHelper<wpointmass *,0>::registerConverter
_TEXT	ENDS
; Function compile flags: /Odtp
;	COMDAT ?value@?$MetaObjectForType@PEAVwpointmass@@X@QtPrivate@@SAPEBUQMetaObject@@XZ
_TEXT	SEGMENT
?value@?$MetaObjectForType@PEAVwpointmass@@X@QtPrivate@@SAPEBUQMetaObject@@XZ PROC ; QtPrivate::MetaObjectForType<wpointmass *,void>::value, COMDAT
; File c:\qt\5.12.6\msvc2017_64\include\qtcore\qmetatype.h
; Line 1476
	lea	rax, OFFSET FLAT:?staticMetaObject@wpointmass@@2UQMetaObject@@B ; wpointmass::staticMetaObject
	ret	0
?value@?$MetaObjectForType@PEAVwpointmass@@X@QtPrivate@@SAPEBUQMetaObject@@XZ ENDP ; QtPrivate::MetaObjectForType<wpointmass *,void>::value
_TEXT	ENDS
; Function compile flags: /Odtp
;	COMDAT ?Construct@?$QMetaTypeFunctionHelper@PEAVwpointmass@@$00@QtMetaTypePrivate@@SAPEAXPEAXPEBX@Z
_TEXT	SEGMENT
$T1 = 32
$T2 = 40
where$ = 64
t$ = 72
?Construct@?$QMetaTypeFunctionHelper@PEAVwpointmass@@$00@QtMetaTypePrivate@@SAPEAXPEAXPEBX@Z PROC ; QtMetaTypePrivate::QMetaTypeFunctionHelper<wpointmass *,1>::Construct, COMDAT
; File c:\qt\5.12.6\msvc2017_64\include\qtcore\qmetatype.h
; Line 802
$LN4:
	mov	QWORD PTR [rsp+16], rdx
	mov	QWORD PTR [rsp+8], rcx
	sub	rsp, 56					; 00000038H
; Line 803
	cmp	QWORD PTR t$[rsp], 0
	je	SHORT $LN2@Construct
; Line 804
	mov	rdx, QWORD PTR where$[rsp]
	mov	ecx, 8
	call	??2@YAPEAX_KPEAX@Z			; operator new
	mov	QWORD PTR $T1[rsp], rax
	mov	rax, QWORD PTR $T1[rsp]
	mov	rcx, QWORD PTR t$[rsp]
	mov	rcx, QWORD PTR [rcx]
	mov	QWORD PTR [rax], rcx
	mov	rax, QWORD PTR $T1[rsp]
	jmp	SHORT $LN1@Construct
$LN2@Construct:
; Line 805
	mov	rdx, QWORD PTR where$[rsp]
	mov	ecx, 8
	call	??2@YAPEAX_KPEAX@Z			; operator new
	mov	QWORD PTR $T2[rsp], rax
	mov	rax, QWORD PTR $T2[rsp]
$LN1@Construct:
; Line 806
	add	rsp, 56					; 00000038H
	ret	0
?Construct@?$QMetaTypeFunctionHelper@PEAVwpointmass@@$00@QtMetaTypePrivate@@SAPEAXPEAXPEBX@Z ENDP ; QtMetaTypePrivate::QMetaTypeFunctionHelper<wpointmass *,1>::Construct
_TEXT	ENDS
; Function compile flags: /Odtp
;	COMDAT ?Destruct@?$QMetaTypeFunctionHelper@PEAVwpointmass@@$00@QtMetaTypePrivate@@SAXPEAX@Z
_TEXT	SEGMENT
t$ = 8
?Destruct@?$QMetaTypeFunctionHelper@PEAVwpointmass@@$00@QtMetaTypePrivate@@SAXPEAX@Z PROC ; QtMetaTypePrivate::QMetaTypeFunctionHelper<wpointmass *,1>::Destruct, COMDAT
; File c:\qt\5.12.6\msvc2017_64\include\qtcore\qmetatype.h
; Line 796
	mov	QWORD PTR [rsp+8], rcx
; Line 799
	ret	0
?Destruct@?$QMetaTypeFunctionHelper@PEAVwpointmass@@$00@QtMetaTypePrivate@@SAXPEAX@Z ENDP ; QtMetaTypePrivate::QMetaTypeFunctionHelper<wpointmass *,1>::Destruct
_TEXT	ENDS
; Function compile flags: /Odtp
;	COMDAT ?qt_metatype_id@?$QMetaTypeIdHelper@PEAVwpointmass@@$00@QtPrivate@@SAHXZ
_TEXT	SEGMENT
?qt_metatype_id@?$QMetaTypeIdHelper@PEAVwpointmass@@$00@QtPrivate@@SAHXZ PROC ; QtPrivate::QMetaTypeIdHelper<wpointmass *,1>::qt_metatype_id, COMDAT
; File c:\qt\5.12.6\msvc2017_64\include\qtcore\qmetatype.h
; Line 1675
$LN3:
	sub	rsp, 40					; 00000028H
	call	?qt_metatype_id@?$QMetaTypeId2@PEAVwpointmass@@@@SAHXZ ; QMetaTypeId2<wpointmass *>::qt_metatype_id
	add	rsp, 40					; 00000028H
	ret	0
?qt_metatype_id@?$QMetaTypeIdHelper@PEAVwpointmass@@$00@QtPrivate@@SAHXZ ENDP ; QtPrivate::QMetaTypeIdHelper<wpointmass *,1>::qt_metatype_id
_TEXT	ENDS
; Function compile flags: /Odtp
;	COMDAT ?registerConverter@?$MetaTypeSmartPointerHelper@PEAVwresult@@X@QtPrivate@@SA_NH@Z
_TEXT	SEGMENT
__formal$ = 8
?registerConverter@?$MetaTypeSmartPointerHelper@PEAVwresult@@X@QtPrivate@@SA_NH@Z PROC ; QtPrivate::MetaTypeSmartPointerHelper<wresult *,void>::registerConverter, COMDAT
; File c:\qt\5.12.6\msvc2017_64\include\qtcore\qmetatype.h
; Line 1635
	mov	DWORD PTR [rsp+8], ecx
	xor	al, al
	ret	0
?registerConverter@?$MetaTypeSmartPointerHelper@PEAVwresult@@X@QtPrivate@@SA_NH@Z ENDP ; QtPrivate::MetaTypeSmartPointerHelper<wresult *,void>::registerConverter
_TEXT	ENDS
; Function compile flags: /Odtp
;	COMDAT ?registerConverter@?$IsPair@PEAVwresult@@@QtPrivate@@SA_NH@Z
_TEXT	SEGMENT
__formal$ = 8
?registerConverter@?$IsPair@PEAVwresult@@@QtPrivate@@SA_NH@Z PROC ; QtPrivate::IsPair<wresult *>::registerConverter, COMDAT
; File c:\qt\5.12.6\msvc2017_64\include\qtcore\qmetatype.h
; Line 1620
	mov	DWORD PTR [rsp+8], ecx
; Line 1621
	xor	al, al
; Line 1622
	ret	0
?registerConverter@?$IsPair@PEAVwresult@@@QtPrivate@@SA_NH@Z ENDP ; QtPrivate::IsPair<wresult *>::registerConverter
_TEXT	ENDS
; Function compile flags: /Odtp
;	COMDAT ?registerConverter@?$AssociativeContainerConverterHelper@PEAVwresult@@$0A@@QtPrivate@@SA_NH@Z
_TEXT	SEGMENT
__formal$ = 8
?registerConverter@?$AssociativeContainerConverterHelper@PEAVwresult@@$0A@@QtPrivate@@SA_NH@Z PROC ; QtPrivate::AssociativeContainerConverterHelper<wresult *,0>::registerConverter, COMDAT
; File c:\qt\5.12.6\msvc2017_64\include\qtcore\qmetatype.h
; Line 1567
	mov	DWORD PTR [rsp+8], ecx
; Line 1568
	xor	al, al
; Line 1569
	ret	0
?registerConverter@?$AssociativeContainerConverterHelper@PEAVwresult@@$0A@@QtPrivate@@SA_NH@Z ENDP ; QtPrivate::AssociativeContainerConverterHelper<wresult *,0>::registerConverter
_TEXT	ENDS
; Function compile flags: /Odtp
;	COMDAT ?registerConverter@?$SequentialContainerConverterHelper@PEAVwresult@@$0A@@QtPrivate@@SA_NH@Z
_TEXT	SEGMENT
__formal$ = 8
?registerConverter@?$SequentialContainerConverterHelper@PEAVwresult@@$0A@@QtPrivate@@SA_NH@Z PROC ; QtPrivate::SequentialContainerConverterHelper<wresult *,0>::registerConverter, COMDAT
; File c:\qt\5.12.6\msvc2017_64\include\qtcore\qmetatype.h
; Line 1544
	mov	DWORD PTR [rsp+8], ecx
; Line 1545
	xor	al, al
; Line 1546
	ret	0
?registerConverter@?$SequentialContainerConverterHelper@PEAVwresult@@$0A@@QtPrivate@@SA_NH@Z ENDP ; QtPrivate::SequentialContainerConverterHelper<wresult *,0>::registerConverter
_TEXT	ENDS
; Function compile flags: /Odtp
;	COMDAT ?value@?$MetaObjectForType@PEAVwresult@@X@QtPrivate@@SAPEBUQMetaObject@@XZ
_TEXT	SEGMENT
?value@?$MetaObjectForType@PEAVwresult@@X@QtPrivate@@SAPEBUQMetaObject@@XZ PROC ; QtPrivate::MetaObjectForType<wresult *,void>::value, COMDAT
; File c:\qt\5.12.6\msvc2017_64\include\qtcore\qmetatype.h
; Line 1476
	lea	rax, OFFSET FLAT:?staticMetaObject@wresult@@2UQMetaObject@@B ; wresult::staticMetaObject
	ret	0
?value@?$MetaObjectForType@PEAVwresult@@X@QtPrivate@@SAPEBUQMetaObject@@XZ ENDP ; QtPrivate::MetaObjectForType<wresult *,void>::value
_TEXT	ENDS
; Function compile flags: /Odtp
;	COMDAT ?Construct@?$QMetaTypeFunctionHelper@PEAVwresult@@$00@QtMetaTypePrivate@@SAPEAXPEAXPEBX@Z
_TEXT	SEGMENT
$T1 = 32
$T2 = 40
where$ = 64
t$ = 72
?Construct@?$QMetaTypeFunctionHelper@PEAVwresult@@$00@QtMetaTypePrivate@@SAPEAXPEAXPEBX@Z PROC ; QtMetaTypePrivate::QMetaTypeFunctionHelper<wresult *,1>::Construct, COMDAT
; File c:\qt\5.12.6\msvc2017_64\include\qtcore\qmetatype.h
; Line 802
$LN4:
	mov	QWORD PTR [rsp+16], rdx
	mov	QWORD PTR [rsp+8], rcx
	sub	rsp, 56					; 00000038H
; Line 803
	cmp	QWORD PTR t$[rsp], 0
	je	SHORT $LN2@Construct
; Line 804
	mov	rdx, QWORD PTR where$[rsp]
	mov	ecx, 8
	call	??2@YAPEAX_KPEAX@Z			; operator new
	mov	QWORD PTR $T1[rsp], rax
	mov	rax, QWORD PTR $T1[rsp]
	mov	rcx, QWORD PTR t$[rsp]
	mov	rcx, QWORD PTR [rcx]
	mov	QWORD PTR [rax], rcx
	mov	rax, QWORD PTR $T1[rsp]
	jmp	SHORT $LN1@Construct
$LN2@Construct:
; Line 805
	mov	rdx, QWORD PTR where$[rsp]
	mov	ecx, 8
	call	??2@YAPEAX_KPEAX@Z			; operator new
	mov	QWORD PTR $T2[rsp], rax
	mov	rax, QWORD PTR $T2[rsp]
$LN1@Construct:
; Line 806
	add	rsp, 56					; 00000038H
	ret	0
?Construct@?$QMetaTypeFunctionHelper@PEAVwresult@@$00@QtMetaTypePrivate@@SAPEAXPEAXPEBX@Z ENDP ; QtMetaTypePrivate::QMetaTypeFunctionHelper<wresult *,1>::Construct
_TEXT	ENDS
; Function compile flags: /Odtp
;	COMDAT ?Destruct@?$QMetaTypeFunctionHelper@PEAVwresult@@$00@QtMetaTypePrivate@@SAXPEAX@Z
_TEXT	SEGMENT
t$ = 8
?Destruct@?$QMetaTypeFunctionHelper@PEAVwresult@@$00@QtMetaTypePrivate@@SAXPEAX@Z PROC ; QtMetaTypePrivate::QMetaTypeFunctionHelper<wresult *,1>::Destruct, COMDAT
; File c:\qt\5.12.6\msvc2017_64\include\qtcore\qmetatype.h
; Line 796
	mov	QWORD PTR [rsp+8], rcx
; Line 799
	ret	0
?Destruct@?$QMetaTypeFunctionHelper@PEAVwresult@@$00@QtMetaTypePrivate@@SAXPEAX@Z ENDP ; QtMetaTypePrivate::QMetaTypeFunctionHelper<wresult *,1>::Destruct
_TEXT	ENDS
; Function compile flags: /Odtp
;	COMDAT ?qt_metatype_id@?$QMetaTypeIdHelper@PEAVwresult@@$00@QtPrivate@@SAHXZ
_TEXT	SEGMENT
?qt_metatype_id@?$QMetaTypeIdHelper@PEAVwresult@@$00@QtPrivate@@SAHXZ PROC ; QtPrivate::QMetaTypeIdHelper<wresult *,1>::qt_metatype_id, COMDAT
; File c:\qt\5.12.6\msvc2017_64\include\qtcore\qmetatype.h
; Line 1675
$LN3:
	sub	rsp, 40					; 00000028H
	call	?qt_metatype_id@?$QMetaTypeId2@PEAVwresult@@@@SAHXZ ; QMetaTypeId2<wresult *>::qt_metatype_id
	add	rsp, 40					; 00000028H
	ret	0
?qt_metatype_id@?$QMetaTypeIdHelper@PEAVwresult@@$00@QtPrivate@@SAHXZ ENDP ; QtPrivate::QMetaTypeIdHelper<wresult *,1>::qt_metatype_id
_TEXT	ENDS
; Function compile flags: /Odtp
;	COMDAT ??$qRegisterNormalizedMetaType@PEAVwsimulation@@@@YAHAEBVQByteArray@@PEAPEAVwsimulation@@W4DefinedType@?$MetaTypeDefinedHelper@PEAVwsimulation@@$00@QtPrivate@@@Z
_TEXT	SEGMENT
id$ = 48
tv82 = 52
typedefOf$ = 56
flags$ = 60
$T1 = 64
tv143 = 72
$T2 = 80
$T3 = 88
normalizedTypeName$ = 112
dummy$ = 120
defined$ = 128
??$qRegisterNormalizedMetaType@PEAVwsimulation@@@@YAHAEBVQByteArray@@PEAPEAVwsimulation@@W4DefinedType@?$MetaTypeDefinedHelper@PEAVwsimulation@@$00@QtPrivate@@@Z PROC ; qRegisterNormalizedMetaType<wsimulation *>, COMDAT
; File c:\qt\5.12.6\msvc2017_64\include\qtcore\qmetatype.h
; Line 1734
$LN11:
	mov	DWORD PTR [rsp+24], r8d
	mov	QWORD PTR [rsp+16], rdx
	mov	QWORD PTR [rsp+8], rcx
	sub	rsp, 104				; 00000068H
; Line 1736
	mov	rcx, QWORD PTR normalizedTypeName$[rsp]
	call	QWORD PTR __imp_?constData@QByteArray@@QEBAPEBDXZ
	mov	rdx, rax
	lea	rcx, QWORD PTR $T2[rsp]
	call	QWORD PTR __imp_?normalizedType@QMetaObject@@SA?AVQByteArray@@PEBD@Z
	mov	QWORD PTR tv143[rsp], rax
	mov	rdx, QWORD PTR tv143[rsp]
	mov	rcx, QWORD PTR normalizedTypeName$[rsp]
	call	??8@YA_NAEBVQByteArray@@0@Z		; operator==
	movzx	eax, al
	test	eax, eax
	je	SHORT $LN6@qRegisterN
	jmp	SHORT $LN7@qRegisterN
$LN6@qRegisterN:
	mov	r9d, 1736				; 000006c8H
	lea	r8, OFFSET FLAT:$SG176226
	lea	rdx, OFFSET FLAT:$SG176227
	lea	rcx, OFFSET FLAT:$SG176228
	call	QWORD PTR __imp_?qt_assert_x@@YAXPEBD00H@Z
$LN7@qRegisterN:
	lea	rcx, QWORD PTR $T2[rsp]
	call	QWORD PTR __imp_??1QByteArray@@QEAA@XZ
; Line 1738
	cmp	QWORD PTR dummy$[rsp], 0
	je	SHORT $LN8@qRegisterN
	mov	DWORD PTR tv82[rsp], -1
	jmp	SHORT $LN9@qRegisterN
$LN8@qRegisterN:
	call	?qt_metatype_id@?$QMetaTypeIdHelper@PEAVwsimulation@@$00@QtPrivate@@SAHXZ ; QtPrivate::QMetaTypeIdHelper<wsimulation *,1>::qt_metatype_id
	mov	DWORD PTR tv82[rsp], eax
$LN9@qRegisterN:
	mov	eax, DWORD PTR tv82[rsp]
	mov	DWORD PTR typedefOf$[rsp], eax
; Line 1739
	cmp	DWORD PTR typedefOf$[rsp], -1
	je	SHORT $LN2@qRegisterN
; Line 1740
	mov	edx, DWORD PTR typedefOf$[rsp]
	mov	rcx, QWORD PTR normalizedTypeName$[rsp]
	call	QWORD PTR __imp_?registerNormalizedTypedef@QMetaType@@SAHAEBVQByteArray@@H@Z
	jmp	$LN1@qRegisterN
$LN2@qRegisterN:
; Line 1742
	lea	rax, QWORD PTR $T1[rsp]
	mov	QWORD PTR $T3[rsp], rax
	mov	edx, 12
	mov	rcx, QWORD PTR $T3[rsp]
	call	??0QFlag@@QEAA@H@Z			; QFlag::QFlag
	mov	edx, DWORD PTR [rax]
	lea	rcx, QWORD PTR flags$[rsp]
	call	??0?$QFlags@W4TypeFlag@QMetaType@@@@QEAA@VQFlag@@@Z ; QFlags<enum QMetaType::TypeFlag>::QFlags<enum QMetaType::TypeFlag>
; Line 1744
	cmp	DWORD PTR defined$[rsp], 0
	je	SHORT $LN3@qRegisterN
; Line 1745
	mov	edx, 256				; 00000100H
	lea	rcx, QWORD PTR flags$[rsp]
	call	??_5?$QFlags@W4TypeFlag@QMetaType@@@@QEAAAEAV0@W4TypeFlag@QMetaType@@@Z ; QFlags<enum QMetaType::TypeFlag>::operator|=
$LN3@qRegisterN:
; Line 1747
	call	?value@?$MetaObjectForType@PEAVwsimulation@@X@QtPrivate@@SAPEBUQMetaObject@@XZ ; QtPrivate::MetaObjectForType<wsimulation *,void>::value
	mov	QWORD PTR [rsp+40], rax
	mov	eax, DWORD PTR flags$[rsp]
	mov	DWORD PTR [rsp+32], eax
	mov	r9d, 8
	lea	r8, OFFSET FLAT:?Construct@?$QMetaTypeFunctionHelper@PEAVwsimulation@@$00@QtMetaTypePrivate@@SAPEAXPEAXPEBX@Z ; QtMetaTypePrivate::QMetaTypeFunctionHelper<wsimulation *,1>::Construct
	lea	rdx, OFFSET FLAT:?Destruct@?$QMetaTypeFunctionHelper@PEAVwsimulation@@$00@QtMetaTypePrivate@@SAXPEAX@Z ; QtMetaTypePrivate::QMetaTypeFunctionHelper<wsimulation *,1>::Destruct
	mov	rcx, QWORD PTR normalizedTypeName$[rsp]
	call	QWORD PTR __imp_?registerNormalizedType@QMetaType@@SAHAEBVQByteArray@@P6AXPEAX@ZP6APEAX1PEBX@ZHV?$QFlags@W4TypeFlag@QMetaType@@@@PEBUQMetaObject@@@Z
	mov	DWORD PTR id$[rsp], eax
; Line 1754
	cmp	DWORD PTR id$[rsp], 0
	jle	SHORT $LN4@qRegisterN
; Line 1755
	mov	ecx, DWORD PTR id$[rsp]
	call	?registerConverter@?$SequentialContainerConverterHelper@PEAVwsimulation@@$0A@@QtPrivate@@SA_NH@Z ; QtPrivate::SequentialContainerConverterHelper<wsimulation *,0>::registerConverter
; Line 1756
	mov	ecx, DWORD PTR id$[rsp]
	call	?registerConverter@?$AssociativeContainerConverterHelper@PEAVwsimulation@@$0A@@QtPrivate@@SA_NH@Z ; QtPrivate::AssociativeContainerConverterHelper<wsimulation *,0>::registerConverter
; Line 1757
	mov	ecx, DWORD PTR id$[rsp]
	call	?registerConverter@?$IsPair@PEAVwsimulation@@@QtPrivate@@SA_NH@Z ; QtPrivate::IsPair<wsimulation *>::registerConverter
; Line 1758
	mov	ecx, DWORD PTR id$[rsp]
	call	?registerConverter@?$MetaTypeSmartPointerHelper@PEAVwsimulation@@X@QtPrivate@@SA_NH@Z ; QtPrivate::MetaTypeSmartPointerHelper<wsimulation *,void>::registerConverter
$LN4@qRegisterN:
; Line 1761
	mov	eax, DWORD PTR id$[rsp]
$LN1@qRegisterN:
; Line 1762
	add	rsp, 104				; 00000068H
	ret	0
??$qRegisterNormalizedMetaType@PEAVwsimulation@@@@YAHAEBVQByteArray@@PEAPEAVwsimulation@@W4DefinedType@?$MetaTypeDefinedHelper@PEAVwsimulation@@$00@QtPrivate@@@Z ENDP ; qRegisterNormalizedMetaType<wsimulation *>
_TEXT	ENDS
; Function compile flags: /Odtp
;	COMDAT ??$qRegisterNormalizedMetaType@PEAVwpointmass@@@@YAHAEBVQByteArray@@PEAPEAVwpointmass@@W4DefinedType@?$MetaTypeDefinedHelper@PEAVwpointmass@@$00@QtPrivate@@@Z
_TEXT	SEGMENT
id$ = 48
tv82 = 52
typedefOf$ = 56
flags$ = 60
$T1 = 64
tv143 = 72
$T2 = 80
$T3 = 88
normalizedTypeName$ = 112
dummy$ = 120
defined$ = 128
??$qRegisterNormalizedMetaType@PEAVwpointmass@@@@YAHAEBVQByteArray@@PEAPEAVwpointmass@@W4DefinedType@?$MetaTypeDefinedHelper@PEAVwpointmass@@$00@QtPrivate@@@Z PROC ; qRegisterNormalizedMetaType<wpointmass *>, COMDAT
; File c:\qt\5.12.6\msvc2017_64\include\qtcore\qmetatype.h
; Line 1734
$LN11:
	mov	DWORD PTR [rsp+24], r8d
	mov	QWORD PTR [rsp+16], rdx
	mov	QWORD PTR [rsp+8], rcx
	sub	rsp, 104				; 00000068H
; Line 1736
	mov	rcx, QWORD PTR normalizedTypeName$[rsp]
	call	QWORD PTR __imp_?constData@QByteArray@@QEBAPEBDXZ
	mov	rdx, rax
	lea	rcx, QWORD PTR $T2[rsp]
	call	QWORD PTR __imp_?normalizedType@QMetaObject@@SA?AVQByteArray@@PEBD@Z
	mov	QWORD PTR tv143[rsp], rax
	mov	rdx, QWORD PTR tv143[rsp]
	mov	rcx, QWORD PTR normalizedTypeName$[rsp]
	call	??8@YA_NAEBVQByteArray@@0@Z		; operator==
	movzx	eax, al
	test	eax, eax
	je	SHORT $LN6@qRegisterN
	jmp	SHORT $LN7@qRegisterN
$LN6@qRegisterN:
	mov	r9d, 1736				; 000006c8H
	lea	r8, OFFSET FLAT:$SG175909
	lea	rdx, OFFSET FLAT:$SG175910
	lea	rcx, OFFSET FLAT:$SG175911
	call	QWORD PTR __imp_?qt_assert_x@@YAXPEBD00H@Z
$LN7@qRegisterN:
	lea	rcx, QWORD PTR $T2[rsp]
	call	QWORD PTR __imp_??1QByteArray@@QEAA@XZ
; Line 1738
	cmp	QWORD PTR dummy$[rsp], 0
	je	SHORT $LN8@qRegisterN
	mov	DWORD PTR tv82[rsp], -1
	jmp	SHORT $LN9@qRegisterN
$LN8@qRegisterN:
	call	?qt_metatype_id@?$QMetaTypeIdHelper@PEAVwpointmass@@$00@QtPrivate@@SAHXZ ; QtPrivate::QMetaTypeIdHelper<wpointmass *,1>::qt_metatype_id
	mov	DWORD PTR tv82[rsp], eax
$LN9@qRegisterN:
	mov	eax, DWORD PTR tv82[rsp]
	mov	DWORD PTR typedefOf$[rsp], eax
; Line 1739
	cmp	DWORD PTR typedefOf$[rsp], -1
	je	SHORT $LN2@qRegisterN
; Line 1740
	mov	edx, DWORD PTR typedefOf$[rsp]
	mov	rcx, QWORD PTR normalizedTypeName$[rsp]
	call	QWORD PTR __imp_?registerNormalizedTypedef@QMetaType@@SAHAEBVQByteArray@@H@Z
	jmp	$LN1@qRegisterN
$LN2@qRegisterN:
; Line 1742
	lea	rax, QWORD PTR $T1[rsp]
	mov	QWORD PTR $T3[rsp], rax
	mov	edx, 12
	mov	rcx, QWORD PTR $T3[rsp]
	call	??0QFlag@@QEAA@H@Z			; QFlag::QFlag
	mov	edx, DWORD PTR [rax]
	lea	rcx, QWORD PTR flags$[rsp]
	call	??0?$QFlags@W4TypeFlag@QMetaType@@@@QEAA@VQFlag@@@Z ; QFlags<enum QMetaType::TypeFlag>::QFlags<enum QMetaType::TypeFlag>
; Line 1744
	cmp	DWORD PTR defined$[rsp], 0
	je	SHORT $LN3@qRegisterN
; Line 1745
	mov	edx, 256				; 00000100H
	lea	rcx, QWORD PTR flags$[rsp]
	call	??_5?$QFlags@W4TypeFlag@QMetaType@@@@QEAAAEAV0@W4TypeFlag@QMetaType@@@Z ; QFlags<enum QMetaType::TypeFlag>::operator|=
$LN3@qRegisterN:
; Line 1747
	call	?value@?$MetaObjectForType@PEAVwpointmass@@X@QtPrivate@@SAPEBUQMetaObject@@XZ ; QtPrivate::MetaObjectForType<wpointmass *,void>::value
	mov	QWORD PTR [rsp+40], rax
	mov	eax, DWORD PTR flags$[rsp]
	mov	DWORD PTR [rsp+32], eax
	mov	r9d, 8
	lea	r8, OFFSET FLAT:?Construct@?$QMetaTypeFunctionHelper@PEAVwpointmass@@$00@QtMetaTypePrivate@@SAPEAXPEAXPEBX@Z ; QtMetaTypePrivate::QMetaTypeFunctionHelper<wpointmass *,1>::Construct
	lea	rdx, OFFSET FLAT:?Destruct@?$QMetaTypeFunctionHelper@PEAVwpointmass@@$00@QtMetaTypePrivate@@SAXPEAX@Z ; QtMetaTypePrivate::QMetaTypeFunctionHelper<wpointmass *,1>::Destruct
	mov	rcx, QWORD PTR normalizedTypeName$[rsp]
	call	QWORD PTR __imp_?registerNormalizedType@QMetaType@@SAHAEBVQByteArray@@P6AXPEAX@ZP6APEAX1PEBX@ZHV?$QFlags@W4TypeFlag@QMetaType@@@@PEBUQMetaObject@@@Z
	mov	DWORD PTR id$[rsp], eax
; Line 1754
	cmp	DWORD PTR id$[rsp], 0
	jle	SHORT $LN4@qRegisterN
; Line 1755
	mov	ecx, DWORD PTR id$[rsp]
	call	?registerConverter@?$SequentialContainerConverterHelper@PEAVwpointmass@@$0A@@QtPrivate@@SA_NH@Z ; QtPrivate::SequentialContainerConverterHelper<wpointmass *,0>::registerConverter
; Line 1756
	mov	ecx, DWORD PTR id$[rsp]
	call	?registerConverter@?$AssociativeContainerConverterHelper@PEAVwpointmass@@$0A@@QtPrivate@@SA_NH@Z ; QtPrivate::AssociativeContainerConverterHelper<wpointmass *,0>::registerConverter
; Line 1757
	mov	ecx, DWORD PTR id$[rsp]
	call	?registerConverter@?$IsPair@PEAVwpointmass@@@QtPrivate@@SA_NH@Z ; QtPrivate::IsPair<wpointmass *>::registerConverter
; Line 1758
	mov	ecx, DWORD PTR id$[rsp]
	call	?registerConverter@?$MetaTypeSmartPointerHelper@PEAVwpointmass@@X@QtPrivate@@SA_NH@Z ; QtPrivate::MetaTypeSmartPointerHelper<wpointmass *,void>::registerConverter
$LN4@qRegisterN:
; Line 1761
	mov	eax, DWORD PTR id$[rsp]
$LN1@qRegisterN:
; Line 1762
	add	rsp, 104				; 00000068H
	ret	0
??$qRegisterNormalizedMetaType@PEAVwpointmass@@@@YAHAEBVQByteArray@@PEAPEAVwpointmass@@W4DefinedType@?$MetaTypeDefinedHelper@PEAVwpointmass@@$00@QtPrivate@@@Z ENDP ; qRegisterNormalizedMetaType<wpointmass *>
_TEXT	ENDS
; Function compile flags: /Odtp
;	COMDAT ??$qRegisterNormalizedMetaType@PEAVwresult@@@@YAHAEBVQByteArray@@PEAPEAVwresult@@W4DefinedType@?$MetaTypeDefinedHelper@PEAVwresult@@$00@QtPrivate@@@Z
_TEXT	SEGMENT
id$ = 48
tv82 = 52
typedefOf$ = 56
flags$ = 60
$T1 = 64
tv143 = 72
$T2 = 80
$T3 = 88
normalizedTypeName$ = 112
dummy$ = 120
defined$ = 128
??$qRegisterNormalizedMetaType@PEAVwresult@@@@YAHAEBVQByteArray@@PEAPEAVwresult@@W4DefinedType@?$MetaTypeDefinedHelper@PEAVwresult@@$00@QtPrivate@@@Z PROC ; qRegisterNormalizedMetaType<wresult *>, COMDAT
; File c:\qt\5.12.6\msvc2017_64\include\qtcore\qmetatype.h
; Line 1734
$LN11:
	mov	DWORD PTR [rsp+24], r8d
	mov	QWORD PTR [rsp+16], rdx
	mov	QWORD PTR [rsp+8], rcx
	sub	rsp, 104				; 00000068H
; Line 1736
	mov	rcx, QWORD PTR normalizedTypeName$[rsp]
	call	QWORD PTR __imp_?constData@QByteArray@@QEBAPEBDXZ
	mov	rdx, rax
	lea	rcx, QWORD PTR $T2[rsp]
	call	QWORD PTR __imp_?normalizedType@QMetaObject@@SA?AVQByteArray@@PEBD@Z
	mov	QWORD PTR tv143[rsp], rax
	mov	rdx, QWORD PTR tv143[rsp]
	mov	rcx, QWORD PTR normalizedTypeName$[rsp]
	call	??8@YA_NAEBVQByteArray@@0@Z		; operator==
	movzx	eax, al
	test	eax, eax
	je	SHORT $LN6@qRegisterN
	jmp	SHORT $LN7@qRegisterN
$LN6@qRegisterN:
	mov	r9d, 1736				; 000006c8H
	lea	r8, OFFSET FLAT:$SG175592
	lea	rdx, OFFSET FLAT:$SG175593
	lea	rcx, OFFSET FLAT:$SG175594
	call	QWORD PTR __imp_?qt_assert_x@@YAXPEBD00H@Z
$LN7@qRegisterN:
	lea	rcx, QWORD PTR $T2[rsp]
	call	QWORD PTR __imp_??1QByteArray@@QEAA@XZ
; Line 1738
	cmp	QWORD PTR dummy$[rsp], 0
	je	SHORT $LN8@qRegisterN
	mov	DWORD PTR tv82[rsp], -1
	jmp	SHORT $LN9@qRegisterN
$LN8@qRegisterN:
	call	?qt_metatype_id@?$QMetaTypeIdHelper@PEAVwresult@@$00@QtPrivate@@SAHXZ ; QtPrivate::QMetaTypeIdHelper<wresult *,1>::qt_metatype_id
	mov	DWORD PTR tv82[rsp], eax
$LN9@qRegisterN:
	mov	eax, DWORD PTR tv82[rsp]
	mov	DWORD PTR typedefOf$[rsp], eax
; Line 1739
	cmp	DWORD PTR typedefOf$[rsp], -1
	je	SHORT $LN2@qRegisterN
; Line 1740
	mov	edx, DWORD PTR typedefOf$[rsp]
	mov	rcx, QWORD PTR normalizedTypeName$[rsp]
	call	QWORD PTR __imp_?registerNormalizedTypedef@QMetaType@@SAHAEBVQByteArray@@H@Z
	jmp	$LN1@qRegisterN
$LN2@qRegisterN:
; Line 1742
	lea	rax, QWORD PTR $T1[rsp]
	mov	QWORD PTR $T3[rsp], rax
	mov	edx, 12
	mov	rcx, QWORD PTR $T3[rsp]
	call	??0QFlag@@QEAA@H@Z			; QFlag::QFlag
	mov	edx, DWORD PTR [rax]
	lea	rcx, QWORD PTR flags$[rsp]
	call	??0?$QFlags@W4TypeFlag@QMetaType@@@@QEAA@VQFlag@@@Z ; QFlags<enum QMetaType::TypeFlag>::QFlags<enum QMetaType::TypeFlag>
; Line 1744
	cmp	DWORD PTR defined$[rsp], 0
	je	SHORT $LN3@qRegisterN
; Line 1745
	mov	edx, 256				; 00000100H
	lea	rcx, QWORD PTR flags$[rsp]
	call	??_5?$QFlags@W4TypeFlag@QMetaType@@@@QEAAAEAV0@W4TypeFlag@QMetaType@@@Z ; QFlags<enum QMetaType::TypeFlag>::operator|=
$LN3@qRegisterN:
; Line 1747
	call	?value@?$MetaObjectForType@PEAVwresult@@X@QtPrivate@@SAPEBUQMetaObject@@XZ ; QtPrivate::MetaObjectForType<wresult *,void>::value
	mov	QWORD PTR [rsp+40], rax
	mov	eax, DWORD PTR flags$[rsp]
	mov	DWORD PTR [rsp+32], eax
	mov	r9d, 8
	lea	r8, OFFSET FLAT:?Construct@?$QMetaTypeFunctionHelper@PEAVwresult@@$00@QtMetaTypePrivate@@SAPEAXPEAXPEBX@Z ; QtMetaTypePrivate::QMetaTypeFunctionHelper<wresult *,1>::Construct
	lea	rdx, OFFSET FLAT:?Destruct@?$QMetaTypeFunctionHelper@PEAVwresult@@$00@QtMetaTypePrivate@@SAXPEAX@Z ; QtMetaTypePrivate::QMetaTypeFunctionHelper<wresult *,1>::Destruct
	mov	rcx, QWORD PTR normalizedTypeName$[rsp]
	call	QWORD PTR __imp_?registerNormalizedType@QMetaType@@SAHAEBVQByteArray@@P6AXPEAX@ZP6APEAX1PEBX@ZHV?$QFlags@W4TypeFlag@QMetaType@@@@PEBUQMetaObject@@@Z
	mov	DWORD PTR id$[rsp], eax
; Line 1754
	cmp	DWORD PTR id$[rsp], 0
	jle	SHORT $LN4@qRegisterN
; Line 1755
	mov	ecx, DWORD PTR id$[rsp]
	call	?registerConverter@?$SequentialContainerConverterHelper@PEAVwresult@@$0A@@QtPrivate@@SA_NH@Z ; QtPrivate::SequentialContainerConverterHelper<wresult *,0>::registerConverter
; Line 1756
	mov	ecx, DWORD PTR id$[rsp]
	call	?registerConverter@?$AssociativeContainerConverterHelper@PEAVwresult@@$0A@@QtPrivate@@SA_NH@Z ; QtPrivate::AssociativeContainerConverterHelper<wresult *,0>::registerConverter
; Line 1757
	mov	ecx, DWORD PTR id$[rsp]
	call	?registerConverter@?$IsPair@PEAVwresult@@@QtPrivate@@SA_NH@Z ; QtPrivate::IsPair<wresult *>::registerConverter
; Line 1758
	mov	ecx, DWORD PTR id$[rsp]
	call	?registerConverter@?$MetaTypeSmartPointerHelper@PEAVwresult@@X@QtPrivate@@SA_NH@Z ; QtPrivate::MetaTypeSmartPointerHelper<wresult *,void>::registerConverter
$LN4@qRegisterN:
; Line 1761
	mov	eax, DWORD PTR id$[rsp]
$LN1@qRegisterN:
; Line 1762
	add	rsp, 104				; 00000068H
	ret	0
??$qRegisterNormalizedMetaType@PEAVwresult@@@@YAHAEBVQByteArray@@PEAPEAVwresult@@W4DefinedType@?$MetaTypeDefinedHelper@PEAVwresult@@$00@QtPrivate@@@Z ENDP ; qRegisterNormalizedMetaType<wresult *>
_TEXT	ENDS
; Function compile flags: /Odtp
;	COMDAT ?qt_metatype_id@?$QMetaTypeId2@PEAVwresult@@@@SAHXZ
_TEXT	SEGMENT
?qt_metatype_id@?$QMetaTypeId2@PEAVwresult@@@@SAHXZ PROC ; QMetaTypeId2<wresult *>::qt_metatype_id, COMDAT
; File c:\qt\5.12.6\msvc2017_64\include\qtcore\qmetatype.h
; Line 1662
$LN3:
	sub	rsp, 40					; 00000028H
	call	?qt_metatype_id@?$QMetaTypeIdQObject@PEAVwresult@@$07@@SAHXZ ; QMetaTypeIdQObject<wresult *,8>::qt_metatype_id
	add	rsp, 40					; 00000028H
	ret	0
?qt_metatype_id@?$QMetaTypeId2@PEAVwresult@@@@SAHXZ ENDP ; QMetaTypeId2<wresult *>::qt_metatype_id
_TEXT	ENDS
; Function compile flags: /Odtp
;	COMDAT ?qt_metatype_id@?$QMetaTypeIdQObject@PEAVwresult@@$07@@SAHXZ
_TEXT	SEGMENT
id$1 = 32
newId$ = 36
$T2 = 40
typeName$ = 48
cName$ = 56
$T3 = 64
?qt_metatype_id@?$QMetaTypeIdQObject@PEAVwresult@@$07@@SAHXZ PROC ; QMetaTypeIdQObject<wresult *,8>::qt_metatype_id, COMDAT
; File c:\qt\5.12.6\msvc2017_64\include\qtcore\qmetatype.h
; Line 1828
$LN6:
	sub	rsp, 88					; 00000058H
	mov	QWORD PTR $T3[rsp], -2
; Line 1829
	mov	eax, OFFSET FLAT:_Init_thread_epoch
	mov	eax, eax
	mov	ecx, DWORD PTR _tls_index
	mov	rdx, QWORD PTR gs:88
	mov	rcx, QWORD PTR [rdx+rcx*8]
	mov	eax, DWORD PTR [rax+rcx]
	cmp	DWORD PTR ?$TSS0@?1??qt_metatype_id@?$QMetaTypeIdQObject@PEAVwresult@@$07@@SAHXZ@4HA, eax ; TSS0<`template-parameter-2',QMetaTypeIdQObject<wresult *,8>::t_metatype_id,int * const volatile,void,int, ?? &>
	jle	SHORT $LN2@qt_metatyp
	lea	rcx, OFFSET FLAT:?$TSS0@?1??qt_metatype_id@?$QMetaTypeIdQObject@PEAVwresult@@$07@@SAHXZ@4HA ; TSS0<`template-parameter-2',QMetaTypeIdQObject<wresult *,8>::t_metatype_id,int * const volatile,void,int, ?? &>
	call	_Init_thread_header
	cmp	DWORD PTR ?$TSS0@?1??qt_metatype_id@?$QMetaTypeIdQObject@PEAVwresult@@$07@@SAHXZ@4HA, -1 ; TSS0<`template-parameter-2',QMetaTypeIdQObject<wresult *,8>::t_metatype_id,int * const volatile,void,int, ?? &>
	jne	SHORT $LN2@qt_metatyp
	xor	edx, edx
	lea	rcx, OFFSET FLAT:?metatype_id@?1??qt_metatype_id@?$QMetaTypeIdQObject@PEAVwresult@@$07@@SAHXZ@4V?$QBasicAtomicInteger@H@@A ; `QMetaTypeIdQObject<wresult *,8>::qt_metatype_id'::`2'::metatype_id
	call	??0?$QBasicAtomicInteger@H@@QEAA@H@Z	; QBasicAtomicInteger<int>::QBasicAtomicInteger<int>
	lea	rcx, OFFSET FLAT:?$TSS0@?1??qt_metatype_id@?$QMetaTypeIdQObject@PEAVwresult@@$07@@SAHXZ@4HA ; TSS0<`template-parameter-2',QMetaTypeIdQObject<wresult *,8>::t_metatype_id,int * const volatile,void,int, ?? &>
	call	_Init_thread_footer
$LN2@qt_metatyp:
; Line 1830
	lea	rcx, OFFSET FLAT:?metatype_id@?1??qt_metatype_id@?$QMetaTypeIdQObject@PEAVwresult@@$07@@SAHXZ@4V?$QBasicAtomicInteger@H@@A ; `QMetaTypeIdQObject<wresult *,8>::qt_metatype_id'::`2'::metatype_id
	call	?loadAcquire@?$QBasicAtomicInteger@H@@QEBAHXZ ; QBasicAtomicInteger<int>::loadAcquire
	mov	DWORD PTR id$1[rsp], eax
	cmp	DWORD PTR id$1[rsp], 0
	je	SHORT $LN3@qt_metatyp
; Line 1831
	mov	eax, DWORD PTR id$1[rsp]
	jmp	$LN1@qt_metatyp
$LN3@qt_metatyp:
; Line 1832
	lea	rcx, OFFSET FLAT:?staticMetaObject@wresult@@2UQMetaObject@@B ; wresult::staticMetaObject
	call	QWORD PTR __imp_?className@QMetaObject@@QEBAPEBDXZ
	mov	QWORD PTR cName$[rsp], rax
; Line 1833
	lea	rcx, QWORD PTR typeName$[rsp]
	call	QWORD PTR __imp_??0QByteArray@@QEAA@XZ
	npad	1
; Line 1834
	mov	rcx, QWORD PTR cName$[rsp]
	call	strlen
	inc	eax
	mov	edx, eax
	lea	rcx, QWORD PTR typeName$[rsp]
	call	QWORD PTR __imp_?reserve@QByteArray@@QEAAXH@Z
; Line 1835
	mov	rdx, QWORD PTR cName$[rsp]
	lea	rcx, QWORD PTR typeName$[rsp]
	call	QWORD PTR __imp_?append@QByteArray@@QEAAAEAV1@PEBD@Z
	mov	dl, 42					; 0000002aH
	mov	rcx, rax
	call	QWORD PTR __imp_?append@QByteArray@@QEAAAEAV1@D@Z
; Line 1836
	mov	r8d, 1
	mov	rdx, -1
	lea	rcx, QWORD PTR typeName$[rsp]
	call	??$qRegisterNormalizedMetaType@PEAVwresult@@@@YAHAEBVQByteArray@@PEAPEAVwresult@@W4DefinedType@?$MetaTypeDefinedHelper@PEAVwresult@@$00@QtPrivate@@@Z ; qRegisterNormalizedMetaType<wresult *>
	mov	DWORD PTR newId$[rsp], eax
; Line 1839
	mov	edx, DWORD PTR newId$[rsp]
	lea	rcx, OFFSET FLAT:?metatype_id@?1??qt_metatype_id@?$QMetaTypeIdQObject@PEAVwresult@@$07@@SAHXZ@4V?$QBasicAtomicInteger@H@@A ; `QMetaTypeIdQObject<wresult *,8>::qt_metatype_id'::`2'::metatype_id
	call	?storeRelease@?$QBasicAtomicInteger@H@@QEAAXH@Z ; QBasicAtomicInteger<int>::storeRelease
; Line 1840
	mov	eax, DWORD PTR newId$[rsp]
	mov	DWORD PTR $T2[rsp], eax
	lea	rcx, QWORD PTR typeName$[rsp]
	call	QWORD PTR __imp_??1QByteArray@@QEAA@XZ
	mov	eax, DWORD PTR $T2[rsp]
$LN1@qt_metatyp:
; Line 1841
	add	rsp, 88					; 00000058H
	ret	0
?qt_metatype_id@?$QMetaTypeIdQObject@PEAVwresult@@$07@@SAHXZ ENDP ; QMetaTypeIdQObject<wresult *,8>::qt_metatype_id
_TEXT	ENDS
;	COMDAT text$x
text$x	SEGMENT
id$1 = 32
newId$ = 36
$T2 = 40
typeName$ = 48
cName$ = 56
$T3 = 64
?dtor$0@?0??qt_metatype_id@?$QMetaTypeIdQObject@PEAVwresult@@$07@@SAHXZ@4HA PROC ; `QMetaTypeIdQObject<wresult *,8>::qt_metatype_id'::`1'::dtor$0
	push	rbp
	sub	rsp, 32					; 00000020H
	mov	rbp, rdx
	lea	rcx, QWORD PTR typeName$[rbp]
	call	QWORD PTR __imp_??1QByteArray@@QEAA@XZ
	add	rsp, 32					; 00000020H
	pop	rbp
	ret	0
?dtor$0@?0??qt_metatype_id@?$QMetaTypeIdQObject@PEAVwresult@@$07@@SAHXZ@4HA ENDP ; `QMetaTypeIdQObject<wresult *,8>::qt_metatype_id'::`1'::dtor$0
text$x	ENDS
; Function compile flags: /Odtp
;	COMDAT text$x
text$x	SEGMENT
id$1 = 32
newId$ = 36
$T2 = 40
typeName$ = 48
cName$ = 56
$T3 = 64
?dtor$0@?0??qt_metatype_id@?$QMetaTypeIdQObject@PEAVwresult@@$07@@SAHXZ@4HA PROC ; `QMetaTypeIdQObject<wresult *,8>::qt_metatype_id'::`1'::dtor$0
	push	rbp
	sub	rsp, 32					; 00000020H
	mov	rbp, rdx
	lea	rcx, QWORD PTR typeName$[rbp]
	call	QWORD PTR __imp_??1QByteArray@@QEAA@XZ
	add	rsp, 32					; 00000020H
	pop	rbp
	ret	0
?dtor$0@?0??qt_metatype_id@?$QMetaTypeIdQObject@PEAVwresult@@$07@@SAHXZ@4HA ENDP ; `QMetaTypeIdQObject<wresult *,8>::qt_metatype_id'::`1'::dtor$0
text$x	ENDS
; Function compile flags: /Odtp
;	COMDAT ?qt_metatype_id@?$QMetaTypeId2@PEAVwpointmass@@@@SAHXZ
_TEXT	SEGMENT
?qt_metatype_id@?$QMetaTypeId2@PEAVwpointmass@@@@SAHXZ PROC ; QMetaTypeId2<wpointmass *>::qt_metatype_id, COMDAT
; File c:\qt\5.12.6\msvc2017_64\include\qtcore\qmetatype.h
; Line 1662
$LN3:
	sub	rsp, 40					; 00000028H
	call	?qt_metatype_id@?$QMetaTypeIdQObject@PEAVwpointmass@@$07@@SAHXZ ; QMetaTypeIdQObject<wpointmass *,8>::qt_metatype_id
	add	rsp, 40					; 00000028H
	ret	0
?qt_metatype_id@?$QMetaTypeId2@PEAVwpointmass@@@@SAHXZ ENDP ; QMetaTypeId2<wpointmass *>::qt_metatype_id
_TEXT	ENDS
; Function compile flags: /Odtp
;	COMDAT ?qt_metatype_id@?$QMetaTypeIdQObject@PEAVwpointmass@@$07@@SAHXZ
_TEXT	SEGMENT
id$1 = 32
newId$ = 36
$T2 = 40
typeName$ = 48
cName$ = 56
$T3 = 64
?qt_metatype_id@?$QMetaTypeIdQObject@PEAVwpointmass@@$07@@SAHXZ PROC ; QMetaTypeIdQObject<wpointmass *,8>::qt_metatype_id, COMDAT
; File c:\qt\5.12.6\msvc2017_64\include\qtcore\qmetatype.h
; Line 1828
$LN6:
	sub	rsp, 88					; 00000058H
	mov	QWORD PTR $T3[rsp], -2
; Line 1829
	mov	eax, OFFSET FLAT:_Init_thread_epoch
	mov	eax, eax
	mov	ecx, DWORD PTR _tls_index
	mov	rdx, QWORD PTR gs:88
	mov	rcx, QWORD PTR [rdx+rcx*8]
	mov	eax, DWORD PTR [rax+rcx]
	cmp	DWORD PTR ?$TSS0@?1??qt_metatype_id@?$QMetaTypeIdQObject@PEAVwpointmass@@$07@@SAHXZ@4HA, eax ; TSS0<`template-parameter-2',QMetaTypeIdQObject<wpointmass *,8>::t_metatype_id,int * const volatile,void,int, ?? &>
	jle	SHORT $LN2@qt_metatyp
	lea	rcx, OFFSET FLAT:?$TSS0@?1??qt_metatype_id@?$QMetaTypeIdQObject@PEAVwpointmass@@$07@@SAHXZ@4HA ; TSS0<`template-parameter-2',QMetaTypeIdQObject<wpointmass *,8>::t_metatype_id,int * const volatile,void,int, ?? &>
	call	_Init_thread_header
	cmp	DWORD PTR ?$TSS0@?1??qt_metatype_id@?$QMetaTypeIdQObject@PEAVwpointmass@@$07@@SAHXZ@4HA, -1 ; TSS0<`template-parameter-2',QMetaTypeIdQObject<wpointmass *,8>::t_metatype_id,int * const volatile,void,int, ?? &>
	jne	SHORT $LN2@qt_metatyp
	xor	edx, edx
	lea	rcx, OFFSET FLAT:?metatype_id@?1??qt_metatype_id@?$QMetaTypeIdQObject@PEAVwpointmass@@$07@@SAHXZ@4V?$QBasicAtomicInteger@H@@A ; `QMetaTypeIdQObject<wpointmass *,8>::qt_metatype_id'::`2'::metatype_id
	call	??0?$QBasicAtomicInteger@H@@QEAA@H@Z	; QBasicAtomicInteger<int>::QBasicAtomicInteger<int>
	lea	rcx, OFFSET FLAT:?$TSS0@?1??qt_metatype_id@?$QMetaTypeIdQObject@PEAVwpointmass@@$07@@SAHXZ@4HA ; TSS0<`template-parameter-2',QMetaTypeIdQObject<wpointmass *,8>::t_metatype_id,int * const volatile,void,int, ?? &>
	call	_Init_thread_footer
$LN2@qt_metatyp:
; Line 1830
	lea	rcx, OFFSET FLAT:?metatype_id@?1??qt_metatype_id@?$QMetaTypeIdQObject@PEAVwpointmass@@$07@@SAHXZ@4V?$QBasicAtomicInteger@H@@A ; `QMetaTypeIdQObject<wpointmass *,8>::qt_metatype_id'::`2'::metatype_id
	call	?loadAcquire@?$QBasicAtomicInteger@H@@QEBAHXZ ; QBasicAtomicInteger<int>::loadAcquire
	mov	DWORD PTR id$1[rsp], eax
	cmp	DWORD PTR id$1[rsp], 0
	je	SHORT $LN3@qt_metatyp
; Line 1831
	mov	eax, DWORD PTR id$1[rsp]
	jmp	$LN1@qt_metatyp
$LN3@qt_metatyp:
; Line 1832
	lea	rcx, OFFSET FLAT:?staticMetaObject@wpointmass@@2UQMetaObject@@B ; wpointmass::staticMetaObject
	call	QWORD PTR __imp_?className@QMetaObject@@QEBAPEBDXZ
	mov	QWORD PTR cName$[rsp], rax
; Line 1833
	lea	rcx, QWORD PTR typeName$[rsp]
	call	QWORD PTR __imp_??0QByteArray@@QEAA@XZ
	npad	1
; Line 1834
	mov	rcx, QWORD PTR cName$[rsp]
	call	strlen
	inc	eax
	mov	edx, eax
	lea	rcx, QWORD PTR typeName$[rsp]
	call	QWORD PTR __imp_?reserve@QByteArray@@QEAAXH@Z
; Line 1835
	mov	rdx, QWORD PTR cName$[rsp]
	lea	rcx, QWORD PTR typeName$[rsp]
	call	QWORD PTR __imp_?append@QByteArray@@QEAAAEAV1@PEBD@Z
	mov	dl, 42					; 0000002aH
	mov	rcx, rax
	call	QWORD PTR __imp_?append@QByteArray@@QEAAAEAV1@D@Z
; Line 1836
	mov	r8d, 1
	mov	rdx, -1
	lea	rcx, QWORD PTR typeName$[rsp]
	call	??$qRegisterNormalizedMetaType@PEAVwpointmass@@@@YAHAEBVQByteArray@@PEAPEAVwpointmass@@W4DefinedType@?$MetaTypeDefinedHelper@PEAVwpointmass@@$00@QtPrivate@@@Z ; qRegisterNormalizedMetaType<wpointmass *>
	mov	DWORD PTR newId$[rsp], eax
; Line 1839
	mov	edx, DWORD PTR newId$[rsp]
	lea	rcx, OFFSET FLAT:?metatype_id@?1??qt_metatype_id@?$QMetaTypeIdQObject@PEAVwpointmass@@$07@@SAHXZ@4V?$QBasicAtomicInteger@H@@A ; `QMetaTypeIdQObject<wpointmass *,8>::qt_metatype_id'::`2'::metatype_id
	call	?storeRelease@?$QBasicAtomicInteger@H@@QEAAXH@Z ; QBasicAtomicInteger<int>::storeRelease
; Line 1840
	mov	eax, DWORD PTR newId$[rsp]
	mov	DWORD PTR $T2[rsp], eax
	lea	rcx, QWORD PTR typeName$[rsp]
	call	QWORD PTR __imp_??1QByteArray@@QEAA@XZ
	mov	eax, DWORD PTR $T2[rsp]
$LN1@qt_metatyp:
; Line 1841
	add	rsp, 88					; 00000058H
	ret	0
?qt_metatype_id@?$QMetaTypeIdQObject@PEAVwpointmass@@$07@@SAHXZ ENDP ; QMetaTypeIdQObject<wpointmass *,8>::qt_metatype_id
_TEXT	ENDS
;	COMDAT text$x
text$x	SEGMENT
id$1 = 32
newId$ = 36
$T2 = 40
typeName$ = 48
cName$ = 56
$T3 = 64
?dtor$0@?0??qt_metatype_id@?$QMetaTypeIdQObject@PEAVwpointmass@@$07@@SAHXZ@4HA PROC ; `QMetaTypeIdQObject<wpointmass *,8>::qt_metatype_id'::`1'::dtor$0
	push	rbp
	sub	rsp, 32					; 00000020H
	mov	rbp, rdx
	lea	rcx, QWORD PTR typeName$[rbp]
	call	QWORD PTR __imp_??1QByteArray@@QEAA@XZ
	add	rsp, 32					; 00000020H
	pop	rbp
	ret	0
?dtor$0@?0??qt_metatype_id@?$QMetaTypeIdQObject@PEAVwpointmass@@$07@@SAHXZ@4HA ENDP ; `QMetaTypeIdQObject<wpointmass *,8>::qt_metatype_id'::`1'::dtor$0
text$x	ENDS
; Function compile flags: /Odtp
;	COMDAT text$x
text$x	SEGMENT
id$1 = 32
newId$ = 36
$T2 = 40
typeName$ = 48
cName$ = 56
$T3 = 64
?dtor$0@?0??qt_metatype_id@?$QMetaTypeIdQObject@PEAVwpointmass@@$07@@SAHXZ@4HA PROC ; `QMetaTypeIdQObject<wpointmass *,8>::qt_metatype_id'::`1'::dtor$0
	push	rbp
	sub	rsp, 32					; 00000020H
	mov	rbp, rdx
	lea	rcx, QWORD PTR typeName$[rbp]
	call	QWORD PTR __imp_??1QByteArray@@QEAA@XZ
	add	rsp, 32					; 00000020H
	pop	rbp
	ret	0
?dtor$0@?0??qt_metatype_id@?$QMetaTypeIdQObject@PEAVwpointmass@@$07@@SAHXZ@4HA ENDP ; `QMetaTypeIdQObject<wpointmass *,8>::qt_metatype_id'::`1'::dtor$0
text$x	ENDS
; Function compile flags: /Odtp
;	COMDAT ?qt_metatype_id@?$QMetaTypeId2@PEAVwsimulation@@@@SAHXZ
_TEXT	SEGMENT
?qt_metatype_id@?$QMetaTypeId2@PEAVwsimulation@@@@SAHXZ PROC ; QMetaTypeId2<wsimulation *>::qt_metatype_id, COMDAT
; File c:\qt\5.12.6\msvc2017_64\include\qtcore\qmetatype.h
; Line 1662
$LN3:
	sub	rsp, 40					; 00000028H
	call	?qt_metatype_id@?$QMetaTypeIdQObject@PEAVwsimulation@@$07@@SAHXZ ; QMetaTypeIdQObject<wsimulation *,8>::qt_metatype_id
	add	rsp, 40					; 00000028H
	ret	0
?qt_metatype_id@?$QMetaTypeId2@PEAVwsimulation@@@@SAHXZ ENDP ; QMetaTypeId2<wsimulation *>::qt_metatype_id
_TEXT	ENDS
; Function compile flags: /Odtp
;	COMDAT ?qt_metatype_id@?$QMetaTypeIdQObject@PEAVwsimulation@@$07@@SAHXZ
_TEXT	SEGMENT
id$1 = 32
newId$ = 36
$T2 = 40
typeName$ = 48
cName$ = 56
$T3 = 64
?qt_metatype_id@?$QMetaTypeIdQObject@PEAVwsimulation@@$07@@SAHXZ PROC ; QMetaTypeIdQObject<wsimulation *,8>::qt_metatype_id, COMDAT
; File c:\qt\5.12.6\msvc2017_64\include\qtcore\qmetatype.h
; Line 1828
$LN6:
	sub	rsp, 88					; 00000058H
	mov	QWORD PTR $T3[rsp], -2
; Line 1829
	mov	eax, OFFSET FLAT:_Init_thread_epoch
	mov	eax, eax
	mov	ecx, DWORD PTR _tls_index
	mov	rdx, QWORD PTR gs:88
	mov	rcx, QWORD PTR [rdx+rcx*8]
	mov	eax, DWORD PTR [rax+rcx]
	cmp	DWORD PTR ?$TSS0@?1??qt_metatype_id@?$QMetaTypeIdQObject@PEAVwsimulation@@$07@@SAHXZ@4HA, eax ; TSS0<`template-parameter-2',QMetaTypeIdQObject<wsimulation *,8>::t_metatype_id,int * const volatile,void,int, ?? &>
	jle	SHORT $LN2@qt_metatyp
	lea	rcx, OFFSET FLAT:?$TSS0@?1??qt_metatype_id@?$QMetaTypeIdQObject@PEAVwsimulation@@$07@@SAHXZ@4HA ; TSS0<`template-parameter-2',QMetaTypeIdQObject<wsimulation *,8>::t_metatype_id,int * const volatile,void,int, ?? &>
	call	_Init_thread_header
	cmp	DWORD PTR ?$TSS0@?1??qt_metatype_id@?$QMetaTypeIdQObject@PEAVwsimulation@@$07@@SAHXZ@4HA, -1 ; TSS0<`template-parameter-2',QMetaTypeIdQObject<wsimulation *,8>::t_metatype_id,int * const volatile,void,int, ?? &>
	jne	SHORT $LN2@qt_metatyp
	xor	edx, edx
	lea	rcx, OFFSET FLAT:?metatype_id@?1??qt_metatype_id@?$QMetaTypeIdQObject@PEAVwsimulation@@$07@@SAHXZ@4V?$QBasicAtomicInteger@H@@A ; `QMetaTypeIdQObject<wsimulation *,8>::qt_metatype_id'::`2'::metatype_id
	call	??0?$QBasicAtomicInteger@H@@QEAA@H@Z	; QBasicAtomicInteger<int>::QBasicAtomicInteger<int>
	lea	rcx, OFFSET FLAT:?$TSS0@?1??qt_metatype_id@?$QMetaTypeIdQObject@PEAVwsimulation@@$07@@SAHXZ@4HA ; TSS0<`template-parameter-2',QMetaTypeIdQObject<wsimulation *,8>::t_metatype_id,int * const volatile,void,int, ?? &>
	call	_Init_thread_footer
$LN2@qt_metatyp:
; Line 1830
	lea	rcx, OFFSET FLAT:?metatype_id@?1??qt_metatype_id@?$QMetaTypeIdQObject@PEAVwsimulation@@$07@@SAHXZ@4V?$QBasicAtomicInteger@H@@A ; `QMetaTypeIdQObject<wsimulation *,8>::qt_metatype_id'::`2'::metatype_id
	call	?loadAcquire@?$QBasicAtomicInteger@H@@QEBAHXZ ; QBasicAtomicInteger<int>::loadAcquire
	mov	DWORD PTR id$1[rsp], eax
	cmp	DWORD PTR id$1[rsp], 0
	je	SHORT $LN3@qt_metatyp
; Line 1831
	mov	eax, DWORD PTR id$1[rsp]
	jmp	$LN1@qt_metatyp
$LN3@qt_metatyp:
; Line 1832
	lea	rcx, OFFSET FLAT:?staticMetaObject@wsimulation@@2UQMetaObject@@B ; wsimulation::staticMetaObject
	call	QWORD PTR __imp_?className@QMetaObject@@QEBAPEBDXZ
	mov	QWORD PTR cName$[rsp], rax
; Line 1833
	lea	rcx, QWORD PTR typeName$[rsp]
	call	QWORD PTR __imp_??0QByteArray@@QEAA@XZ
	npad	1
; Line 1834
	mov	rcx, QWORD PTR cName$[rsp]
	call	strlen
	inc	eax
	mov	edx, eax
	lea	rcx, QWORD PTR typeName$[rsp]
	call	QWORD PTR __imp_?reserve@QByteArray@@QEAAXH@Z
; Line 1835
	mov	rdx, QWORD PTR cName$[rsp]
	lea	rcx, QWORD PTR typeName$[rsp]
	call	QWORD PTR __imp_?append@QByteArray@@QEAAAEAV1@PEBD@Z
	mov	dl, 42					; 0000002aH
	mov	rcx, rax
	call	QWORD PTR __imp_?append@QByteArray@@QEAAAEAV1@D@Z
; Line 1836
	mov	r8d, 1
	mov	rdx, -1
	lea	rcx, QWORD PTR typeName$[rsp]
	call	??$qRegisterNormalizedMetaType@PEAVwsimulation@@@@YAHAEBVQByteArray@@PEAPEAVwsimulation@@W4DefinedType@?$MetaTypeDefinedHelper@PEAVwsimulation@@$00@QtPrivate@@@Z ; qRegisterNormalizedMetaType<wsimulation *>
	mov	DWORD PTR newId$[rsp], eax
; Line 1839
	mov	edx, DWORD PTR newId$[rsp]
	lea	rcx, OFFSET FLAT:?metatype_id@?1??qt_metatype_id@?$QMetaTypeIdQObject@PEAVwsimulation@@$07@@SAHXZ@4V?$QBasicAtomicInteger@H@@A ; `QMetaTypeIdQObject<wsimulation *,8>::qt_metatype_id'::`2'::metatype_id
	call	?storeRelease@?$QBasicAtomicInteger@H@@QEAAXH@Z ; QBasicAtomicInteger<int>::storeRelease
; Line 1840
	mov	eax, DWORD PTR newId$[rsp]
	mov	DWORD PTR $T2[rsp], eax
	lea	rcx, QWORD PTR typeName$[rsp]
	call	QWORD PTR __imp_??1QByteArray@@QEAA@XZ
	mov	eax, DWORD PTR $T2[rsp]
$LN1@qt_metatyp:
; Line 1841
	add	rsp, 88					; 00000058H
	ret	0
?qt_metatype_id@?$QMetaTypeIdQObject@PEAVwsimulation@@$07@@SAHXZ ENDP ; QMetaTypeIdQObject<wsimulation *,8>::qt_metatype_id
_TEXT	ENDS
;	COMDAT text$x
text$x	SEGMENT
id$1 = 32
newId$ = 36
$T2 = 40
typeName$ = 48
cName$ = 56
$T3 = 64
?dtor$0@?0??qt_metatype_id@?$QMetaTypeIdQObject@PEAVwsimulation@@$07@@SAHXZ@4HA PROC ; `QMetaTypeIdQObject<wsimulation *,8>::qt_metatype_id'::`1'::dtor$0
	push	rbp
	sub	rsp, 32					; 00000020H
	mov	rbp, rdx
	lea	rcx, QWORD PTR typeName$[rbp]
	call	QWORD PTR __imp_??1QByteArray@@QEAA@XZ
	add	rsp, 32					; 00000020H
	pop	rbp
	ret	0
?dtor$0@?0??qt_metatype_id@?$QMetaTypeIdQObject@PEAVwsimulation@@$07@@SAHXZ@4HA ENDP ; `QMetaTypeIdQObject<wsimulation *,8>::qt_metatype_id'::`1'::dtor$0
text$x	ENDS
; Function compile flags: /Odtp
;	COMDAT text$x
text$x	SEGMENT
id$1 = 32
newId$ = 36
$T2 = 40
typeName$ = 48
cName$ = 56
$T3 = 64
?dtor$0@?0??qt_metatype_id@?$QMetaTypeIdQObject@PEAVwsimulation@@$07@@SAHXZ@4HA PROC ; `QMetaTypeIdQObject<wsimulation *,8>::qt_metatype_id'::`1'::dtor$0
	push	rbp
	sub	rsp, 32					; 00000020H
	mov	rbp, rdx
	lea	rcx, QWORD PTR typeName$[rbp]
	call	QWORD PTR __imp_??1QByteArray@@QEAA@XZ
	add	rsp, 32					; 00000020H
	pop	rbp
	ret	0
?dtor$0@?0??qt_metatype_id@?$QMetaTypeIdQObject@PEAVwsimulation@@$07@@SAHXZ@4HA ENDP ; `QMetaTypeIdQObject<wsimulation *,8>::qt_metatype_id'::`1'::dtor$0
text$x	ENDS
; Function compile flags: /Odtp
;	COMDAT ??$qMetaTypeId@PEAVwresult@@@@YAHXZ
_TEXT	SEGMENT
??$qMetaTypeId@PEAVwresult@@@@YAHXZ PROC		; qMetaTypeId<wresult *>, COMDAT
; File c:\qt\5.12.6\msvc2017_64\include\qtcore\qmetatype.h
; Line 1796
$LN3:
	sub	rsp, 40					; 00000028H
; Line 1798
	call	?qt_metatype_id@?$QMetaTypeId2@PEAVwresult@@@@SAHXZ ; QMetaTypeId2<wresult *>::qt_metatype_id
; Line 1799
	add	rsp, 40					; 00000028H
	ret	0
??$qMetaTypeId@PEAVwresult@@@@YAHXZ ENDP		; qMetaTypeId<wresult *>
_TEXT	ENDS
; Function compile flags: /Odtp
;	COMDAT ??$qMetaTypeId@PEAVwpointmass@@@@YAHXZ
_TEXT	SEGMENT
??$qMetaTypeId@PEAVwpointmass@@@@YAHXZ PROC		; qMetaTypeId<wpointmass *>, COMDAT
; File c:\qt\5.12.6\msvc2017_64\include\qtcore\qmetatype.h
; Line 1796
$LN3:
	sub	rsp, 40					; 00000028H
; Line 1798
	call	?qt_metatype_id@?$QMetaTypeId2@PEAVwpointmass@@@@SAHXZ ; QMetaTypeId2<wpointmass *>::qt_metatype_id
; Line 1799
	add	rsp, 40					; 00000028H
	ret	0
??$qMetaTypeId@PEAVwpointmass@@@@YAHXZ ENDP		; qMetaTypeId<wpointmass *>
_TEXT	ENDS
; Function compile flags: /Odtp
;	COMDAT ??$qMetaTypeId@PEAVwsimulation@@@@YAHXZ
_TEXT	SEGMENT
??$qMetaTypeId@PEAVwsimulation@@@@YAHXZ PROC		; qMetaTypeId<wsimulation *>, COMDAT
; File c:\qt\5.12.6\msvc2017_64\include\qtcore\qmetatype.h
; Line 1796
$LN3:
	sub	rsp, 40					; 00000028H
; Line 1798
	call	?qt_metatype_id@?$QMetaTypeId2@PEAVwsimulation@@@@SAHXZ ; QMetaTypeId2<wsimulation *>::qt_metatype_id
; Line 1799
	add	rsp, 40					; 00000028H
	ret	0
??$qMetaTypeId@PEAVwsimulation@@@@YAHXZ ENDP		; qMetaTypeId<wsimulation *>
_TEXT	ENDS
; Function compile flags: /Odtp
;	COMDAT ??$loadAcquire@H@?$QAtomicOps@H@@SAHAEBU?$atomic@H@std@@@Z
_TEXT	SEGMENT
_q_value$ = 48
??$loadAcquire@H@?$QAtomicOps@H@@SAHAEBU?$atomic@H@std@@@Z PROC ; QAtomicOps<int>::loadAcquire<int>, COMDAT
; File c:\qt\5.12.6\msvc2017_64\include\qtcore\qatomic_cxx11.h
; Line 238
$LN3:
	mov	QWORD PTR [rsp+8], rcx
	sub	rsp, 40					; 00000028H
; Line 239
	mov	edx, 2
	mov	rcx, QWORD PTR _q_value$[rsp]
	call	?load@_Atomic_int@std@@QEBAHW4memory_order@2@@Z ; std::_Atomic_int::load
; Line 240
	add	rsp, 40					; 00000028H
	ret	0
??$loadAcquire@H@?$QAtomicOps@H@@SAHAEBU?$atomic@H@std@@@Z ENDP ; QAtomicOps<int>::loadAcquire<int>
_TEXT	ENDS
; Function compile flags: /Odtp
;	COMDAT ??$storeRelease@H@?$QAtomicOps@H@@SAXAEAU?$atomic@H@std@@H@Z
_TEXT	SEGMENT
_q_value$ = 48
newValue$ = 56
??$storeRelease@H@?$QAtomicOps@H@@SAXAEAU?$atomic@H@std@@H@Z PROC ; QAtomicOps<int>::storeRelease<int>, COMDAT
; File c:\qt\5.12.6\msvc2017_64\include\qtcore\qatomic_cxx11.h
; Line 256
$LN3:
	mov	DWORD PTR [rsp+16], edx
	mov	QWORD PTR [rsp+8], rcx
	sub	rsp, 40					; 00000028H
; Line 257
	mov	r8d, 3
	mov	edx, DWORD PTR newValue$[rsp]
	mov	rcx, QWORD PTR _q_value$[rsp]
	call	?store@_Atomic_int@std@@QEAAXHW4memory_order@2@@Z ; std::_Atomic_int::store
; Line 258
	add	rsp, 40					; 00000028H
	ret	0
??$storeRelease@H@?$QAtomicOps@H@@SAXAEAU?$atomic@H@std@@H@Z ENDP ; QAtomicOps<int>::storeRelease<int>
_TEXT	ENDS
; Function compile flags: /Odtp
;	COMDAT ??__E?staticMetaObject@xModelNavigator@@2UQMetaObject@@B@@YAXXZ
text$di	SEGMENT
??__E?staticMetaObject@xModelNavigator@@2UQMetaObject@@B@@YAXXZ PROC ; `dynamic initializer for 'xModelNavigator::staticMetaObject'', COMDAT
; File c:\xdynamics\xdynamics_gui\generatedfiles\debug\moc_xmodelnavigator.cpp
; Line 274
	mov	rax, QWORD PTR __imp_?staticMetaObject@QDockWidget@@2UQMetaObject@@B
	mov	QWORD PTR ?staticMetaObject@xModelNavigator@@2UQMetaObject@@B, rax
; Line 275
	lea	rax, OFFSET FLAT:?qt_meta_stringdata_xModelNavigator@@3Uqt_meta_stringdata_xModelNavigator_t@@B
	mov	QWORD PTR ?staticMetaObject@xModelNavigator@@2UQMetaObject@@B+8, rax
; Line 276
	lea	rax, OFFSET FLAT:?qt_meta_data_xModelNavigator@@3QBIB
	mov	QWORD PTR ?staticMetaObject@xModelNavigator@@2UQMetaObject@@B+16, rax
; Line 277
	lea	rax, OFFSET FLAT:?qt_static_metacall@xModelNavigator@@CAXPEAVQObject@@W4Call@QMetaObject@@HPEAPEAX@Z ; xModelNavigator::qt_static_metacall
	mov	QWORD PTR ?staticMetaObject@xModelNavigator@@2UQMetaObject@@B+24, rax
; Line 278
	mov	QWORD PTR ?staticMetaObject@xModelNavigator@@2UQMetaObject@@B+32, 0
; Line 279
	mov	QWORD PTR ?staticMetaObject@xModelNavigator@@2UQMetaObject@@B+40, 0
	ret	0
??__E?staticMetaObject@xModelNavigator@@2UQMetaObject@@B@@YAXXZ ENDP ; `dynamic initializer for 'xModelNavigator::staticMetaObject''
text$di	ENDS
; Function compile flags: /Odtp
;	COMDAT ??$qRegisterMetaType@PEAVwresult@@@@YAHXZ
_TEXT	SEGMENT
??$qRegisterMetaType@PEAVwresult@@@@YAHXZ PROC		; qRegisterMetaType<wresult *>, COMDAT
; File c:\qt\5.12.6\msvc2017_64\include\qtcore\qmetatype.h
; Line 1803
$LN3:
	sub	rsp, 40					; 00000028H
; Line 1804
	call	??$qMetaTypeId@PEAVwresult@@@@YAHXZ	; qMetaTypeId<wresult *>
; Line 1805
	add	rsp, 40					; 00000028H
	ret	0
??$qRegisterMetaType@PEAVwresult@@@@YAHXZ ENDP		; qRegisterMetaType<wresult *>
_TEXT	ENDS
; Function compile flags: /Odtp
;	COMDAT ??$qRegisterMetaType@PEAVwpointmass@@@@YAHXZ
_TEXT	SEGMENT
??$qRegisterMetaType@PEAVwpointmass@@@@YAHXZ PROC	; qRegisterMetaType<wpointmass *>, COMDAT
; File c:\qt\5.12.6\msvc2017_64\include\qtcore\qmetatype.h
; Line 1803
$LN3:
	sub	rsp, 40					; 00000028H
; Line 1804
	call	??$qMetaTypeId@PEAVwpointmass@@@@YAHXZ	; qMetaTypeId<wpointmass *>
; Line 1805
	add	rsp, 40					; 00000028H
	ret	0
??$qRegisterMetaType@PEAVwpointmass@@@@YAHXZ ENDP	; qRegisterMetaType<wpointmass *>
_TEXT	ENDS
; Function compile flags: /Odtp
;	COMDAT ??$qRegisterMetaType@PEAVwsimulation@@@@YAHXZ
_TEXT	SEGMENT
??$qRegisterMetaType@PEAVwsimulation@@@@YAHXZ PROC	; qRegisterMetaType<wsimulation *>, COMDAT
; File c:\qt\5.12.6\msvc2017_64\include\qtcore\qmetatype.h
; Line 1803
$LN3:
	sub	rsp, 40					; 00000028H
; Line 1804
	call	??$qMetaTypeId@PEAVwsimulation@@@@YAHXZ	; qMetaTypeId<wsimulation *>
; Line 1805
	add	rsp, 40					; 00000028H
	ret	0
??$qRegisterMetaType@PEAVwsimulation@@@@YAHXZ ENDP	; qRegisterMetaType<wsimulation *>
_TEXT	ENDS
; Function compile flags: /Odtp
;	COMDAT ??__E?staticMetaObject@wview@@2UQMetaObject@@B@@YAXXZ
text$di	SEGMENT
??__E?staticMetaObject@wview@@2UQMetaObject@@B@@YAXXZ PROC ; `dynamic initializer for 'wview::staticMetaObject'', COMDAT
; File c:\xdynamics\xdynamics_gui\generatedfiles\debug\moc_xmodelnavigator.cpp
; Line 96
	mov	rax, QWORD PTR __imp_?staticMetaObject@QWidget@@2UQMetaObject@@B
	mov	QWORD PTR ?staticMetaObject@wview@@2UQMetaObject@@B, rax
; Line 97
	lea	rax, OFFSET FLAT:?qt_meta_stringdata_wview@@3Uqt_meta_stringdata_wview_t@@B
	mov	QWORD PTR ?staticMetaObject@wview@@2UQMetaObject@@B+8, rax
; Line 98
	lea	rax, OFFSET FLAT:?qt_meta_data_wview@@3QBIB
	mov	QWORD PTR ?staticMetaObject@wview@@2UQMetaObject@@B+16, rax
; Line 99
	lea	rax, OFFSET FLAT:?qt_static_metacall@wview@@CAXPEAVQObject@@W4Call@QMetaObject@@HPEAPEAX@Z ; wview::qt_static_metacall
	mov	QWORD PTR ?staticMetaObject@wview@@2UQMetaObject@@B+24, rax
; Line 100
	mov	QWORD PTR ?staticMetaObject@wview@@2UQMetaObject@@B+32, 0
; Line 101
	mov	QWORD PTR ?staticMetaObject@wview@@2UQMetaObject@@B+40, 0
	ret	0
??__E?staticMetaObject@wview@@2UQMetaObject@@B@@YAXXZ ENDP ; `dynamic initializer for 'wview::staticMetaObject''
text$di	ENDS
; Function compile flags: /Odtp
_TEXT	SEGMENT
this$ = 48
?InitializeWidgetStatement@xModelNavigator@@QEAAXXZ PROC ; xModelNavigator::InitializeWidgetStatement
; File c:\xdynamics\xdynamics_gui\generatedfiles\debug\moc_xmodelnavigator.cpp
; Line 336
$LN3:
	mov	QWORD PTR [rsp+8], rcx
	sub	rsp, 40					; 00000028H
; Line 337
	xor	r9d, r9d
	mov	r8d, 3
	lea	rdx, OFFSET FLAT:?staticMetaObject@xModelNavigator@@2UQMetaObject@@B ; xModelNavigator::staticMetaObject
	mov	rcx, QWORD PTR this$[rsp]
	call	QWORD PTR __imp_?activate@QMetaObject@@SAXPEAVQObject@@PEBU1@HPEAPEAX@Z
; Line 338
	add	rsp, 40					; 00000028H
	ret	0
?InitializeWidgetStatement@xModelNavigator@@QEAAXXZ ENDP ; xModelNavigator::InitializeWidgetStatement
_TEXT	ENDS
; Function compile flags: /Odtp
_TEXT	SEGMENT
_a$ = 32
this$ = 64
_t1$ = 72
?definedResultWidget@xModelNavigator@@QEAAXPEAVwresult@@@Z PROC ; xModelNavigator::definedResultWidget
; File c:\xdynamics\xdynamics_gui\generatedfiles\debug\moc_xmodelnavigator.cpp
; Line 329
$LN3:
	mov	QWORD PTR [rsp+16], rdx
	mov	QWORD PTR [rsp+8], rcx
	sub	rsp, 56					; 00000038H
; Line 330
	mov	QWORD PTR _a$[rsp], 0
	lea	rax, QWORD PTR _t1$[rsp]
	mov	QWORD PTR _a$[rsp+8], rax
; Line 331
	lea	r9, QWORD PTR _a$[rsp]
	mov	r8d, 2
	lea	rdx, OFFSET FLAT:?staticMetaObject@xModelNavigator@@2UQMetaObject@@B ; xModelNavigator::staticMetaObject
	mov	rcx, QWORD PTR this$[rsp]
	call	QWORD PTR __imp_?activate@QMetaObject@@SAXPEAVQObject@@PEBU1@HPEAPEAX@Z
; Line 332
	add	rsp, 56					; 00000038H
	ret	0
?definedResultWidget@xModelNavigator@@QEAAXPEAVwresult@@@Z ENDP ; xModelNavigator::definedResultWidget
_TEXT	ENDS
; Function compile flags: /Odtp
_TEXT	SEGMENT
_a$ = 32
this$ = 64
_t1$ = 72
?definedPointMassWidget@xModelNavigator@@QEAAXPEAVwpointmass@@@Z PROC ; xModelNavigator::definedPointMassWidget
; File c:\xdynamics\xdynamics_gui\generatedfiles\debug\moc_xmodelnavigator.cpp
; Line 322
$LN3:
	mov	QWORD PTR [rsp+16], rdx
	mov	QWORD PTR [rsp+8], rcx
	sub	rsp, 56					; 00000038H
; Line 323
	mov	QWORD PTR _a$[rsp], 0
	lea	rax, QWORD PTR _t1$[rsp]
	mov	QWORD PTR _a$[rsp+8], rax
; Line 324
	lea	r9, QWORD PTR _a$[rsp]
	mov	r8d, 1
	lea	rdx, OFFSET FLAT:?staticMetaObject@xModelNavigator@@2UQMetaObject@@B ; xModelNavigator::staticMetaObject
	mov	rcx, QWORD PTR this$[rsp]
	call	QWORD PTR __imp_?activate@QMetaObject@@SAXPEAVQObject@@PEBU1@HPEAPEAX@Z
; Line 325
	add	rsp, 56					; 00000038H
	ret	0
?definedPointMassWidget@xModelNavigator@@QEAAXPEAVwpointmass@@@Z ENDP ; xModelNavigator::definedPointMassWidget
_TEXT	ENDS
; Function compile flags: /Odtp
_TEXT	SEGMENT
_a$ = 32
this$ = 64
_t1$ = 72
?definedSimulationWidget@xModelNavigator@@QEAAXPEAVwsimulation@@@Z PROC ; xModelNavigator::definedSimulationWidget
; File c:\xdynamics\xdynamics_gui\generatedfiles\debug\moc_xmodelnavigator.cpp
; Line 315
$LN3:
	mov	QWORD PTR [rsp+16], rdx
	mov	QWORD PTR [rsp+8], rcx
	sub	rsp, 56					; 00000038H
; Line 316
	mov	QWORD PTR _a$[rsp], 0
	lea	rax, QWORD PTR _t1$[rsp]
	mov	QWORD PTR _a$[rsp+8], rax
; Line 317
	lea	r9, QWORD PTR _a$[rsp]
	xor	r8d, r8d
	lea	rdx, OFFSET FLAT:?staticMetaObject@xModelNavigator@@2UQMetaObject@@B ; xModelNavigator::staticMetaObject
	mov	rcx, QWORD PTR this$[rsp]
	call	QWORD PTR __imp_?activate@QMetaObject@@SAXPEAVQObject@@PEBU1@HPEAPEAX@Z
; Line 318
	add	rsp, 56					; 00000038H
	ret	0
?definedSimulationWidget@xModelNavigator@@QEAAXPEAVwsimulation@@@Z ENDP ; xModelNavigator::definedSimulationWidget
_TEXT	ENDS
; Function compile flags: /Odtp
_TEXT	SEGMENT
tv69 = 32
tv133 = 36
tv191 = 40
tv205 = 44
tv219 = 48
tv233 = 52
_t$1 = 56
result$2 = 64
tv140 = 72
tv152 = 76
tv164 = 80
$T3 = 88
$T4 = 104
$T5 = 120
$T6 = 136
_o$ = 176
_c$ = 184
_id$ = 192
_a$ = 200
?qt_static_metacall@xModelNavigator@@CAXPEAVQObject@@W4Call@QMetaObject@@HPEAPEAX@Z PROC ; xModelNavigator::qt_static_metacall
; File c:\xdynamics\xdynamics_gui\generatedfiles\debug\moc_xmodelnavigator.cpp
; Line 203
$LN50:
	mov	QWORD PTR [rsp+32], r9
	mov	DWORD PTR [rsp+24], r8d
	mov	DWORD PTR [rsp+16], edx
	mov	QWORD PTR [rsp+8], rcx
	sub	rsp, 168				; 000000a8H
; Line 204
	cmp	DWORD PTR _c$[rsp], 0
	jne	$LN12@qt_static_
; Line 205
	mov	rax, QWORD PTR _o$[rsp]
	mov	QWORD PTR _t$1[rsp], rax
; Line 207
	mov	eax, DWORD PTR _id$[rsp]
	mov	DWORD PTR tv69[rsp], eax
	cmp	DWORD PTR tv69[rsp], 0
	je	SHORT $LN14@qt_static_
	cmp	DWORD PTR tv69[rsp], 1
	je	SHORT $LN15@qt_static_
	cmp	DWORD PTR tv69[rsp], 2
	je	SHORT $LN16@qt_static_
	cmp	DWORD PTR tv69[rsp], 3
	je	SHORT $LN17@qt_static_
	cmp	DWORD PTR tv69[rsp], 4
	je	$LN18@qt_static_
	jmp	$LN19@qt_static_
$LN14@qt_static_:
; Line 208
	mov	eax, 8
	imul	rax, rax, 1
	mov	rcx, QWORD PTR _a$[rsp]
	mov	rax, QWORD PTR [rcx+rax]
	mov	rdx, QWORD PTR [rax]
	mov	rcx, QWORD PTR _t$1[rsp]
	call	?definedSimulationWidget@xModelNavigator@@QEAAXPEAVwsimulation@@@Z ; xModelNavigator::definedSimulationWidget
	jmp	$LN2@qt_static_
$LN15@qt_static_:
; Line 209
	mov	eax, 8
	imul	rax, rax, 1
	mov	rcx, QWORD PTR _a$[rsp]
	mov	rax, QWORD PTR [rcx+rax]
	mov	rdx, QWORD PTR [rax]
	mov	rcx, QWORD PTR _t$1[rsp]
	call	?definedPointMassWidget@xModelNavigator@@QEAAXPEAVwpointmass@@@Z ; xModelNavigator::definedPointMassWidget
	jmp	SHORT $LN2@qt_static_
$LN16@qt_static_:
; Line 210
	mov	eax, 8
	imul	rax, rax, 1
	mov	rcx, QWORD PTR _a$[rsp]
	mov	rax, QWORD PTR [rcx+rax]
	mov	rdx, QWORD PTR [rax]
	mov	rcx, QWORD PTR _t$1[rsp]
	call	?definedResultWidget@xModelNavigator@@QEAAXPEAVwresult@@@Z ; xModelNavigator::definedResultWidget
	jmp	SHORT $LN2@qt_static_
$LN17@qt_static_:
; Line 211
	mov	rcx, QWORD PTR _t$1[rsp]
	call	?InitializeWidgetStatement@xModelNavigator@@QEAAXXZ ; xModelNavigator::InitializeWidgetStatement
	jmp	SHORT $LN2@qt_static_
$LN18@qt_static_:
; Line 212
	mov	eax, 8
	imul	rax, rax, 2
	mov	rcx, QWORD PTR _a$[rsp]
	mov	rax, QWORD PTR [rcx+rax]
	mov	ecx, 8
	imul	rcx, rcx, 1
	mov	rdx, QWORD PTR _a$[rsp]
	mov	rcx, QWORD PTR [rdx+rcx]
	mov	r8d, DWORD PTR [rax]
	mov	rdx, QWORD PTR [rcx]
	mov	rcx, QWORD PTR _t$1[rsp]
	call	?clickAction@xModelNavigator@@AEAAXPEAVQTreeWidgetItem@@H@Z ; xModelNavigator::clickAction
$LN19@qt_static_:
$LN2@qt_static_:
; Line 215
	jmp	$LN13@qt_static_
$LN12@qt_static_:
	cmp	DWORD PTR _c$[rsp], 12
	jne	$LN20@qt_static_
; Line 216
	mov	eax, DWORD PTR _id$[rsp]
	mov	DWORD PTR tv133[rsp], eax
	cmp	DWORD PTR tv133[rsp], 0
	je	SHORT $LN23@qt_static_
	cmp	DWORD PTR tv133[rsp], 1
	je	$LN26@qt_static_
	cmp	DWORD PTR tv133[rsp], 2
	je	$LN29@qt_static_
; Line 217
	mov	eax, 8
	imul	rax, rax, 0
	mov	rcx, QWORD PTR _a$[rsp]
	mov	rax, QWORD PTR [rcx+rax]
	mov	DWORD PTR [rax], -1
	jmp	$LN4@qt_static_
$LN23@qt_static_:
; Line 219
	mov	eax, 8
	imul	rax, rax, 1
	mov	rcx, QWORD PTR _a$[rsp]
	mov	rax, QWORD PTR [rcx+rax]
	mov	eax, DWORD PTR [rax]
	mov	DWORD PTR tv140[rsp], eax
	cmp	DWORD PTR tv140[rsp], 0
	je	SHORT $LN25@qt_static_
; Line 220
	mov	eax, 8
	imul	rax, rax, 0
	mov	rcx, QWORD PTR _a$[rsp]
	mov	rax, QWORD PTR [rcx+rax]
	mov	DWORD PTR [rax], -1
	jmp	SHORT $LN6@qt_static_
$LN25@qt_static_:
; Line 222
	call	??$qRegisterMetaType@PEAVwsimulation@@@@YAHXZ ; qRegisterMetaType<wsimulation *>
	mov	ecx, 8
	imul	rcx, rcx, 0
	mov	rdx, QWORD PTR _a$[rsp]
	mov	rcx, QWORD PTR [rdx+rcx]
	mov	DWORD PTR [rcx], eax
$LN6@qt_static_:
; Line 224
	jmp	$LN4@qt_static_
$LN26@qt_static_:
; Line 226
	mov	eax, 8
	imul	rax, rax, 1
	mov	rcx, QWORD PTR _a$[rsp]
	mov	rax, QWORD PTR [rcx+rax]
	mov	eax, DWORD PTR [rax]
	mov	DWORD PTR tv152[rsp], eax
	cmp	DWORD PTR tv152[rsp], 0
	je	SHORT $LN28@qt_static_
; Line 227
	mov	eax, 8
	imul	rax, rax, 0
	mov	rcx, QWORD PTR _a$[rsp]
	mov	rax, QWORD PTR [rcx+rax]
	mov	DWORD PTR [rax], -1
	jmp	SHORT $LN8@qt_static_
$LN28@qt_static_:
; Line 229
	call	??$qRegisterMetaType@PEAVwpointmass@@@@YAHXZ ; qRegisterMetaType<wpointmass *>
	mov	ecx, 8
	imul	rcx, rcx, 0
	mov	rdx, QWORD PTR _a$[rsp]
	mov	rcx, QWORD PTR [rdx+rcx]
	mov	DWORD PTR [rcx], eax
$LN8@qt_static_:
; Line 231
	jmp	SHORT $LN4@qt_static_
$LN29@qt_static_:
; Line 233
	mov	eax, 8
	imul	rax, rax, 1
	mov	rcx, QWORD PTR _a$[rsp]
	mov	rax, QWORD PTR [rcx+rax]
	mov	eax, DWORD PTR [rax]
	mov	DWORD PTR tv164[rsp], eax
	cmp	DWORD PTR tv164[rsp], 0
	je	SHORT $LN31@qt_static_
; Line 234
	mov	eax, 8
	imul	rax, rax, 0
	mov	rcx, QWORD PTR _a$[rsp]
	mov	rax, QWORD PTR [rcx+rax]
	mov	DWORD PTR [rax], -1
	jmp	SHORT $LN10@qt_static_
$LN31@qt_static_:
; Line 236
	call	??$qRegisterMetaType@PEAVwresult@@@@YAHXZ ; qRegisterMetaType<wresult *>
	mov	ecx, 8
	imul	rcx, rcx, 0
	mov	rdx, QWORD PTR _a$[rsp]
	mov	rcx, QWORD PTR [rdx+rcx]
	mov	DWORD PTR [rcx], eax
$LN10@qt_static_:
$LN4@qt_static_:
; Line 240
	jmp	$LN21@qt_static_
$LN20@qt_static_:
	cmp	DWORD PTR _c$[rsp], 10
	jne	$LN32@qt_static_
; Line 241
	mov	eax, 8
	imul	rax, rax, 0
	mov	rcx, QWORD PTR _a$[rsp]
	mov	rax, QWORD PTR [rcx+rax]
	mov	QWORD PTR result$2[rsp], rax
; Line 244
	lea	rax, OFFSET FLAT:?definedSimulationWidget@xModelNavigator@@QEAAXPEAVwsimulation@@@Z ; xModelNavigator::definedSimulationWidget
	mov	QWORD PTR $T3[rsp], rax
	mov	DWORD PTR $T3[rsp+8], 0
	mov	eax, 8
	imul	rax, rax, 1
	mov	rcx, QWORD PTR _a$[rsp]
	mov	rax, QWORD PTR [rcx+rax]
	mov	rcx, QWORD PTR $T3[rsp]
	cmp	QWORD PTR [rax], rcx
	jne	SHORT $LN39@qt_static_
	mov	eax, 8
	imul	rax, rax, 1
	mov	rcx, QWORD PTR _a$[rsp]
	mov	rax, QWORD PTR [rcx+rax]
	cmp	QWORD PTR [rax], 0
	je	SHORT $LN38@qt_static_
	mov	eax, 8
	imul	rax, rax, 1
	mov	rcx, QWORD PTR _a$[rsp]
	mov	rax, QWORD PTR [rcx+rax]
	mov	ecx, DWORD PTR $T3[rsp+8]
	cmp	DWORD PTR [rax+8], ecx
	jne	SHORT $LN39@qt_static_
$LN38@qt_static_:
	mov	DWORD PTR tv191[rsp], 1
	jmp	SHORT $LN40@qt_static_
$LN39@qt_static_:
	mov	DWORD PTR tv191[rsp], 0
$LN40@qt_static_:
	cmp	DWORD PTR tv191[rsp], 0
	je	SHORT $LN33@qt_static_
; Line 245
	mov	rax, QWORD PTR result$2[rsp]
	mov	DWORD PTR [rax], 0
; Line 246
	jmp	$LN1@qt_static_
$LN33@qt_static_:
; Line 251
	lea	rax, OFFSET FLAT:?definedPointMassWidget@xModelNavigator@@QEAAXPEAVwpointmass@@@Z ; xModelNavigator::definedPointMassWidget
	mov	QWORD PTR $T4[rsp], rax
	mov	DWORD PTR $T4[rsp+8], 0
	mov	eax, 8
	imul	rax, rax, 1
	mov	rcx, QWORD PTR _a$[rsp]
	mov	rax, QWORD PTR [rcx+rax]
	mov	rcx, QWORD PTR $T4[rsp]
	cmp	QWORD PTR [rax], rcx
	jne	SHORT $LN42@qt_static_
	mov	eax, 8
	imul	rax, rax, 1
	mov	rcx, QWORD PTR _a$[rsp]
	mov	rax, QWORD PTR [rcx+rax]
	cmp	QWORD PTR [rax], 0
	je	SHORT $LN41@qt_static_
	mov	eax, 8
	imul	rax, rax, 1
	mov	rcx, QWORD PTR _a$[rsp]
	mov	rax, QWORD PTR [rcx+rax]
	mov	ecx, DWORD PTR $T4[rsp+8]
	cmp	DWORD PTR [rax+8], ecx
	jne	SHORT $LN42@qt_static_
$LN41@qt_static_:
	mov	DWORD PTR tv205[rsp], 1
	jmp	SHORT $LN43@qt_static_
$LN42@qt_static_:
	mov	DWORD PTR tv205[rsp], 0
$LN43@qt_static_:
	cmp	DWORD PTR tv205[rsp], 0
	je	SHORT $LN34@qt_static_
; Line 252
	mov	rax, QWORD PTR result$2[rsp]
	mov	DWORD PTR [rax], 1
; Line 253
	jmp	$LN1@qt_static_
$LN34@qt_static_:
; Line 258
	lea	rax, OFFSET FLAT:?definedResultWidget@xModelNavigator@@QEAAXPEAVwresult@@@Z ; xModelNavigator::definedResultWidget
	mov	QWORD PTR $T5[rsp], rax
	mov	DWORD PTR $T5[rsp+8], 0
	mov	eax, 8
	imul	rax, rax, 1
	mov	rcx, QWORD PTR _a$[rsp]
	mov	rax, QWORD PTR [rcx+rax]
	mov	rcx, QWORD PTR $T5[rsp]
	cmp	QWORD PTR [rax], rcx
	jne	SHORT $LN45@qt_static_
	mov	eax, 8
	imul	rax, rax, 1
	mov	rcx, QWORD PTR _a$[rsp]
	mov	rax, QWORD PTR [rcx+rax]
	cmp	QWORD PTR [rax], 0
	je	SHORT $LN44@qt_static_
	mov	eax, 8
	imul	rax, rax, 1
	mov	rcx, QWORD PTR _a$[rsp]
	mov	rax, QWORD PTR [rcx+rax]
	mov	ecx, DWORD PTR $T5[rsp+8]
	cmp	DWORD PTR [rax+8], ecx
	jne	SHORT $LN45@qt_static_
$LN44@qt_static_:
	mov	DWORD PTR tv219[rsp], 1
	jmp	SHORT $LN46@qt_static_
$LN45@qt_static_:
	mov	DWORD PTR tv219[rsp], 0
$LN46@qt_static_:
	cmp	DWORD PTR tv219[rsp], 0
	je	SHORT $LN35@qt_static_
; Line 259
	mov	rax, QWORD PTR result$2[rsp]
	mov	DWORD PTR [rax], 2
; Line 260
	jmp	$LN1@qt_static_
$LN35@qt_static_:
; Line 265
	lea	rax, OFFSET FLAT:?InitializeWidgetStatement@xModelNavigator@@QEAAXXZ ; xModelNavigator::InitializeWidgetStatement
	mov	QWORD PTR $T6[rsp], rax
	mov	DWORD PTR $T6[rsp+8], 0
	mov	eax, 8
	imul	rax, rax, 1
	mov	rcx, QWORD PTR _a$[rsp]
	mov	rax, QWORD PTR [rcx+rax]
	mov	rcx, QWORD PTR $T6[rsp]
	cmp	QWORD PTR [rax], rcx
	jne	SHORT $LN48@qt_static_
	mov	eax, 8
	imul	rax, rax, 1
	mov	rcx, QWORD PTR _a$[rsp]
	mov	rax, QWORD PTR [rcx+rax]
	cmp	QWORD PTR [rax], 0
	je	SHORT $LN47@qt_static_
	mov	eax, 8
	imul	rax, rax, 1
	mov	rcx, QWORD PTR _a$[rsp]
	mov	rax, QWORD PTR [rcx+rax]
	mov	ecx, DWORD PTR $T6[rsp+8]
	cmp	DWORD PTR [rax+8], ecx
	jne	SHORT $LN48@qt_static_
$LN47@qt_static_:
	mov	DWORD PTR tv233[rsp], 1
	jmp	SHORT $LN49@qt_static_
$LN48@qt_static_:
	mov	DWORD PTR tv233[rsp], 0
$LN49@qt_static_:
	cmp	DWORD PTR tv233[rsp], 0
	je	SHORT $LN36@qt_static_
; Line 266
	mov	rax, QWORD PTR result$2[rsp]
	mov	DWORD PTR [rax], 3
$LN36@qt_static_:
$LN32@qt_static_:
$LN21@qt_static_:
$LN13@qt_static_:
$LN1@qt_static_:
; Line 271
	add	rsp, 168				; 000000a8H
	ret	0
?qt_static_metacall@xModelNavigator@@CAXPEAVQObject@@W4Call@QMetaObject@@HPEAPEAX@Z ENDP ; xModelNavigator::qt_static_metacall
_TEXT	ENDS
; Function compile flags: /Odtp
_TEXT	SEGMENT
this$ = 48
_c$ = 56
_id$ = 64
_a$ = 72
?qt_metacall@xModelNavigator@@UEAAHW4Call@QMetaObject@@HPEAPEAX@Z PROC ; xModelNavigator::qt_metacall
; File c:\xdynamics\xdynamics_gui\generatedfiles\debug\moc_xmodelnavigator.cpp
; Line 297
$LN9:
	mov	QWORD PTR [rsp+32], r9
	mov	DWORD PTR [rsp+24], r8d
	mov	DWORD PTR [rsp+16], edx
	mov	QWORD PTR [rsp+8], rcx
	sub	rsp, 40					; 00000028H
; Line 298
	mov	r9, QWORD PTR _a$[rsp]
	mov	r8d, DWORD PTR _id$[rsp]
	mov	edx, DWORD PTR _c$[rsp]
	mov	rcx, QWORD PTR this$[rsp]
	call	QWORD PTR __imp_?qt_metacall@QDockWidget@@UEAAHW4Call@QMetaObject@@HPEAPEAX@Z
	mov	DWORD PTR _id$[rsp], eax
; Line 299
	cmp	DWORD PTR _id$[rsp], 0
	jge	SHORT $LN2@qt_metacal
; Line 300
	mov	eax, DWORD PTR _id$[rsp]
	jmp	SHORT $LN1@qt_metacal
$LN2@qt_metacal:
; Line 301
	cmp	DWORD PTR _c$[rsp], 0
	jne	SHORT $LN3@qt_metacal
; Line 302
	cmp	DWORD PTR _id$[rsp], 5
	jge	SHORT $LN5@qt_metacal
; Line 303
	mov	r9, QWORD PTR _a$[rsp]
	mov	r8d, DWORD PTR _id$[rsp]
	mov	edx, DWORD PTR _c$[rsp]
	mov	rcx, QWORD PTR this$[rsp]
	call	?qt_static_metacall@xModelNavigator@@CAXPEAVQObject@@W4Call@QMetaObject@@HPEAPEAX@Z ; xModelNavigator::qt_static_metacall
$LN5@qt_metacal:
; Line 304
	mov	eax, DWORD PTR _id$[rsp]
	sub	eax, 5
	mov	DWORD PTR _id$[rsp], eax
	jmp	SHORT $LN4@qt_metacal
$LN3@qt_metacal:
; Line 305
	cmp	DWORD PTR _c$[rsp], 12
	jne	SHORT $LN6@qt_metacal
; Line 306
	cmp	DWORD PTR _id$[rsp], 5
	jge	SHORT $LN7@qt_metacal
; Line 307
	mov	r9, QWORD PTR _a$[rsp]
	mov	r8d, DWORD PTR _id$[rsp]
	mov	edx, DWORD PTR _c$[rsp]
	mov	rcx, QWORD PTR this$[rsp]
	call	?qt_static_metacall@xModelNavigator@@CAXPEAVQObject@@W4Call@QMetaObject@@HPEAPEAX@Z ; xModelNavigator::qt_static_metacall
$LN7@qt_metacal:
; Line 308
	mov	eax, DWORD PTR _id$[rsp]
	sub	eax, 5
	mov	DWORD PTR _id$[rsp], eax
$LN6@qt_metacal:
$LN4@qt_metacal:
; Line 310
	mov	eax, DWORD PTR _id$[rsp]
$LN1@qt_metacal:
; Line 311
	add	rsp, 40					; 00000028H
	ret	0
?qt_metacall@xModelNavigator@@UEAAHW4Call@QMetaObject@@HPEAPEAX@Z ENDP ; xModelNavigator::qt_metacall
_TEXT	ENDS
; Function compile flags: /Odtp
_TEXT	SEGMENT
this$ = 48
_clname$ = 56
?qt_metacast@xModelNavigator@@UEAAPEAXPEBD@Z PROC	; xModelNavigator::qt_metacast
; File c:\xdynamics\xdynamics_gui\generatedfiles\debug\moc_xmodelnavigator.cpp
; Line 289
$LN5:
	mov	QWORD PTR [rsp+16], rdx
	mov	QWORD PTR [rsp+8], rcx
	sub	rsp, 40					; 00000028H
; Line 290
	cmp	QWORD PTR _clname$[rsp], 0
	jne	SHORT $LN2@qt_metacas
	xor	eax, eax
	jmp	SHORT $LN1@qt_metacas
$LN2@qt_metacas:
; Line 291
	lea	rdx, OFFSET FLAT:?qt_meta_stringdata_xModelNavigator@@3Uqt_meta_stringdata_xModelNavigator_t@@B+264
	mov	rcx, QWORD PTR _clname$[rsp]
	call	strcmp
	test	eax, eax
	jne	SHORT $LN3@qt_metacas
; Line 292
	mov	rax, QWORD PTR this$[rsp]
	jmp	SHORT $LN1@qt_metacas
$LN3@qt_metacas:
; Line 293
	mov	rdx, QWORD PTR _clname$[rsp]
	mov	rcx, QWORD PTR this$[rsp]
	call	QWORD PTR __imp_?qt_metacast@QDockWidget@@UEAAPEAXPEBD@Z
$LN1@qt_metacas:
; Line 294
	add	rsp, 40					; 00000028H
	ret	0
?qt_metacast@xModelNavigator@@UEAAPEAXPEBD@Z ENDP	; xModelNavigator::qt_metacast
_TEXT	ENDS
; Function compile flags: /Odtp
_TEXT	SEGMENT
tv82 = 32
this$ = 64
?metaObject@xModelNavigator@@UEBAPEBUQMetaObject@@XZ PROC ; xModelNavigator::metaObject
; File c:\xdynamics\xdynamics_gui\generatedfiles\debug\moc_xmodelnavigator.cpp
; Line 284
$LN5:
	mov	QWORD PTR [rsp+8], rcx
	sub	rsp, 56					; 00000038H
; Line 285
	mov	rax, QWORD PTR this$[rsp]
	add	rax, 8
	mov	rcx, rax
	call	??C?$QScopedPointer@VQObjectData@@U?$QScopedPointerDeleter@VQObjectData@@@@@@QEBAPEAVQObjectData@@XZ ; QScopedPointer<QObjectData,QScopedPointerDeleter<QObjectData> >::operator->
	cmp	QWORD PTR [rax+40], 0
	je	SHORT $LN3@metaObject
	mov	rax, QWORD PTR this$[rsp]
	add	rax, 8
	mov	rcx, rax
	call	??C?$QScopedPointer@VQObjectData@@U?$QScopedPointerDeleter@VQObjectData@@@@@@QEBAPEAVQObjectData@@XZ ; QScopedPointer<QObjectData,QScopedPointerDeleter<QObjectData> >::operator->
	mov	rcx, rax
	call	QWORD PTR __imp_?dynamicMetaObject@QObjectData@@QEBAPEAUQMetaObject@@XZ
	mov	QWORD PTR tv82[rsp], rax
	jmp	SHORT $LN4@metaObject
$LN3@metaObject:
	lea	rax, OFFSET FLAT:?staticMetaObject@xModelNavigator@@2UQMetaObject@@B ; xModelNavigator::staticMetaObject
	mov	QWORD PTR tv82[rsp], rax
$LN4@metaObject:
	mov	rax, QWORD PTR tv82[rsp]
; Line 286
	add	rsp, 56					; 00000038H
	ret	0
?metaObject@xModelNavigator@@UEBAPEBUQMetaObject@@XZ ENDP ; xModelNavigator::metaObject
_TEXT	ENDS
; Function compile flags: /Odtp
_TEXT	SEGMENT
tv69 = 32
_t$1 = 40
_o$ = 64
_c$ = 72
_id$ = 80
_a$ = 88
?qt_static_metacall@wview@@CAXPEAVQObject@@W4Call@QMetaObject@@HPEAPEAX@Z PROC ; wview::qt_static_metacall
; File c:\xdynamics\xdynamics_gui\generatedfiles\debug\moc_xmodelnavigator.cpp
; Line 80
$LN12:
	mov	QWORD PTR [rsp+32], r9
	mov	DWORD PTR [rsp+24], r8d
	mov	DWORD PTR [rsp+16], edx
	mov	QWORD PTR [rsp+8], rcx
	sub	rsp, 56					; 00000038H
; Line 81
	cmp	DWORD PTR _c$[rsp], 0
	jne	$LN4@qt_static_
; Line 82
	mov	rax, QWORD PTR _o$[rsp]
	mov	QWORD PTR _t$1[rsp], rax
; Line 84
	mov	eax, DWORD PTR _id$[rsp]
	mov	DWORD PTR tv69[rsp], eax
	cmp	DWORD PTR tv69[rsp], 0
	je	SHORT $LN5@qt_static_
	cmp	DWORD PTR tv69[rsp], 1
	je	SHORT $LN6@qt_static_
	cmp	DWORD PTR tv69[rsp], 2
	je	SHORT $LN7@qt_static_
	cmp	DWORD PTR tv69[rsp], 3
	je	SHORT $LN8@qt_static_
	cmp	DWORD PTR tv69[rsp], 4
	je	SHORT $LN9@qt_static_
	jmp	$LN10@qt_static_
$LN5@qt_static_:
; Line 85
	mov	eax, 8
	imul	rax, rax, 1
	mov	rcx, QWORD PTR _a$[rsp]
	mov	rax, QWORD PTR [rcx+rax]
	mov	edx, DWORD PTR [rax]
	mov	rcx, QWORD PTR _t$1[rsp]
	call	?changeTransparency@wview@@AEAAXH@Z	; wview::changeTransparency
	jmp	SHORT $LN2@qt_static_
$LN6@qt_static_:
; Line 86
	mov	rcx, QWORD PTR _t$1[rsp]
	call	?colorPalette@wview@@AEAAXXZ		; wview::colorPalette
	jmp	SHORT $LN2@qt_static_
$LN7@qt_static_:
; Line 87
	mov	eax, 8
	imul	rax, rax, 1
	mov	rcx, QWORD PTR _a$[rsp]
	mov	rax, QWORD PTR [rcx+rax]
	mov	edx, DWORD PTR [rax]
	mov	rcx, QWORD PTR _t$1[rsp]
	call	?changeRedColor@wview@@AEAAXH@Z		; wview::changeRedColor
	jmp	SHORT $LN2@qt_static_
$LN8@qt_static_:
; Line 88
	mov	eax, 8
	imul	rax, rax, 1
	mov	rcx, QWORD PTR _a$[rsp]
	mov	rax, QWORD PTR [rcx+rax]
	mov	edx, DWORD PTR [rax]
	mov	rcx, QWORD PTR _t$1[rsp]
	call	?changeGreenColor@wview@@AEAAXH@Z	; wview::changeGreenColor
	jmp	SHORT $LN2@qt_static_
$LN9@qt_static_:
; Line 89
	mov	eax, 8
	imul	rax, rax, 1
	mov	rcx, QWORD PTR _a$[rsp]
	mov	rax, QWORD PTR [rcx+rax]
	mov	edx, DWORD PTR [rax]
	mov	rcx, QWORD PTR _t$1[rsp]
	call	?changeBlueColor@wview@@AEAAXH@Z	; wview::changeBlueColor
$LN10@qt_static_:
$LN2@qt_static_:
$LN4@qt_static_:
; Line 93
	add	rsp, 56					; 00000038H
	ret	0
?qt_static_metacall@wview@@CAXPEAVQObject@@W4Call@QMetaObject@@HPEAPEAX@Z ENDP ; wview::qt_static_metacall
_TEXT	ENDS
; Function compile flags: /Odtp
_TEXT	SEGMENT
this$ = 48
_c$ = 56
_id$ = 64
_a$ = 72
?qt_metacall@wview@@UEAAHW4Call@QMetaObject@@HPEAPEAX@Z PROC ; wview::qt_metacall
; File c:\xdynamics\xdynamics_gui\generatedfiles\debug\moc_xmodelnavigator.cpp
; Line 121
$LN9:
	mov	QWORD PTR [rsp+32], r9
	mov	DWORD PTR [rsp+24], r8d
	mov	DWORD PTR [rsp+16], edx
	mov	QWORD PTR [rsp+8], rcx
	sub	rsp, 40					; 00000028H
; Line 122
	mov	r9, QWORD PTR _a$[rsp]
	mov	r8d, DWORD PTR _id$[rsp]
	mov	edx, DWORD PTR _c$[rsp]
	mov	rcx, QWORD PTR this$[rsp]
	call	QWORD PTR __imp_?qt_metacall@QWidget@@UEAAHW4Call@QMetaObject@@HPEAPEAX@Z
	mov	DWORD PTR _id$[rsp], eax
; Line 123
	cmp	DWORD PTR _id$[rsp], 0
	jge	SHORT $LN2@qt_metacal
; Line 124
	mov	eax, DWORD PTR _id$[rsp]
	jmp	SHORT $LN1@qt_metacal
$LN2@qt_metacal:
; Line 125
	cmp	DWORD PTR _c$[rsp], 0
	jne	SHORT $LN3@qt_metacal
; Line 126
	cmp	DWORD PTR _id$[rsp], 5
	jge	SHORT $LN5@qt_metacal
; Line 127
	mov	r9, QWORD PTR _a$[rsp]
	mov	r8d, DWORD PTR _id$[rsp]
	mov	edx, DWORD PTR _c$[rsp]
	mov	rcx, QWORD PTR this$[rsp]
	call	?qt_static_metacall@wview@@CAXPEAVQObject@@W4Call@QMetaObject@@HPEAPEAX@Z ; wview::qt_static_metacall
$LN5@qt_metacal:
; Line 128
	mov	eax, DWORD PTR _id$[rsp]
	sub	eax, 5
	mov	DWORD PTR _id$[rsp], eax
	jmp	SHORT $LN4@qt_metacal
$LN3@qt_metacal:
; Line 129
	cmp	DWORD PTR _c$[rsp], 12
	jne	SHORT $LN6@qt_metacal
; Line 130
	cmp	DWORD PTR _id$[rsp], 5
	jge	SHORT $LN7@qt_metacal
; Line 131
	mov	eax, 8
	imul	rax, rax, 0
	mov	rcx, QWORD PTR _a$[rsp]
	mov	rax, QWORD PTR [rcx+rax]
	mov	DWORD PTR [rax], -1
$LN7@qt_metacal:
; Line 132
	mov	eax, DWORD PTR _id$[rsp]
	sub	eax, 5
	mov	DWORD PTR _id$[rsp], eax
$LN6@qt_metacal:
$LN4@qt_metacal:
; Line 134
	mov	eax, DWORD PTR _id$[rsp]
$LN1@qt_metacal:
; Line 135
	add	rsp, 40					; 00000028H
	ret	0
?qt_metacall@wview@@UEAAHW4Call@QMetaObject@@HPEAPEAX@Z ENDP ; wview::qt_metacall
_TEXT	ENDS
; Function compile flags: /Odtp
_TEXT	SEGMENT
tv77 = 32
this$ = 64
_clname$ = 72
?qt_metacast@wview@@UEAAPEAXPEBD@Z PROC			; wview::qt_metacast
; File c:\xdynamics\xdynamics_gui\generatedfiles\debug\moc_xmodelnavigator.cpp
; Line 111
$LN8:
	mov	QWORD PTR [rsp+16], rdx
	mov	QWORD PTR [rsp+8], rcx
	sub	rsp, 56					; 00000038H
; Line 112
	cmp	QWORD PTR _clname$[rsp], 0
	jne	SHORT $LN2@qt_metacas
	xor	eax, eax
	jmp	SHORT $LN1@qt_metacas
$LN2@qt_metacas:
; Line 113
	lea	rdx, OFFSET FLAT:?qt_meta_stringdata_wview@@3Uqt_meta_stringdata_wview_t@@B+168
	mov	rcx, QWORD PTR _clname$[rsp]
	call	strcmp
	test	eax, eax
	jne	SHORT $LN3@qt_metacas
; Line 114
	mov	rax, QWORD PTR this$[rsp]
	jmp	SHORT $LN1@qt_metacas
$LN3@qt_metacas:
; Line 115
	lea	rdx, OFFSET FLAT:$SG154958
	mov	rcx, QWORD PTR _clname$[rsp]
	call	strcmp
	test	eax, eax
	jne	SHORT $LN4@qt_metacas
; Line 116
	cmp	QWORD PTR this$[rsp], 0
	je	SHORT $LN6@qt_metacas
	mov	rax, QWORD PTR this$[rsp]
	add	rax, 48					; 00000030H
	mov	QWORD PTR tv77[rsp], rax
	jmp	SHORT $LN7@qt_metacas
$LN6@qt_metacas:
	mov	QWORD PTR tv77[rsp], 0
$LN7@qt_metacas:
	mov	rax, QWORD PTR tv77[rsp]
	jmp	SHORT $LN1@qt_metacas
$LN4@qt_metacas:
; Line 117
	mov	rdx, QWORD PTR _clname$[rsp]
	mov	rcx, QWORD PTR this$[rsp]
	call	QWORD PTR __imp_?qt_metacast@QWidget@@UEAAPEAXPEBD@Z
$LN1@qt_metacas:
; Line 118
	add	rsp, 56					; 00000038H
	ret	0
?qt_metacast@wview@@UEAAPEAXPEBD@Z ENDP			; wview::qt_metacast
_TEXT	ENDS
; Function compile flags: /Odtp
_TEXT	SEGMENT
tv82 = 32
this$ = 64
?metaObject@wview@@UEBAPEBUQMetaObject@@XZ PROC		; wview::metaObject
; File c:\xdynamics\xdynamics_gui\generatedfiles\debug\moc_xmodelnavigator.cpp
; Line 106
$LN5:
	mov	QWORD PTR [rsp+8], rcx
	sub	rsp, 56					; 00000038H
; Line 107
	mov	rax, QWORD PTR this$[rsp]
	add	rax, 8
	mov	rcx, rax
	call	??C?$QScopedPointer@VQObjectData@@U?$QScopedPointerDeleter@VQObjectData@@@@@@QEBAPEAVQObjectData@@XZ ; QScopedPointer<QObjectData,QScopedPointerDeleter<QObjectData> >::operator->
	cmp	QWORD PTR [rax+40], 0
	je	SHORT $LN3@metaObject
	mov	rax, QWORD PTR this$[rsp]
	add	rax, 8
	mov	rcx, rax
	call	??C?$QScopedPointer@VQObjectData@@U?$QScopedPointerDeleter@VQObjectData@@@@@@QEBAPEAVQObjectData@@XZ ; QScopedPointer<QObjectData,QScopedPointerDeleter<QObjectData> >::operator->
	mov	rcx, rax
	call	QWORD PTR __imp_?dynamicMetaObject@QObjectData@@QEBAPEAUQMetaObject@@XZ
	mov	QWORD PTR tv82[rsp], rax
	jmp	SHORT $LN4@metaObject
$LN3@metaObject:
	lea	rax, OFFSET FLAT:?staticMetaObject@wview@@2UQMetaObject@@B ; wview::staticMetaObject
	mov	QWORD PTR tv82[rsp], rax
$LN4@metaObject:
	mov	rax, QWORD PTR tv82[rsp]
; Line 108
	add	rsp, 56					; 00000038H
	ret	0
?metaObject@wview@@UEBAPEBUQMetaObject@@XZ ENDP		; wview::metaObject
_TEXT	ENDS
; Function compile flags: /Odtp
;	COMDAT ??C?$QScopedPointer@VQObjectData@@U?$QScopedPointerDeleter@VQObjectData@@@@@@QEBAPEAVQObjectData@@XZ
_TEXT	SEGMENT
this$ = 8
??C?$QScopedPointer@VQObjectData@@U?$QScopedPointerDeleter@VQObjectData@@@@@@QEBAPEAVQObjectData@@XZ PROC ; QScopedPointer<QObjectData,QScopedPointerDeleter<QObjectData> >::operator->, COMDAT
; File c:\qt\5.12.6\msvc2017_64\include\qtcore\qscopedpointer.h
; Line 117
	mov	QWORD PTR [rsp+8], rcx
; Line 118
	mov	rax, QWORD PTR this$[rsp]
	mov	rax, QWORD PTR [rax]
; Line 119
	ret	0
??C?$QScopedPointer@VQObjectData@@U?$QScopedPointerDeleter@VQObjectData@@@@@@QEBAPEAVQObjectData@@XZ ENDP ; QScopedPointer<QObjectData,QScopedPointerDeleter<QObjectData> >::operator->
_TEXT	ENDS
; Function compile flags: /Odtp
;	COMDAT ??_5?$QFlags@W4TypeFlag@QMetaType@@@@QEAAAEAV0@W4TypeFlag@QMetaType@@@Z
_TEXT	SEGMENT
this$ = 8
other$ = 16
??_5?$QFlags@W4TypeFlag@QMetaType@@@@QEAAAEAV0@W4TypeFlag@QMetaType@@@Z PROC ; QFlags<enum QMetaType::TypeFlag>::operator|=, COMDAT
; File c:\qt\5.12.6\msvc2017_64\include\qtcore\qflags.h
; Line 133
	mov	DWORD PTR [rsp+16], edx
	mov	QWORD PTR [rsp+8], rcx
	mov	rax, QWORD PTR this$[rsp]
	mov	ecx, DWORD PTR other$[rsp]
	mov	eax, DWORD PTR [rax]
	or	eax, ecx
	mov	rcx, QWORD PTR this$[rsp]
	mov	DWORD PTR [rcx], eax
	mov	rax, QWORD PTR this$[rsp]
	ret	0
??_5?$QFlags@W4TypeFlag@QMetaType@@@@QEAAAEAV0@W4TypeFlag@QMetaType@@@Z ENDP ; QFlags<enum QMetaType::TypeFlag>::operator|=
_TEXT	ENDS
; Function compile flags: /Odtp
;	COMDAT ??0?$QFlags@W4TypeFlag@QMetaType@@@@QEAA@VQFlag@@@Z
_TEXT	SEGMENT
this$ = 48
flag$ = 56
??0?$QFlags@W4TypeFlag@QMetaType@@@@QEAA@VQFlag@@@Z PROC ; QFlags<enum QMetaType::TypeFlag>::QFlags<enum QMetaType::TypeFlag>, COMDAT
; File c:\qt\5.12.6\msvc2017_64\include\qtcore\qflags.h
; Line 122
$LN3:
	mov	DWORD PTR [rsp+16], edx
	mov	QWORD PTR [rsp+8], rcx
	sub	rsp, 40					; 00000028H
	lea	rcx, QWORD PTR flag$[rsp]
	call	??BQFlag@@QEBAHXZ			; QFlag::operator int
	mov	rcx, QWORD PTR this$[rsp]
	mov	DWORD PTR [rcx], eax
	mov	rax, QWORD PTR this$[rsp]
	add	rsp, 40					; 00000028H
	ret	0
??0?$QFlags@W4TypeFlag@QMetaType@@@@QEAA@VQFlag@@@Z ENDP ; QFlags<enum QMetaType::TypeFlag>::QFlags<enum QMetaType::TypeFlag>
_TEXT	ENDS
; Function compile flags: /Odtp
;	COMDAT ??8@YA_NAEBVQByteArray@@0@Z
_TEXT	SEGMENT
tv81 = 32
tv65 = 36
tv72 = 40
tv75 = 48
$T1 = 56
a1$ = 80
a2$ = 88
??8@YA_NAEBVQByteArray@@0@Z PROC			; operator==, COMDAT
; File c:\qt\5.12.6\msvc2017_64\include\qtcore\qbytearray.h
; Line 621
$LN5:
	mov	QWORD PTR [rsp+16], rdx
	mov	QWORD PTR [rsp+8], rcx
	sub	rsp, 72					; 00000048H
	mov	QWORD PTR $T1[rsp], -2
	mov	rcx, QWORD PTR a1$[rsp]
	call	QWORD PTR __imp_?size@QByteArray@@QEBAHXZ
	npad	1
	mov	DWORD PTR tv65[rsp], eax
	mov	rcx, QWORD PTR a2$[rsp]
	call	QWORD PTR __imp_?size@QByteArray@@QEBAHXZ
	npad	1
	mov	ecx, DWORD PTR tv65[rsp]
	cmp	ecx, eax
	jne	SHORT $LN3@operator
	mov	rcx, QWORD PTR a1$[rsp]
	call	QWORD PTR __imp_?size@QByteArray@@QEBAHXZ
	npad	1
	cdqe
	mov	QWORD PTR tv72[rsp], rax
	mov	rcx, QWORD PTR a2$[rsp]
	call	QWORD PTR __imp_?constData@QByteArray@@QEBAPEBDXZ
	npad	1
	mov	QWORD PTR tv75[rsp], rax
	mov	rcx, QWORD PTR a1$[rsp]
	call	QWORD PTR __imp_?constData@QByteArray@@QEBAPEBDXZ
	npad	1
	mov	rcx, QWORD PTR tv72[rsp]
	mov	r8, rcx
	mov	rcx, QWORD PTR tv75[rsp]
	mov	rdx, rcx
	mov	rcx, rax
	call	memcmp
	npad	1
	test	eax, eax
	jne	SHORT $LN3@operator
	mov	DWORD PTR tv81[rsp], 1
	jmp	SHORT $LN4@operator
$LN3@operator:
	mov	DWORD PTR tv81[rsp], 0
$LN4@operator:
	movzx	eax, BYTE PTR tv81[rsp]
	add	rsp, 72					; 00000048H
	ret	0
??8@YA_NAEBVQByteArray@@0@Z ENDP			; operator==
_TEXT	ENDS
; Function compile flags: /Odtp
;	COMDAT ??0?$QBasicAtomicInteger@H@@QEAA@H@Z
_TEXT	SEGMENT
this$ = 48
value$ = 56
??0?$QBasicAtomicInteger@H@@QEAA@H@Z PROC		; QBasicAtomicInteger<int>::QBasicAtomicInteger<int>, COMDAT
; File c:\qt\5.12.6\msvc2017_64\include\qtcore\qbasicatomic.h
; Line 221
$LN3:
	mov	DWORD PTR [rsp+16], edx
	mov	QWORD PTR [rsp+8], rcx
	sub	rsp, 40					; 00000028H
	mov	rax, QWORD PTR this$[rsp]
	mov	edx, DWORD PTR value$[rsp]
	mov	rcx, rax
	call	??0?$atomic@H@std@@QEAA@H@Z		; std::atomic<int>::atomic<int>
	mov	rax, QWORD PTR this$[rsp]
	add	rsp, 40					; 00000028H
	ret	0
??0?$QBasicAtomicInteger@H@@QEAA@H@Z ENDP		; QBasicAtomicInteger<int>::QBasicAtomicInteger<int>
_TEXT	ENDS
; Function compile flags: /Odtp
;	COMDAT ?storeRelease@?$QBasicAtomicInteger@H@@QEAAXH@Z
_TEXT	SEGMENT
this$ = 48
newValue$ = 56
?storeRelease@?$QBasicAtomicInteger@H@@QEAAXH@Z PROC	; QBasicAtomicInteger<int>::storeRelease, COMDAT
; File c:\qt\5.12.6\msvc2017_64\include\qtcore\qbasicatomic.h
; Line 107
$LN3:
	mov	DWORD PTR [rsp+16], edx
	mov	QWORD PTR [rsp+8], rcx
	sub	rsp, 40					; 00000028H
	mov	rax, QWORD PTR this$[rsp]
	mov	edx, DWORD PTR newValue$[rsp]
	mov	rcx, rax
	call	??$storeRelease@H@?$QAtomicOps@H@@SAXAEAU?$atomic@H@std@@H@Z ; QAtomicOps<int>::storeRelease<int>
	add	rsp, 40					; 00000028H
	ret	0
?storeRelease@?$QBasicAtomicInteger@H@@QEAAXH@Z ENDP	; QBasicAtomicInteger<int>::storeRelease
_TEXT	ENDS
; Function compile flags: /Odtp
;	COMDAT ?loadAcquire@?$QBasicAtomicInteger@H@@QEBAHXZ
_TEXT	SEGMENT
this$ = 48
?loadAcquire@?$QBasicAtomicInteger@H@@QEBAHXZ PROC	; QBasicAtomicInteger<int>::loadAcquire, COMDAT
; File c:\qt\5.12.6\msvc2017_64\include\qtcore\qbasicatomic.h
; Line 106
$LN3:
	mov	QWORD PTR [rsp+8], rcx
	sub	rsp, 40					; 00000028H
	mov	rax, QWORD PTR this$[rsp]
	mov	rcx, rax
	call	??$loadAcquire@H@?$QAtomicOps@H@@SAHAEBU?$atomic@H@std@@@Z ; QAtomicOps<int>::loadAcquire<int>
	add	rsp, 40					; 00000028H
	ret	0
?loadAcquire@?$QBasicAtomicInteger@H@@QEBAHXZ ENDP	; QBasicAtomicInteger<int>::loadAcquire
_TEXT	ENDS
; Function compile flags: /Odtp
;	COMDAT ?atomic_load_explicit@std@@YAHPEBU_Atomic_int@1@W4memory_order@1@@Z
_TEXT	SEGMENT
$T1 = 32
_Atom$ = 64
_Order$ = 72
?atomic_load_explicit@std@@YAHPEBU_Atomic_int@1@W4memory_order@1@@Z PROC ; std::atomic_load_explicit, COMDAT
; File c:\program files (x86)\microsoft visual studio\2017\community\vc\tools\msvc\14.16.27023\include\xxatomic
; Line 494
$LN3:
	mov	DWORD PTR [rsp+16], edx
	mov	QWORD PTR [rsp+8], rcx
	sub	rsp, 56					; 00000038H
	mov	QWORD PTR $T1[rsp], -2
; Line 495
	mov	rax, QWORD PTR _Atom$[rsp]
	mov	edx, DWORD PTR _Order$[rsp]
	mov	rcx, rax
	call	?_Atomic_load_4@std@@YAKPECKW4memory_order@1@@Z ; std::_Atomic_load_4
	npad	1
; Line 496
	add	rsp, 56					; 00000038H
	ret	0
?atomic_load_explicit@std@@YAHPEBU_Atomic_int@1@W4memory_order@1@@Z ENDP ; std::atomic_load_explicit
_TEXT	ENDS
; Function compile flags: /Odtp
;	COMDAT ?atomic_store_explicit@std@@YAXPEAU_Atomic_int@1@HW4memory_order@1@@Z
_TEXT	SEGMENT
$T1 = 32
_Atom$ = 64
_Value$ = 72
_Order$ = 80
?atomic_store_explicit@std@@YAXPEAU_Atomic_int@1@HW4memory_order@1@@Z PROC ; std::atomic_store_explicit, COMDAT
; File c:\program files (x86)\microsoft visual studio\2017\community\vc\tools\msvc\14.16.27023\include\xxatomic
; Line 473
$LN3:
	mov	DWORD PTR [rsp+24], r8d
	mov	DWORD PTR [rsp+16], edx
	mov	QWORD PTR [rsp+8], rcx
	sub	rsp, 56					; 00000038H
	mov	QWORD PTR $T1[rsp], -2
; Line 474
	mov	rax, QWORD PTR _Atom$[rsp]
	mov	r8d, DWORD PTR _Order$[rsp]
	mov	edx, DWORD PTR _Value$[rsp]
	mov	rcx, rax
	call	?_Atomic_store_4@std@@YAXPECKKW4memory_order@1@@Z ; std::_Atomic_store_4
	npad	1
; Line 475
	add	rsp, 56					; 00000038H
	ret	0
?atomic_store_explicit@std@@YAXPEAU_Atomic_int@1@HW4memory_order@1@@Z ENDP ; std::atomic_store_explicit
_TEXT	ENDS
; Function compile flags: /Odtp
;	COMDAT ??0?$atomic@H@std@@QEAA@H@Z
_TEXT	SEGMENT
this$ = 8
_Val$ = 16
??0?$atomic@H@std@@QEAA@H@Z PROC			; std::atomic<int>::atomic<int>, COMDAT
; File c:\program files (x86)\microsoft visual studio\2017\community\vc\tools\msvc\14.16.27023\include\xxatomic
; Line 172
	mov	DWORD PTR [rsp+16], edx
	mov	QWORD PTR [rsp+8], rcx
	mov	rax, QWORD PTR this$[rsp]
	mov	ecx, DWORD PTR _Val$[rsp]
	mov	DWORD PTR [rax], ecx
; Line 173
	mov	rax, QWORD PTR this$[rsp]
	ret	0
??0?$atomic@H@std@@QEAA@H@Z ENDP			; std::atomic<int>::atomic<int>
_TEXT	ENDS
; Function compile flags: /Odtp
;	COMDAT ?load@_Atomic_int@std@@QEBAHW4memory_order@2@@Z
_TEXT	SEGMENT
this$ = 48
_Order$ = 56
?load@_Atomic_int@std@@QEBAHW4memory_order@2@@Z PROC	; std::_Atomic_int::load, COMDAT
; File c:\program files (x86)\microsoft visual studio\2017\community\vc\tools\msvc\14.16.27023\include\xxatomic
; Line 628
$LN3:
	mov	DWORD PTR [rsp+16], edx
	mov	QWORD PTR [rsp+8], rcx
	sub	rsp, 40					; 00000028H
; Line 629
	mov	edx, DWORD PTR _Order$[rsp]
	mov	rcx, QWORD PTR this$[rsp]
	call	?atomic_load_explicit@std@@YAHPEBU_Atomic_int@1@W4memory_order@1@@Z ; std::atomic_load_explicit
; Line 630
	add	rsp, 40					; 00000028H
	ret	0
?load@_Atomic_int@std@@QEBAHW4memory_order@2@@Z ENDP	; std::_Atomic_int::load
_TEXT	ENDS
; Function compile flags: /Odtp
;	COMDAT ?store@_Atomic_int@std@@QEAAXHW4memory_order@2@@Z
_TEXT	SEGMENT
this$ = 48
_Value$ = 56
_Order$ = 64
?store@_Atomic_int@std@@QEAAXHW4memory_order@2@@Z PROC	; std::_Atomic_int::store, COMDAT
; File c:\program files (x86)\microsoft visual studio\2017\community\vc\tools\msvc\14.16.27023\include\xxatomic
; Line 618
$LN3:
	mov	DWORD PTR [rsp+24], r8d
	mov	DWORD PTR [rsp+16], edx
	mov	QWORD PTR [rsp+8], rcx
	sub	rsp, 40					; 00000028H
; Line 619
	mov	r8d, DWORD PTR _Order$[rsp]
	mov	edx, DWORD PTR _Value$[rsp]
	mov	rcx, QWORD PTR this$[rsp]
	call	?atomic_store_explicit@std@@YAXPEAU_Atomic_int@1@HW4memory_order@1@@Z ; std::atomic_store_explicit
; Line 620
	add	rsp, 40					; 00000028H
	ret	0
?store@_Atomic_int@std@@QEAAXHW4memory_order@2@@Z ENDP	; std::_Atomic_int::store
_TEXT	ENDS
; Function compile flags: /Odtp
;	COMDAT ?_Atomic_load_4@std@@YAKPECKW4memory_order@1@@Z
_TEXT	SEGMENT
tv64 = 48
_Tgt$ = 80
_Order$ = 88
?_Atomic_load_4@std@@YAKPECKW4memory_order@1@@Z PROC	; std::_Atomic_load_4, COMDAT
; File c:\program files (x86)\microsoft visual studio\2017\community\vc\tools\msvc\14.16.27023\include\xatomic.h
; Line 1356
$LN13:
	mov	DWORD PTR [rsp+16], edx
	mov	QWORD PTR [rsp+8], rcx
	sub	rsp, 72					; 00000048H
; Line 1357
	mov	eax, DWORD PTR _Order$[rsp]
	mov	DWORD PTR tv64[rsp], eax
	cmp	DWORD PTR tv64[rsp], 0
	je	SHORT $LN7@Atomic_loa
	cmp	DWORD PTR tv64[rsp], 0
	jle	SHORT $LN10@Atomic_loa
	cmp	DWORD PTR tv64[rsp], 2
	jle	SHORT $LN8@Atomic_loa
	cmp	DWORD PTR tv64[rsp], 5
	je	SHORT $LN9@Atomic_loa
	jmp	SHORT $LN10@Atomic_loa
$LN7@Atomic_loa:
; Line 1360
	mov	rcx, QWORD PTR _Tgt$[rsp]
	call	?_Load_relaxed_4@std@@YAKPECK@Z		; std::_Load_relaxed_4
	jmp	$LN1@Atomic_loa
$LN8@Atomic_loa:
; Line 1364
	mov	rcx, QWORD PTR _Tgt$[rsp]
	call	?_Load_acquire_4@std@@YAKPECK@Z		; std::_Load_acquire_4
	jmp	SHORT $LN1@Atomic_loa
$LN9@Atomic_loa:
; Line 1367
	mov	rcx, QWORD PTR _Tgt$[rsp]
	call	?_Load_seq_cst_4@std@@YAKPECK@Z		; std::_Load_seq_cst_4
	jmp	SHORT $LN1@Atomic_loa
$LN10@Atomic_loa:
$LN6@Atomic_loa:
; Line 1372
	lea	rax, OFFSET FLAT:??_C@_0BF@ELBANHFK@Invalid?5memory_order@
	mov	QWORD PTR [rsp+40], rax
	lea	rax, OFFSET FLAT:??_C@_02DKCKIIND@?$CFs@
	mov	QWORD PTR [rsp+32], rax
	xor	r9d, r9d
	mov	r8d, 1372				; 0000055cH
	lea	rdx, OFFSET FLAT:??_C@_0GK@HCPCNJPA@c?3?2program?5files?5?$CIx86?$CJ?2microsof@
	mov	ecx, 2
	call	QWORD PTR __imp__CrtDbgReport
	cmp	eax, 1
	jne	SHORT $LN12@Atomic_loa
	int	3
	xor	eax, eax
$LN12@Atomic_loa:
	mov	QWORD PTR [rsp+32], 0
	mov	r9d, 1372				; 0000055cH
	lea	r8, OFFSET FLAT:??_C@_1NE@JIAMEJOL@?$AAc?$AA?3?$AA?2?$AAp?$AAr?$AAo?$AAg?$AAr?$AAa?$AAm?$AA?5?$AAf?$AAi?$AAl?$AAe@
	lea	rdx, OFFSET FLAT:??_C@_1CI@NMHCEFB@?$AAs?$AAt?$AAd?$AA?3?$AA?3?$AA_?$AAA?$AAt?$AAo?$AAm?$AAi?$AAc?$AA_?$AAl?$AAo@
	lea	rcx, OFFSET FLAT:??_C@_1CO@MPEJOJHF@?$AA?$CC?$AAI?$AAn?$AAv?$AAa?$AAl?$AAi?$AAd?$AA?5?$AAm?$AAe?$AAm?$AAo?$AAr?$AAy@
	call	QWORD PTR __imp__invalid_parameter
	xor	eax, eax
	test	eax, eax
	jne	SHORT $LN6@Atomic_loa
; Line 1373
	xor	eax, eax
$LN1@Atomic_loa:
; Line 1375
	add	rsp, 72					; 00000048H
	ret	0
?_Atomic_load_4@std@@YAKPECKW4memory_order@1@@Z ENDP	; std::_Atomic_load_4
_TEXT	ENDS
; Function compile flags: /Odtp
;	COMDAT ?_Load_acquire_4@std@@YAKPECK@Z
_TEXT	SEGMENT
_Tgt$ = 48
?_Load_acquire_4@std@@YAKPECK@Z PROC			; std::_Load_acquire_4, COMDAT
; File c:\program files (x86)\microsoft visual studio\2017\community\vc\tools\msvc\14.16.27023\include\xatomic.h
; Line 1348
$LN3:
	mov	QWORD PTR [rsp+8], rcx
	sub	rsp, 40					; 00000028H
; Line 1351
	mov	rcx, QWORD PTR _Tgt$[rsp]
	call	?_Load_seq_cst_4@std@@YAKPECK@Z		; std::_Load_seq_cst_4
; Line 1352
	add	rsp, 40					; 00000028H
	ret	0
?_Load_acquire_4@std@@YAKPECK@Z ENDP			; std::_Load_acquire_4
_TEXT	ENDS
; Function compile flags: /Odtp
;	COMDAT ?_Load_relaxed_4@std@@YAKPECK@Z
_TEXT	SEGMENT
_Value$ = 0
_Tgt$ = 32
?_Load_relaxed_4@std@@YAKPECK@Z PROC			; std::_Load_relaxed_4, COMDAT
; File c:\program files (x86)\microsoft visual studio\2017\community\vc\tools\msvc\14.16.27023\include\xatomic.h
; Line 1333
$LN3:
	mov	QWORD PTR [rsp+8], rcx
	sub	rsp, 24
; Line 1341
	mov	rax, QWORD PTR _Tgt$[rsp]
	mov	eax, DWORD PTR [rax]
	mov	DWORD PTR _Value$[rsp], eax
; Line 1344
	mov	eax, DWORD PTR _Value$[rsp]
; Line 1345
	add	rsp, 24
	ret	0
?_Load_relaxed_4@std@@YAKPECK@Z ENDP			; std::_Load_relaxed_4
_TEXT	ENDS
; Function compile flags: /Odtp
;	COMDAT ?_Load_seq_cst_4@std@@YAKPECK@Z
_TEXT	SEGMENT
_Value$ = 0
_Tgt$ = 32
?_Load_seq_cst_4@std@@YAKPECK@Z PROC			; std::_Load_seq_cst_4, COMDAT
; File c:\program files (x86)\microsoft visual studio\2017\community\vc\tools\msvc\14.16.27023\include\xatomic.h
; Line 1316
$LN3:
	mov	QWORD PTR [rsp+8], rcx
	sub	rsp, 24
; Line 1325
	mov	rax, QWORD PTR _Tgt$[rsp]
	mov	eax, DWORD PTR [rax]
	mov	DWORD PTR _Value$[rsp], eax
; Line 1329
	mov	eax, DWORD PTR _Value$[rsp]
; Line 1330
	add	rsp, 24
	ret	0
?_Load_seq_cst_4@std@@YAKPECK@Z ENDP			; std::_Load_seq_cst_4
_TEXT	ENDS
; Function compile flags: /Odtp
;	COMDAT ?_Atomic_store_4@std@@YAXPECKKW4memory_order@1@@Z
_TEXT	SEGMENT
tv64 = 48
_Tgt$ = 80
_Value$ = 88
_Order$ = 96
?_Atomic_store_4@std@@YAXPECKKW4memory_order@1@@Z PROC	; std::_Atomic_store_4, COMDAT
; File c:\program files (x86)\microsoft visual studio\2017\community\vc\tools\msvc\14.16.27023\include\xatomic.h
; Line 1290
$LN13:
	mov	DWORD PTR [rsp+24], r8d
	mov	DWORD PTR [rsp+16], edx
	mov	QWORD PTR [rsp+8], rcx
	sub	rsp, 72					; 00000048H
; Line 1291
	mov	eax, DWORD PTR _Order$[rsp]
	mov	DWORD PTR tv64[rsp], eax
	cmp	DWORD PTR tv64[rsp], 0
	je	SHORT $LN7@Atomic_sto
	cmp	DWORD PTR tv64[rsp], 3
	je	SHORT $LN8@Atomic_sto
	cmp	DWORD PTR tv64[rsp], 5
	je	SHORT $LN9@Atomic_sto
	jmp	SHORT $LN10@Atomic_sto
$LN7@Atomic_sto:
; Line 1294
	mov	edx, DWORD PTR _Value$[rsp]
	mov	rcx, QWORD PTR _Tgt$[rsp]
	call	?_Store_relaxed_4@std@@YAXPECKK@Z	; std::_Store_relaxed_4
; Line 1295
	jmp	$LN2@Atomic_sto
$LN8@Atomic_sto:
; Line 1298
	mov	edx, DWORD PTR _Value$[rsp]
	mov	rcx, QWORD PTR _Tgt$[rsp]
	call	?_Store_release_4@std@@YAXPECKK@Z	; std::_Store_release_4
; Line 1299
	jmp	SHORT $LN2@Atomic_sto
$LN9@Atomic_sto:
; Line 1302
	mov	edx, DWORD PTR _Value$[rsp]
	mov	rcx, QWORD PTR _Tgt$[rsp]
	call	?_Store_seq_cst_4@std@@YAXPECKK@Z	; std::_Store_seq_cst_4
; Line 1303
	jmp	SHORT $LN2@Atomic_sto
$LN10@Atomic_sto:
$LN6@Atomic_sto:
; Line 1309
	lea	rax, OFFSET FLAT:??_C@_0BF@ELBANHFK@Invalid?5memory_order@
	mov	QWORD PTR [rsp+40], rax
	lea	rax, OFFSET FLAT:??_C@_02DKCKIIND@?$CFs@
	mov	QWORD PTR [rsp+32], rax
	xor	r9d, r9d
	mov	r8d, 1309				; 0000051dH
	lea	rdx, OFFSET FLAT:??_C@_0GK@HCPCNJPA@c?3?2program?5files?5?$CIx86?$CJ?2microsof@
	mov	ecx, 2
	call	QWORD PTR __imp__CrtDbgReport
	cmp	eax, 1
	jne	SHORT $LN12@Atomic_sto
	int	3
	xor	eax, eax
$LN12@Atomic_sto:
	mov	QWORD PTR [rsp+32], 0
	mov	r9d, 1309				; 0000051dH
	lea	r8, OFFSET FLAT:??_C@_1NE@JIAMEJOL@?$AAc?$AA?3?$AA?2?$AAp?$AAr?$AAo?$AAg?$AAr?$AAa?$AAm?$AA?5?$AAf?$AAi?$AAl?$AAe@
	lea	rdx, OFFSET FLAT:??_C@_1CK@BEBCCGEN@?$AAs?$AAt?$AAd?$AA?3?$AA?3?$AA_?$AAA?$AAt?$AAo?$AAm?$AAi?$AAc?$AA_?$AAs?$AAt@
	lea	rcx, OFFSET FLAT:??_C@_1CO@MPEJOJHF@?$AA?$CC?$AAI?$AAn?$AAv?$AAa?$AAl?$AAi?$AAd?$AA?5?$AAm?$AAe?$AAm?$AAo?$AAr?$AAy@
	call	QWORD PTR __imp__invalid_parameter
	xor	eax, eax
	test	eax, eax
	jne	SHORT $LN6@Atomic_sto
$LN2@Atomic_sto:
; Line 1312
	add	rsp, 72					; 00000048H
	ret	0
?_Atomic_store_4@std@@YAXPECKKW4memory_order@1@@Z ENDP	; std::_Atomic_store_4
_TEXT	ENDS
; Function compile flags: /Odtp
;	COMDAT ?_Store_seq_cst_4@std@@YAXPECKK@Z
_TEXT	SEGMENT
_Tgt$ = 8
_Value$ = 16
?_Store_seq_cst_4@std@@YAXPECKK@Z PROC			; std::_Store_seq_cst_4, COMDAT
; File c:\program files (x86)\microsoft visual studio\2017\community\vc\tools\msvc\14.16.27023\include\xatomic.h
; Line 1275
	mov	DWORD PTR [rsp+16], edx
	mov	QWORD PTR [rsp+8], rcx
; Line 1284
	mov	eax, DWORD PTR _Value$[rsp]
	mov	rcx, QWORD PTR _Tgt$[rsp]
	xchg	DWORD PTR [rcx], eax
; Line 1286
	ret	0
?_Store_seq_cst_4@std@@YAXPECKK@Z ENDP			; std::_Store_seq_cst_4
_TEXT	ENDS
; Function compile flags: /Odtp
;	COMDAT ?_Store_release_4@std@@YAXPECKK@Z
_TEXT	SEGMENT
_Tgt$ = 8
_Value$ = 16
?_Store_release_4@std@@YAXPECKK@Z PROC			; std::_Store_release_4, COMDAT
; File c:\program files (x86)\microsoft visual studio\2017\community\vc\tools\msvc\14.16.27023\include\xatomic.h
; Line 1262
	mov	DWORD PTR [rsp+16], edx
	mov	QWORD PTR [rsp+8], rcx
; Line 1270
	mov	rax, QWORD PTR _Tgt$[rsp]
	mov	ecx, DWORD PTR _Value$[rsp]
	mov	DWORD PTR [rax], ecx
; Line 1272
	ret	0
?_Store_release_4@std@@YAXPECKK@Z ENDP			; std::_Store_release_4
_TEXT	ENDS
; Function compile flags: /Odtp
;	COMDAT ?_Store_relaxed_4@std@@YAXPECKK@Z
_TEXT	SEGMENT
_Tgt$ = 8
_Value$ = 16
?_Store_relaxed_4@std@@YAXPECKK@Z PROC			; std::_Store_relaxed_4, COMDAT
; File c:\program files (x86)\microsoft visual studio\2017\community\vc\tools\msvc\14.16.27023\include\xatomic.h
; Line 1251
	mov	DWORD PTR [rsp+16], edx
	mov	QWORD PTR [rsp+8], rcx
; Line 1257
	mov	rax, QWORD PTR _Tgt$[rsp]
	mov	ecx, DWORD PTR _Value$[rsp]
	mov	DWORD PTR [rax], ecx
; Line 1259
	ret	0
?_Store_relaxed_4@std@@YAXPECKK@Z ENDP			; std::_Store_relaxed_4
_TEXT	ENDS
; Function compile flags: /Odtp
;	COMDAT ??BQFlag@@QEBAHXZ
_TEXT	SEGMENT
this$ = 8
??BQFlag@@QEBAHXZ PROC					; QFlag::operator int, COMDAT
; File c:\qt\5.12.6\msvc2017_64\include\qtcore\qflags.h
; Line 58
	mov	QWORD PTR [rsp+8], rcx
	mov	rax, QWORD PTR this$[rsp]
	mov	eax, DWORD PTR [rax]
	ret	0
??BQFlag@@QEBAHXZ ENDP					; QFlag::operator int
_TEXT	ENDS
; Function compile flags: /Odtp
;	COMDAT ??0QFlag@@QEAA@H@Z
_TEXT	SEGMENT
this$ = 8
value$ = 16
??0QFlag@@QEAA@H@Z PROC					; QFlag::QFlag, COMDAT
; File c:\qt\5.12.6\msvc2017_64\include\qtcore\qflags.h
; Line 57
	mov	DWORD PTR [rsp+16], edx
	mov	QWORD PTR [rsp+8], rcx
	mov	rax, QWORD PTR this$[rsp]
	mov	ecx, DWORD PTR value$[rsp]
	mov	DWORD PTR [rax], ecx
	mov	rax, QWORD PTR this$[rsp]
	ret	0
??0QFlag@@QEAA@H@Z ENDP					; QFlag::QFlag
_TEXT	ENDS
; Function compile flags: /Odtp
;	COMDAT ??2@YAPEAX_KPEAX@Z
_TEXT	SEGMENT
_Size$ = 8
_Where$ = 16
??2@YAPEAX_KPEAX@Z PROC					; operator new, COMDAT
; File c:\program files (x86)\microsoft visual studio\2017\community\vc\tools\msvc\14.16.27023\include\vcruntime_new.h
; Line 185
	mov	QWORD PTR [rsp+16], rdx
	mov	QWORD PTR [rsp+8], rcx
; Line 187
	mov	rax, QWORD PTR _Where$[rsp]
; Line 188
	ret	0
??2@YAPEAX_KPEAX@Z ENDP					; operator new
_TEXT	ENDS
; Function compile flags: /Odtp
;	COMDAT ?__empty_global_delete@@YAXPEAX_K@Z
_TEXT	SEGMENT
__formal$ = 8
__formal$ = 16
?__empty_global_delete@@YAXPEAX_K@Z PROC		; __empty_global_delete, COMDAT
; File c:\xdynamics\xdynamics_gui\generatedfiles\debug\moc_xmodelnavigator.cpp
; Line 341
	mov	QWORD PTR [rsp+16], rdx
	mov	QWORD PTR [rsp+8], rcx
	ret	0
?__empty_global_delete@@YAXPEAX_K@Z ENDP		; __empty_global_delete
_TEXT	ENDS
; Function compile flags: /Odtp
;	COMDAT ?__empty_global_delete@@YAXPEAX@Z
_TEXT	SEGMENT
__formal$ = 8
?__empty_global_delete@@YAXPEAX@Z PROC			; __empty_global_delete, COMDAT
; File c:\xdynamics\xdynamics_gui\generatedfiles\debug\moc_xmodelnavigator.cpp
; Line 341
	mov	QWORD PTR [rsp+8], rcx
	ret	0
?__empty_global_delete@@YAXPEAX@Z ENDP			; __empty_global_delete
_TEXT	ENDS
END
