; Listing generated by Microsoft (R) Optimizing Compiler Version 19.16.27034.0 

include listing.inc

INCLUDELIB MSVCRTD
INCLUDELIB OLDNAMES

CONST	SEGMENT
$SG148560 DB	'c:\qt\5.12.3\msvc2017_64\include\qtcore\qmetatype.h', 00H
	ORG $+12
$SG148561 DB	'qRegisterNormalizedMetaType was called with a not normal'
	DB	'ized type name, please call qRegisterMetaType instead.', 00H
	ORG $+1
$SG148562 DB	'qRegisterNormalizedMetaType', 00H
	ORG $+4
$SG148921 DB	'c:\qt\5.12.3\msvc2017_64\include\qtcore\qmetatype.h', 00H
	ORG $+12
$SG148922 DB	'qRegisterNormalizedMetaType was called with a not normal'
	DB	'ized type name, please call qRegisterMetaType instead.', 00H
	ORG $+1
$SG148923 DB	'qRegisterNormalizedMetaType', 00H
	ORG $+4
$SG149282 DB	'c:\qt\5.12.3\msvc2017_64\include\qtcore\qmetatype.h', 00H
	ORG $+12
$SG149283 DB	'qRegisterNormalizedMetaType was called with a not normal'
	DB	'ized type name, please call qRegisterMetaType instead.', 00H
	ORG $+1
$SG149284 DB	'qRegisterNormalizedMetaType', 00H
	ORG $+4
$SG150136 DB	'c:\qt\5.12.3\msvc2017_64\include\qtcore\qmetatype.h', 00H
	ORG $+12
$SG150137 DB	'qRegisterNormalizedMetaType was called with a not normal'
	DB	'ized type name, please call qRegisterMetaType instead.', 00H
	ORG $+1
$SG150138 DB	'qRegisterNormalizedMetaType', 00H
	ORG $+4
?qt_meta_stringdata_xLineEditWidget@@3Uqt_meta_stringdata_xLineEditWidget_t@@B DD 0ffffffffH ; qt_meta_stringdata_xLineEditWidget
	DD	0fH
	DD	00H
	ORG $+4
	DQ	0000000000000048H
	DD	0ffffffffH
	DD	012H
	DD	00H
	ORG $+4
	DQ	0000000000000040H
	DD	0ffffffffH
	DD	00H
	DD	00H
	ORG $+4
	DQ	000000000000003bH
	DB	078H
	DB	04cH
	DB	069H
	DB	06eH
	DB	065H
	DB	045H
	DB	064H
	DB	069H
	DB	074H
	DB	057H
	DB	069H
	DB	064H
	DB	067H
	DB	065H
	DB	074H
	DB	00H
	DB	075H
	DB	070H
	DB	05fH
	DB	061H
	DB	072H
	DB	072H
	DB	06fH
	DB	077H
	DB	05fH
	DB	06bH
	DB	065H
	DB	079H
	DB	05fH
	DB	070H
	DB	072H
	DB	065H
	DB	073H
	DB	073H
	DB	00H
	DB	00H
	ORG $+4
?qt_meta_data_xLineEditWidget@@3QBIB DD 08H		; qt_meta_data_xLineEditWidget
	DD	00H
	DD	00H
	DD	00H
	DD	01H
	DD	0eH
	DD	00H
	DD	00H
	DD	00H
	DD	00H
	DD	00H
	DD	00H
	DD	00H
	DD	01H
	DD	01H
	DD	00H
	DD	013H
	DD	02H
	DD	06H
	DD	02bH
	DD	00H
	ORG $+4
$SG145587 DB	'c:\qt\5.12.3\msvc2017_64\include\qtcore\qmetatype.h', 00H
	ORG $+4
$SG145588 DB	'qRegisterNormalizedMetaType was called with a not normal'
	DB	'ized type name, please call qRegisterMetaType instead.', 00H
	ORG $+1
$SG145589 DB	'qRegisterNormalizedMetaType', 00H
CONST	ENDS
PUBLIC	?__empty_global_delete@@YAXPEAX@Z		; __empty_global_delete
PUBLIC	?__empty_global_delete@@YAXPEAX_K@Z		; __empty_global_delete
PUBLIC	??C?$QScopedPointer@VQObjectData@@U?$QScopedPointerDeleter@VQObjectData@@@@@@QEBAPEAVQObjectData@@XZ ; QScopedPointer<QObjectData,QScopedPointerDeleter<QObjectData> >::operator->
PUBLIC	?metaObject@xLineEditWidget@@UEBAPEBUQMetaObject@@XZ ; xLineEditWidget::metaObject
PUBLIC	?qt_metacast@xLineEditWidget@@UEAAPEAXPEBD@Z	; xLineEditWidget::qt_metacast
PUBLIC	?qt_metacall@xLineEditWidget@@UEAAHW4Call@QMetaObject@@HPEAPEAX@Z ; xLineEditWidget::qt_metacall
PUBLIC	?qt_static_metacall@xLineEditWidget@@CAXPEAVQObject@@W4Call@QMetaObject@@HPEAPEAX@Z ; xLineEditWidget::qt_static_metacall
PUBLIC	?up_arrow_key_press@xLineEditWidget@@QEAAXXZ	; xLineEditWidget::up_arrow_key_press
PUBLIC	?staticMetaObject@xLineEditWidget@@2UQMetaObject@@B ; xLineEditWidget::staticMetaObject
EXTRN	strcmp:PROC
EXTRN	__imp_?activate@QMetaObject@@SAXPEAVQObject@@PEBU1@HPEAPEAX@Z:PROC
EXTRN	__imp_?dynamicMetaObject@QObjectData@@QEBAPEAUQMetaObject@@XZ:PROC
EXTRN	__imp_?qt_metacast@QLineEdit@@UEAAPEAXPEBD@Z:PROC
EXTRN	__imp_?qt_metacall@QLineEdit@@UEAAHW4Call@QMetaObject@@HPEAPEAX@Z:PROC
EXTRN	__imp_?staticMetaObject@QLineEdit@@2UQMetaObject@@B:BYTE
_BSS	SEGMENT
?staticMetaObject@xLineEditWidget@@2UQMetaObject@@B DB 030H DUP (?) ; xLineEditWidget::staticMetaObject
_BSS	ENDS
pdata	SEGMENT
$pdata$?metaObject@xLineEditWidget@@UEBAPEBUQMetaObject@@XZ DD imagerel $LN5
	DD	imagerel $LN5+88
	DD	imagerel $unwind$?metaObject@xLineEditWidget@@UEBAPEBUQMetaObject@@XZ
$pdata$?qt_metacast@xLineEditWidget@@UEAAPEAXPEBD@Z DD imagerel $LN5
	DD	imagerel $LN5+75
	DD	imagerel $unwind$?qt_metacast@xLineEditWidget@@UEAAPEAXPEBD@Z
$pdata$?qt_metacall@xLineEditWidget@@UEAAHW4Call@QMetaObject@@HPEAPEAX@Z DD imagerel $LN9
	DD	imagerel $LN9+172
	DD	imagerel $unwind$?qt_metacall@xLineEditWidget@@UEAAHW4Call@QMetaObject@@HPEAPEAX@Z
$pdata$?qt_static_metacall@xLineEditWidget@@CAXPEAVQObject@@W4Call@QMetaObject@@HPEAPEAX@Z DD imagerel $LN14
	DD	imagerel $LN14+246
	DD	imagerel $unwind$?qt_static_metacall@xLineEditWidget@@CAXPEAVQObject@@W4Call@QMetaObject@@HPEAPEAX@Z
$pdata$?up_arrow_key_press@xLineEditWidget@@QEAAXXZ DD imagerel $LN3
	DD	imagerel $LN3+38
	DD	imagerel $unwind$?up_arrow_key_press@xLineEditWidget@@QEAAXXZ
pdata	ENDS
CRT$XCU	SEGMENT
??staticMetaObject$initializer$@xLineEditWidget@@2P6AXXZEA@@3P6AXXZEA DQ FLAT:??__E?staticMetaObject@xLineEditWidget@@2UQMetaObject@@B@@YAXXZ ; ??staticMetaObject$initializer$@xLineEditWidget@@2P6AXXZEA@@3P6AXXZEA
CRT$XCU	ENDS
xdata	SEGMENT
$unwind$?metaObject@xLineEditWidget@@UEBAPEBUQMetaObject@@XZ DD 010901H
	DD	06209H
$unwind$?qt_metacast@xLineEditWidget@@UEAAPEAXPEBD@Z DD 010e01H
	DD	0420eH
$unwind$?qt_metacall@xLineEditWidget@@UEAAHW4Call@QMetaObject@@HPEAPEAX@Z DD 011701H
	DD	04217H
$unwind$?qt_static_metacall@xLineEditWidget@@CAXPEAVQObject@@W4Call@QMetaObject@@HPEAPEAX@Z DD 011701H
	DD	0a217H
$unwind$?up_arrow_key_press@xLineEditWidget@@QEAAXXZ DD 010901H
	DD	04209H
xdata	ENDS
; Function compile flags: /Odtp
;	COMDAT ??__E?staticMetaObject@xLineEditWidget@@2UQMetaObject@@B@@YAXXZ
text$di	SEGMENT
??__E?staticMetaObject@xLineEditWidget@@2UQMetaObject@@B@@YAXXZ PROC ; `dynamic initializer for 'xLineEditWidget::staticMetaObject'', COMDAT
; File c:\xdynamics\xdynamics_gui\generatedfiles\debug\moc_xlineeditwidget.cpp
; Line 88
	mov	rax, QWORD PTR __imp_?staticMetaObject@QLineEdit@@2UQMetaObject@@B
	mov	QWORD PTR ?staticMetaObject@xLineEditWidget@@2UQMetaObject@@B, rax
; Line 89
	lea	rax, OFFSET FLAT:?qt_meta_stringdata_xLineEditWidget@@3Uqt_meta_stringdata_xLineEditWidget_t@@B
	mov	QWORD PTR ?staticMetaObject@xLineEditWidget@@2UQMetaObject@@B+8, rax
; Line 90
	lea	rax, OFFSET FLAT:?qt_meta_data_xLineEditWidget@@3QBIB
	mov	QWORD PTR ?staticMetaObject@xLineEditWidget@@2UQMetaObject@@B+16, rax
; Line 91
	lea	rax, OFFSET FLAT:?qt_static_metacall@xLineEditWidget@@CAXPEAVQObject@@W4Call@QMetaObject@@HPEAPEAX@Z ; xLineEditWidget::qt_static_metacall
	mov	QWORD PTR ?staticMetaObject@xLineEditWidget@@2UQMetaObject@@B+24, rax
; Line 92
	mov	QWORD PTR ?staticMetaObject@xLineEditWidget@@2UQMetaObject@@B+32, 0
; Line 93
	mov	QWORD PTR ?staticMetaObject@xLineEditWidget@@2UQMetaObject@@B+40, 0
	ret	0
??__E?staticMetaObject@xLineEditWidget@@2UQMetaObject@@B@@YAXXZ ENDP ; `dynamic initializer for 'xLineEditWidget::staticMetaObject''
text$di	ENDS
; Function compile flags: /Odtp
_TEXT	SEGMENT
this$ = 48
?up_arrow_key_press@xLineEditWidget@@QEAAXXZ PROC	; xLineEditWidget::up_arrow_key_press
; File c:\xdynamics\xdynamics_gui\generatedfiles\debug\moc_xlineeditwidget.cpp
; Line 129
$LN3:
	mov	QWORD PTR [rsp+8], rcx
	sub	rsp, 40					; 00000028H
; Line 130
	xor	r9d, r9d
	xor	r8d, r8d
	lea	rdx, OFFSET FLAT:?staticMetaObject@xLineEditWidget@@2UQMetaObject@@B ; xLineEditWidget::staticMetaObject
	mov	rcx, QWORD PTR this$[rsp]
	call	QWORD PTR __imp_?activate@QMetaObject@@SAXPEAVQObject@@PEBU1@HPEAPEAX@Z
; Line 131
	add	rsp, 40					; 00000028H
	ret	0
?up_arrow_key_press@xLineEditWidget@@QEAAXXZ ENDP	; xLineEditWidget::up_arrow_key_press
_TEXT	ENDS
; Function compile flags: /Odtp
_TEXT	SEGMENT
tv87 = 32
tv69 = 36
_t$1 = 40
result$2 = 48
$T3 = 56
_o$ = 96
_c$ = 104
_id$ = 112
_a$ = 120
?qt_static_metacall@xLineEditWidget@@CAXPEAVQObject@@W4Call@QMetaObject@@HPEAPEAX@Z PROC ; xLineEditWidget::qt_static_metacall
; File c:\xdynamics\xdynamics_gui\generatedfiles\debug\moc_xlineeditwidget.cpp
; Line 66
$LN14:
	mov	QWORD PTR [rsp+32], r9
	mov	DWORD PTR [rsp+24], r8d
	mov	DWORD PTR [rsp+16], edx
	mov	QWORD PTR [rsp+8], rcx
	sub	rsp, 88					; 00000058H
; Line 67
	cmp	DWORD PTR _c$[rsp], 0
	jne	SHORT $LN4@qt_static_
; Line 68
	mov	rax, QWORD PTR _o$[rsp]
	mov	QWORD PTR _t$1[rsp], rax
; Line 70
	mov	eax, DWORD PTR _id$[rsp]
	mov	DWORD PTR tv69[rsp], eax
	cmp	DWORD PTR tv69[rsp], 0
	je	SHORT $LN6@qt_static_
	jmp	SHORT $LN7@qt_static_
$LN6@qt_static_:
; Line 71
	mov	rcx, QWORD PTR _t$1[rsp]
	call	?up_arrow_key_press@xLineEditWidget@@QEAAXXZ ; xLineEditWidget::up_arrow_key_press
$LN7@qt_static_:
; Line 74
	jmp	$LN5@qt_static_
$LN4@qt_static_:
	cmp	DWORD PTR _c$[rsp], 10
	jne	$LN8@qt_static_
; Line 75
	mov	eax, 8
	imul	rax, rax, 0
	mov	rcx, QWORD PTR _a$[rsp]
	mov	rax, QWORD PTR [rcx+rax]
	mov	QWORD PTR result$2[rsp], rax
; Line 78
	lea	rax, OFFSET FLAT:?up_arrow_key_press@xLineEditWidget@@QEAAXXZ ; xLineEditWidget::up_arrow_key_press
	mov	QWORD PTR $T3[rsp], rax
	mov	DWORD PTR $T3[rsp+8], 0
	mov	eax, 8
	imul	rax, rax, 1
	mov	rcx, QWORD PTR _a$[rsp]
	mov	rax, QWORD PTR [rcx+rax]
	mov	rcx, QWORD PTR $T3[rsp]
	cmp	QWORD PTR [rax], rcx
	jne	SHORT $LN12@qt_static_
	mov	eax, 8
	imul	rax, rax, 1
	mov	rcx, QWORD PTR _a$[rsp]
	mov	rax, QWORD PTR [rcx+rax]
	cmp	QWORD PTR [rax], 0
	je	SHORT $LN11@qt_static_
	mov	eax, 8
	imul	rax, rax, 1
	mov	rcx, QWORD PTR _a$[rsp]
	mov	rax, QWORD PTR [rcx+rax]
	mov	ecx, DWORD PTR $T3[rsp+8]
	cmp	DWORD PTR [rax+8], ecx
	jne	SHORT $LN12@qt_static_
$LN11@qt_static_:
	mov	DWORD PTR tv87[rsp], 1
	jmp	SHORT $LN13@qt_static_
$LN12@qt_static_:
	mov	DWORD PTR tv87[rsp], 0
$LN13@qt_static_:
	cmp	DWORD PTR tv87[rsp], 0
	je	SHORT $LN9@qt_static_
; Line 79
	mov	rax, QWORD PTR result$2[rsp]
	mov	DWORD PTR [rax], 0
$LN9@qt_static_:
$LN8@qt_static_:
$LN5@qt_static_:
; Line 85
	add	rsp, 88					; 00000058H
	ret	0
?qt_static_metacall@xLineEditWidget@@CAXPEAVQObject@@W4Call@QMetaObject@@HPEAPEAX@Z ENDP ; xLineEditWidget::qt_static_metacall
_TEXT	ENDS
; Function compile flags: /Odtp
_TEXT	SEGMENT
this$ = 48
_c$ = 56
_id$ = 64
_a$ = 72
?qt_metacall@xLineEditWidget@@UEAAHW4Call@QMetaObject@@HPEAPEAX@Z PROC ; xLineEditWidget::qt_metacall
; File c:\xdynamics\xdynamics_gui\generatedfiles\debug\moc_xlineeditwidget.cpp
; Line 111
$LN9:
	mov	QWORD PTR [rsp+32], r9
	mov	DWORD PTR [rsp+24], r8d
	mov	DWORD PTR [rsp+16], edx
	mov	QWORD PTR [rsp+8], rcx
	sub	rsp, 40					; 00000028H
; Line 112
	mov	r9, QWORD PTR _a$[rsp]
	mov	r8d, DWORD PTR _id$[rsp]
	mov	edx, DWORD PTR _c$[rsp]
	mov	rcx, QWORD PTR this$[rsp]
	call	QWORD PTR __imp_?qt_metacall@QLineEdit@@UEAAHW4Call@QMetaObject@@HPEAPEAX@Z
	mov	DWORD PTR _id$[rsp], eax
; Line 113
	cmp	DWORD PTR _id$[rsp], 0
	jge	SHORT $LN2@qt_metacal
; Line 114
	mov	eax, DWORD PTR _id$[rsp]
	jmp	SHORT $LN1@qt_metacal
$LN2@qt_metacal:
; Line 115
	cmp	DWORD PTR _c$[rsp], 0
	jne	SHORT $LN3@qt_metacal
; Line 116
	cmp	DWORD PTR _id$[rsp], 1
	jge	SHORT $LN5@qt_metacal
; Line 117
	mov	r9, QWORD PTR _a$[rsp]
	mov	r8d, DWORD PTR _id$[rsp]
	mov	edx, DWORD PTR _c$[rsp]
	mov	rcx, QWORD PTR this$[rsp]
	call	?qt_static_metacall@xLineEditWidget@@CAXPEAVQObject@@W4Call@QMetaObject@@HPEAPEAX@Z ; xLineEditWidget::qt_static_metacall
$LN5@qt_metacal:
; Line 118
	mov	eax, DWORD PTR _id$[rsp]
	dec	eax
	mov	DWORD PTR _id$[rsp], eax
	jmp	SHORT $LN4@qt_metacal
$LN3@qt_metacal:
; Line 119
	cmp	DWORD PTR _c$[rsp], 12
	jne	SHORT $LN6@qt_metacal
; Line 120
	cmp	DWORD PTR _id$[rsp], 1
	jge	SHORT $LN7@qt_metacal
; Line 121
	mov	eax, 8
	imul	rax, rax, 0
	mov	rcx, QWORD PTR _a$[rsp]
	mov	rax, QWORD PTR [rcx+rax]
	mov	DWORD PTR [rax], -1
$LN7@qt_metacal:
; Line 122
	mov	eax, DWORD PTR _id$[rsp]
	dec	eax
	mov	DWORD PTR _id$[rsp], eax
$LN6@qt_metacal:
$LN4@qt_metacal:
; Line 124
	mov	eax, DWORD PTR _id$[rsp]
$LN1@qt_metacal:
; Line 125
	add	rsp, 40					; 00000028H
	ret	0
?qt_metacall@xLineEditWidget@@UEAAHW4Call@QMetaObject@@HPEAPEAX@Z ENDP ; xLineEditWidget::qt_metacall
_TEXT	ENDS
; Function compile flags: /Odtp
_TEXT	SEGMENT
this$ = 48
_clname$ = 56
?qt_metacast@xLineEditWidget@@UEAAPEAXPEBD@Z PROC	; xLineEditWidget::qt_metacast
; File c:\xdynamics\xdynamics_gui\generatedfiles\debug\moc_xlineeditwidget.cpp
; Line 103
$LN5:
	mov	QWORD PTR [rsp+16], rdx
	mov	QWORD PTR [rsp+8], rcx
	sub	rsp, 40					; 00000028H
; Line 104
	cmp	QWORD PTR _clname$[rsp], 0
	jne	SHORT $LN2@qt_metacas
	xor	eax, eax
	jmp	SHORT $LN1@qt_metacas
$LN2@qt_metacas:
; Line 105
	lea	rdx, OFFSET FLAT:?qt_meta_stringdata_xLineEditWidget@@3Uqt_meta_stringdata_xLineEditWidget_t@@B+72
	mov	rcx, QWORD PTR _clname$[rsp]
	call	strcmp
	test	eax, eax
	jne	SHORT $LN3@qt_metacas
; Line 106
	mov	rax, QWORD PTR this$[rsp]
	jmp	SHORT $LN1@qt_metacas
$LN3@qt_metacas:
; Line 107
	mov	rdx, QWORD PTR _clname$[rsp]
	mov	rcx, QWORD PTR this$[rsp]
	call	QWORD PTR __imp_?qt_metacast@QLineEdit@@UEAAPEAXPEBD@Z
$LN1@qt_metacas:
; Line 108
	add	rsp, 40					; 00000028H
	ret	0
?qt_metacast@xLineEditWidget@@UEAAPEAXPEBD@Z ENDP	; xLineEditWidget::qt_metacast
_TEXT	ENDS
; Function compile flags: /Odtp
_TEXT	SEGMENT
tv82 = 32
this$ = 64
?metaObject@xLineEditWidget@@UEBAPEBUQMetaObject@@XZ PROC ; xLineEditWidget::metaObject
; File c:\xdynamics\xdynamics_gui\generatedfiles\debug\moc_xlineeditwidget.cpp
; Line 98
$LN5:
	mov	QWORD PTR [rsp+8], rcx
	sub	rsp, 56					; 00000038H
; Line 99
	mov	rax, QWORD PTR this$[rsp]
	add	rax, 8
	mov	rcx, rax
	call	??C?$QScopedPointer@VQObjectData@@U?$QScopedPointerDeleter@VQObjectData@@@@@@QEBAPEAVQObjectData@@XZ ; QScopedPointer<QObjectData,QScopedPointerDeleter<QObjectData> >::operator->
	cmp	QWORD PTR [rax+40], 0
	je	SHORT $LN3@metaObject
	mov	rax, QWORD PTR this$[rsp]
	add	rax, 8
	mov	rcx, rax
	call	??C?$QScopedPointer@VQObjectData@@U?$QScopedPointerDeleter@VQObjectData@@@@@@QEBAPEAVQObjectData@@XZ ; QScopedPointer<QObjectData,QScopedPointerDeleter<QObjectData> >::operator->
	mov	rcx, rax
	call	QWORD PTR __imp_?dynamicMetaObject@QObjectData@@QEBAPEAUQMetaObject@@XZ
	mov	QWORD PTR tv82[rsp], rax
	jmp	SHORT $LN4@metaObject
$LN3@metaObject:
	lea	rax, OFFSET FLAT:?staticMetaObject@xLineEditWidget@@2UQMetaObject@@B ; xLineEditWidget::staticMetaObject
	mov	QWORD PTR tv82[rsp], rax
$LN4@metaObject:
	mov	rax, QWORD PTR tv82[rsp]
; Line 100
	add	rsp, 56					; 00000038H
	ret	0
?metaObject@xLineEditWidget@@UEBAPEBUQMetaObject@@XZ ENDP ; xLineEditWidget::metaObject
_TEXT	ENDS
; Function compile flags: /Odtp
;	COMDAT ??C?$QScopedPointer@VQObjectData@@U?$QScopedPointerDeleter@VQObjectData@@@@@@QEBAPEAVQObjectData@@XZ
_TEXT	SEGMENT
this$ = 8
??C?$QScopedPointer@VQObjectData@@U?$QScopedPointerDeleter@VQObjectData@@@@@@QEBAPEAVQObjectData@@XZ PROC ; QScopedPointer<QObjectData,QScopedPointerDeleter<QObjectData> >::operator->, COMDAT
; File c:\qt\5.12.3\msvc2017_64\include\qtcore\qscopedpointer.h
; Line 117
	mov	QWORD PTR [rsp+8], rcx
; Line 118
	mov	rax, QWORD PTR this$[rsp]
	mov	rax, QWORD PTR [rax]
; Line 119
	ret	0
??C?$QScopedPointer@VQObjectData@@U?$QScopedPointerDeleter@VQObjectData@@@@@@QEBAPEAVQObjectData@@XZ ENDP ; QScopedPointer<QObjectData,QScopedPointerDeleter<QObjectData> >::operator->
_TEXT	ENDS
; Function compile flags: /Odtp
;	COMDAT ?__empty_global_delete@@YAXPEAX_K@Z
_TEXT	SEGMENT
__formal$ = 8
__formal$ = 16
?__empty_global_delete@@YAXPEAX_K@Z PROC		; __empty_global_delete, COMDAT
; File c:\xdynamics\xdynamics_gui\generatedfiles\debug\moc_xlineeditwidget.cpp
; Line 134
	mov	QWORD PTR [rsp+16], rdx
	mov	QWORD PTR [rsp+8], rcx
	ret	0
?__empty_global_delete@@YAXPEAX_K@Z ENDP		; __empty_global_delete
_TEXT	ENDS
; Function compile flags: /Odtp
;	COMDAT ?__empty_global_delete@@YAXPEAX@Z
_TEXT	SEGMENT
__formal$ = 8
?__empty_global_delete@@YAXPEAX@Z PROC			; __empty_global_delete, COMDAT
; File c:\xdynamics\xdynamics_gui\generatedfiles\debug\moc_xlineeditwidget.cpp
; Line 134
	mov	QWORD PTR [rsp+8], rcx
	ret	0
?__empty_global_delete@@YAXPEAX@Z ENDP			; __empty_global_delete
_TEXT	ENDS
END
