; Listing generated by Microsoft (R) Optimizing Compiler Version 19.16.27034.0 

include listing.inc

INCLUDELIB MSVCRTD
INCLUDELIB OLDNAMES

CONST	SEGMENT
?qt_meta_stringdata_wresult@@3Uqt_meta_stringdata_wresult_t@@B DD 0ffffffffH ; qt_meta_stringdata_wresult
	DD	07H
	DD	00H
	ORG $+4
	DQ	00000000000000a8H
	DD	0ffffffffH
	DD	012H
	DD	00H
	ORG $+4
	DQ	0000000000000098H
	DD	0ffffffffH
	DD	00H
	DD	00H
	ORG $+4
	DQ	0000000000000093H
	DD	0ffffffffH
	DD	012H
	DD	00H
	ORG $+4
	DQ	000000000000007cH
	DD	0ffffffffH
	DD	0bH
	DD	00H
	ORG $+4
	DQ	0000000000000077H
	DD	0ffffffffH
	DD	011H
	DD	00H
	ORG $+4
	DQ	000000000000006bH
	DD	0ffffffffH
	DD	011H
	DD	00H
	ORG $+4
	DQ	0000000000000065H
	DB	077H
	DB	072H
	DB	065H
	DB	073H
	DB	075H
	DB	06cH
	DB	074H
	DB	00H
	DB	063H
	DB	06cH
	DB	069H
	DB	063H
	DB	06bH
	DB	065H
	DB	064H
	DB	041H
	DB	070H
	DB	070H
	DB	06cH
	DB	079H
	DB	042H
	DB	075H
	DB	074H
	DB	074H
	DB	06fH
	DB	06eH
	DB	00H
	DB	00H
	DB	063H
	DB	068H
	DB	061H
	DB	06eH
	DB	067H
	DB	065H
	DB	064H
	DB	054H
	DB	061H
	DB	072H
	DB	067H
	DB	065H
	DB	074H
	DB	043H
	DB	06fH
	DB	06dH
	DB	062H
	DB	06fH
	DB	00H
	DB	041H
	DB	070H
	DB	070H
	DB	06cH
	DB	079H
	DB	042H
	DB	075H
	DB	074H
	DB	074H
	DB	06fH
	DB	06eH
	DB	00H
	DB	053H
	DB	065H
	DB	06cH
	DB	065H
	DB	063H
	DB	074H
	DB	052H
	DB	061H
	DB	064H
	DB	069H
	DB	06fH
	DB	042H
	DB	075H
	DB	074H
	DB	074H
	DB	06fH
	DB	06eH
	DB	00H
	DB	043H
	DB	068H
	DB	061H
	DB	06eH
	DB	067H
	DB	065H
	DB	054H
	DB	061H
	DB	072H
	DB	067H
	DB	065H
	DB	074H
	DB	043H
	DB	06fH
	DB	06dH
	DB	062H
	DB	06fH
	DB	00H
	ORG $+1
$SG164164 DB	'c:\qt\5.12.6\msvc2017_64\include\qtcore\qmetatype.h', 00H
	ORG $+4
?qt_meta_data_wresult@@3QBIB DD 08H			; qt_meta_data_wresult
	DD	00H
	DD	00H
	DD	00H
	DD	05H
	DD	0eH
	DD	00H
	DD	00H
	DD	00H
	DD	00H
	DD	00H
	DD	00H
	DD	00H
	DD	02H
	DD	01H
	DD	01H
	DD	027H
	DD	02H
	DD	06H
	DD	03H
	DD	01H
	DD	02aH
	DD	02H
	DD	06H
	DD	04H
	DD	00H
	DD	02dH
	DD	02H
	DD	08H
	DD	05H
	DD	00H
	DD	02eH
	DD	02H
	DD	08H
	DD	06H
	DD	01H
	DD	02fH
	DD	02H
	DD	08H
	DD	02bH
	DD	02H
	DD	02H
	DD	02bH
	DD	02H
	DD	02H
	DD	02bH
	DD	02bH
	DD	02bH
	DD	02H
	DD	02H
	DD	00H
	ORG $+4
$SG164165 DB	'qRegisterNormalizedMetaType was called with a not normal'
	DB	'ized type name, please call qRegisterMetaType instead.', 00H
	ORG $+1
$SG164166 DB	'qRegisterNormalizedMetaType', 00H
	ORG $+4
$SG147903 DB	'Ui::wresult', 00H
	ORG $+4
$SG164574 DB	'c:\qt\5.12.6\msvc2017_64\include\qtcore\qmetatype.h', 00H
	ORG $+12
$SG164575 DB	'qRegisterNormalizedMetaType was called with a not normal'
	DB	'ized type name, please call qRegisterMetaType instead.', 00H
	ORG $+1
$SG164576 DB	'qRegisterNormalizedMetaType', 00H
	ORG $+4
$SG159555 DB	'c:\qt\5.12.6\msvc2017_64\include\qtcore\qmetatype.h', 00H
	ORG $+12
$SG159556 DB	'qRegisterNormalizedMetaType was called with a not normal'
	DB	'ized type name, please call qRegisterMetaType instead.', 00H
	ORG $+1
$SG159557 DB	'qRegisterNormalizedMetaType', 00H
	ORG $+4
$SG162599 DB	'c:\qt\5.12.6\msvc2017_64\include\qtcore\qmetatype.h', 00H
	ORG $+12
$SG162600 DB	'qRegisterNormalizedMetaType was called with a not normal'
	DB	'ized type name, please call qRegisterMetaType instead.', 00H
	ORG $+1
$SG162601 DB	'qRegisterNormalizedMetaType', 00H
	ORG $+4
$SG162960 DB	'c:\qt\5.12.6\msvc2017_64\include\qtcore\qmetatype.h', 00H
	ORG $+12
$SG162961 DB	'qRegisterNormalizedMetaType was called with a not normal'
	DB	'ized type name, please call qRegisterMetaType instead.', 00H
	ORG $+1
$SG162962 DB	'qRegisterNormalizedMetaType', 00H
	ORG $+4
$SG163321 DB	'c:\qt\5.12.6\msvc2017_64\include\qtcore\qmetatype.h', 00H
	ORG $+12
$SG163322 DB	'qRegisterNormalizedMetaType was called with a not normal'
	DB	'ized type name, please call qRegisterMetaType instead.', 00H
	ORG $+1
$SG163323 DB	'qRegisterNormalizedMetaType', 00H
CONST	ENDS
PUBLIC	?__empty_global_delete@@YAXPEAX@Z		; __empty_global_delete
PUBLIC	?__empty_global_delete@@YAXPEAX_K@Z		; __empty_global_delete
PUBLIC	??C?$QScopedPointer@VQObjectData@@U?$QScopedPointerDeleter@VQObjectData@@@@@@QEBAPEAVQObjectData@@XZ ; QScopedPointer<QObjectData,QScopedPointerDeleter<QObjectData> >::operator->
PUBLIC	?metaObject@wresult@@UEBAPEBUQMetaObject@@XZ	; wresult::metaObject
PUBLIC	?qt_metacast@wresult@@UEAAPEAXPEBD@Z		; wresult::qt_metacast
PUBLIC	?qt_metacall@wresult@@UEAAHW4Call@QMetaObject@@HPEAPEAX@Z ; wresult::qt_metacall
PUBLIC	?qt_static_metacall@wresult@@CAXPEAVQObject@@W4Call@QMetaObject@@HPEAPEAX@Z ; wresult::qt_static_metacall
PUBLIC	?clickedApplyButton@wresult@@QEAAXH@Z		; wresult::clickedApplyButton
PUBLIC	?changedTargetCombo@wresult@@QEAAXH@Z		; wresult::changedTargetCombo
PUBLIC	?staticMetaObject@wresult@@2UQMetaObject@@B	; wresult::staticMetaObject
EXTRN	strcmp:PROC
EXTRN	__imp_?activate@QMetaObject@@SAXPEAVQObject@@PEBU1@HPEAPEAX@Z:PROC
EXTRN	__imp_?dynamicMetaObject@QObjectData@@QEBAPEAUQMetaObject@@XZ:PROC
EXTRN	__imp_?qt_metacast@QWidget@@UEAAPEAXPEBD@Z:PROC
EXTRN	__imp_?qt_metacall@QWidget@@UEAAHW4Call@QMetaObject@@HPEAPEAX@Z:PROC
EXTRN	?ApplyButton@wresult@@AEAAXXZ:PROC		; wresult::ApplyButton
EXTRN	?SelectRadioButton@wresult@@AEAAXXZ:PROC	; wresult::SelectRadioButton
EXTRN	?ChangeTargetCombo@wresult@@AEAAXH@Z:PROC	; wresult::ChangeTargetCombo
EXTRN	__imp_?staticMetaObject@QWidget@@2UQMetaObject@@B:BYTE
_BSS	SEGMENT
?staticMetaObject@wresult@@2UQMetaObject@@B DB 030H DUP (?) ; wresult::staticMetaObject
_BSS	ENDS
pdata	SEGMENT
$pdata$?metaObject@wresult@@UEBAPEBUQMetaObject@@XZ DD imagerel $LN5
	DD	imagerel $LN5+88
	DD	imagerel $unwind$?metaObject@wresult@@UEBAPEBUQMetaObject@@XZ
$pdata$?qt_metacast@wresult@@UEAAPEAXPEBD@Z DD imagerel $LN8
	DD	imagerel $LN8+136
	DD	imagerel $unwind$?qt_metacast@wresult@@UEAAPEAXPEBD@Z
$pdata$?qt_metacall@wresult@@UEAAHW4Call@QMetaObject@@HPEAPEAX@Z DD imagerel $LN9
	DD	imagerel $LN9+174
	DD	imagerel $unwind$?qt_metacall@wresult@@UEAAHW4Call@QMetaObject@@HPEAPEAX@Z
$pdata$?qt_static_metacall@wresult@@CAXPEAVQObject@@W4Call@QMetaObject@@HPEAPEAX@Z DD imagerel $LN22
	DD	imagerel $LN22+559
	DD	imagerel $unwind$?qt_static_metacall@wresult@@CAXPEAVQObject@@W4Call@QMetaObject@@HPEAPEAX@Z
$pdata$?clickedApplyButton@wresult@@QEAAXH@Z DD imagerel $LN3
	DD	imagerel $LN3+63
	DD	imagerel $unwind$?clickedApplyButton@wresult@@QEAAXH@Z
$pdata$?changedTargetCombo@wresult@@QEAAXH@Z DD imagerel $LN3
	DD	imagerel $LN3+66
	DD	imagerel $unwind$?changedTargetCombo@wresult@@QEAAXH@Z
pdata	ENDS
CRT$XCU	SEGMENT
??staticMetaObject$initializer$@wresult@@2P6AXXZEA@@3P6AXXZEA DQ FLAT:??__E?staticMetaObject@wresult@@2UQMetaObject@@B@@YAXXZ ; ??staticMetaObject$initializer$@wresult@@2P6AXXZEA@@3P6AXXZEA
CRT$XCU	ENDS
xdata	SEGMENT
$unwind$?metaObject@wresult@@UEBAPEBUQMetaObject@@XZ DD 010901H
	DD	06209H
$unwind$?qt_metacast@wresult@@UEAAPEAXPEBD@Z DD 010e01H
	DD	0620eH
$unwind$?qt_metacall@wresult@@UEAAHW4Call@QMetaObject@@HPEAPEAX@Z DD 011701H
	DD	04217H
$unwind$?qt_static_metacall@wresult@@CAXPEAVQObject@@W4Call@QMetaObject@@HPEAPEAX@Z DD 011701H
	DD	0c217H
$unwind$?clickedApplyButton@wresult@@QEAAXH@Z DD 010d01H
	DD	0620dH
$unwind$?changedTargetCombo@wresult@@QEAAXH@Z DD 010d01H
	DD	0620dH
xdata	ENDS
; Function compile flags: /Odtp
;	COMDAT ??__E?staticMetaObject@wresult@@2UQMetaObject@@B@@YAXXZ
text$di	SEGMENT
??__E?staticMetaObject@wresult@@2UQMetaObject@@B@@YAXXZ PROC ; `dynamic initializer for 'wresult::staticMetaObject'', COMDAT
; File c:\xdynamics\xdynamics_gui\generatedfiles\debug\moc_xresultwidget.cpp
; Line 116
	mov	rax, QWORD PTR __imp_?staticMetaObject@QWidget@@2UQMetaObject@@B
	mov	QWORD PTR ?staticMetaObject@wresult@@2UQMetaObject@@B, rax
; Line 117
	lea	rax, OFFSET FLAT:?qt_meta_stringdata_wresult@@3Uqt_meta_stringdata_wresult_t@@B
	mov	QWORD PTR ?staticMetaObject@wresult@@2UQMetaObject@@B+8, rax
; Line 118
	lea	rax, OFFSET FLAT:?qt_meta_data_wresult@@3QBIB
	mov	QWORD PTR ?staticMetaObject@wresult@@2UQMetaObject@@B+16, rax
; Line 119
	lea	rax, OFFSET FLAT:?qt_static_metacall@wresult@@CAXPEAVQObject@@W4Call@QMetaObject@@HPEAPEAX@Z ; wresult::qt_static_metacall
	mov	QWORD PTR ?staticMetaObject@wresult@@2UQMetaObject@@B+24, rax
; Line 120
	mov	QWORD PTR ?staticMetaObject@wresult@@2UQMetaObject@@B+32, 0
; Line 121
	mov	QWORD PTR ?staticMetaObject@wresult@@2UQMetaObject@@B+40, 0
	ret	0
??__E?staticMetaObject@wresult@@2UQMetaObject@@B@@YAXXZ ENDP ; `dynamic initializer for 'wresult::staticMetaObject''
text$di	ENDS
; Function compile flags: /Odtp
_TEXT	SEGMENT
_a$ = 32
this$ = 64
_t1$ = 72
?changedTargetCombo@wresult@@QEAAXH@Z PROC		; wresult::changedTargetCombo
; File c:\xdynamics\xdynamics_gui\generatedfiles\debug\moc_xresultwidget.cpp
; Line 166
$LN3:
	mov	DWORD PTR [rsp+16], edx
	mov	QWORD PTR [rsp+8], rcx
	sub	rsp, 56					; 00000038H
; Line 167
	mov	QWORD PTR _a$[rsp], 0
	lea	rax, QWORD PTR _t1$[rsp]
	mov	QWORD PTR _a$[rsp+8], rax
; Line 168
	lea	r9, QWORD PTR _a$[rsp]
	mov	r8d, 1
	lea	rdx, OFFSET FLAT:?staticMetaObject@wresult@@2UQMetaObject@@B ; wresult::staticMetaObject
	mov	rcx, QWORD PTR this$[rsp]
	call	QWORD PTR __imp_?activate@QMetaObject@@SAXPEAVQObject@@PEBU1@HPEAPEAX@Z
; Line 169
	add	rsp, 56					; 00000038H
	ret	0
?changedTargetCombo@wresult@@QEAAXH@Z ENDP		; wresult::changedTargetCombo
_TEXT	ENDS
; Function compile flags: /Odtp
_TEXT	SEGMENT
_a$ = 32
this$ = 64
_t1$ = 72
?clickedApplyButton@wresult@@QEAAXH@Z PROC		; wresult::clickedApplyButton
; File c:\xdynamics\xdynamics_gui\generatedfiles\debug\moc_xresultwidget.cpp
; Line 159
$LN3:
	mov	DWORD PTR [rsp+16], edx
	mov	QWORD PTR [rsp+8], rcx
	sub	rsp, 56					; 00000038H
; Line 160
	mov	QWORD PTR _a$[rsp], 0
	lea	rax, QWORD PTR _t1$[rsp]
	mov	QWORD PTR _a$[rsp+8], rax
; Line 161
	lea	r9, QWORD PTR _a$[rsp]
	xor	r8d, r8d
	lea	rdx, OFFSET FLAT:?staticMetaObject@wresult@@2UQMetaObject@@B ; wresult::staticMetaObject
	mov	rcx, QWORD PTR this$[rsp]
	call	QWORD PTR __imp_?activate@QMetaObject@@SAXPEAVQObject@@PEBU1@HPEAPEAX@Z
; Line 162
	add	rsp, 56					; 00000038H
	ret	0
?clickedApplyButton@wresult@@QEAAXH@Z ENDP		; wresult::clickedApplyButton
_TEXT	ENDS
; Function compile flags: /Odtp
_TEXT	SEGMENT
tv69 = 32
tv139 = 36
tv153 = 40
_t$1 = 48
result$2 = 56
$T3 = 64
$T4 = 80
_o$ = 112
_c$ = 120
_id$ = 128
_a$ = 136
?qt_static_metacall@wresult@@CAXPEAVQObject@@W4Call@QMetaObject@@HPEAPEAX@Z PROC ; wresult::qt_static_metacall
; File c:\xdynamics\xdynamics_gui\generatedfiles\debug\moc_xresultwidget.cpp
; Line 84
$LN22:
	mov	QWORD PTR [rsp+32], r9
	mov	DWORD PTR [rsp+24], r8d
	mov	DWORD PTR [rsp+16], edx
	mov	QWORD PTR [rsp+8], rcx
	sub	rsp, 104				; 00000068H
; Line 85
	cmp	DWORD PTR _c$[rsp], 0
	jne	$LN4@qt_static_
; Line 86
	mov	rax, QWORD PTR _o$[rsp]
	mov	QWORD PTR _t$1[rsp], rax
; Line 88
	mov	eax, DWORD PTR _id$[rsp]
	mov	DWORD PTR tv69[rsp], eax
	cmp	DWORD PTR tv69[rsp], 0
	je	SHORT $LN6@qt_static_
	cmp	DWORD PTR tv69[rsp], 1
	je	SHORT $LN7@qt_static_
	cmp	DWORD PTR tv69[rsp], 2
	je	SHORT $LN8@qt_static_
	cmp	DWORD PTR tv69[rsp], 3
	je	SHORT $LN9@qt_static_
	cmp	DWORD PTR tv69[rsp], 4
	je	SHORT $LN10@qt_static_
	jmp	SHORT $LN11@qt_static_
$LN6@qt_static_:
; Line 89
	mov	eax, 8
	imul	rax, rax, 1
	mov	rcx, QWORD PTR _a$[rsp]
	mov	rax, QWORD PTR [rcx+rax]
	mov	edx, DWORD PTR [rax]
	mov	rcx, QWORD PTR _t$1[rsp]
	call	?clickedApplyButton@wresult@@QEAAXH@Z	; wresult::clickedApplyButton
	jmp	SHORT $LN2@qt_static_
$LN7@qt_static_:
; Line 90
	mov	eax, 8
	imul	rax, rax, 1
	mov	rcx, QWORD PTR _a$[rsp]
	mov	rax, QWORD PTR [rcx+rax]
	mov	edx, DWORD PTR [rax]
	mov	rcx, QWORD PTR _t$1[rsp]
	call	?changedTargetCombo@wresult@@QEAAXH@Z	; wresult::changedTargetCombo
	jmp	SHORT $LN2@qt_static_
$LN8@qt_static_:
; Line 91
	mov	rcx, QWORD PTR _t$1[rsp]
	call	?ApplyButton@wresult@@AEAAXXZ		; wresult::ApplyButton
	jmp	SHORT $LN2@qt_static_
$LN9@qt_static_:
; Line 92
	mov	rcx, QWORD PTR _t$1[rsp]
	call	?SelectRadioButton@wresult@@AEAAXXZ	; wresult::SelectRadioButton
	jmp	SHORT $LN2@qt_static_
$LN10@qt_static_:
; Line 93
	mov	eax, 8
	imul	rax, rax, 1
	mov	rcx, QWORD PTR _a$[rsp]
	mov	rax, QWORD PTR [rcx+rax]
	mov	edx, DWORD PTR [rax]
	mov	rcx, QWORD PTR _t$1[rsp]
	call	?ChangeTargetCombo@wresult@@AEAAXH@Z	; wresult::ChangeTargetCombo
$LN11@qt_static_:
$LN2@qt_static_:
; Line 96
	jmp	$LN5@qt_static_
$LN4@qt_static_:
	cmp	DWORD PTR _c$[rsp], 10
	jne	$LN12@qt_static_
; Line 97
	mov	eax, 8
	imul	rax, rax, 0
	mov	rcx, QWORD PTR _a$[rsp]
	mov	rax, QWORD PTR [rcx+rax]
	mov	QWORD PTR result$2[rsp], rax
; Line 100
	lea	rax, OFFSET FLAT:?clickedApplyButton@wresult@@QEAAXH@Z ; wresult::clickedApplyButton
	mov	QWORD PTR $T3[rsp], rax
	mov	DWORD PTR $T3[rsp+8], 0
	mov	eax, 8
	imul	rax, rax, 1
	mov	rcx, QWORD PTR _a$[rsp]
	mov	rax, QWORD PTR [rcx+rax]
	mov	rcx, QWORD PTR $T3[rsp]
	cmp	QWORD PTR [rax], rcx
	jne	SHORT $LN17@qt_static_
	mov	eax, 8
	imul	rax, rax, 1
	mov	rcx, QWORD PTR _a$[rsp]
	mov	rax, QWORD PTR [rcx+rax]
	cmp	QWORD PTR [rax], 0
	je	SHORT $LN16@qt_static_
	mov	eax, 8
	imul	rax, rax, 1
	mov	rcx, QWORD PTR _a$[rsp]
	mov	rax, QWORD PTR [rcx+rax]
	mov	ecx, DWORD PTR $T3[rsp+8]
	cmp	DWORD PTR [rax+8], ecx
	jne	SHORT $LN17@qt_static_
$LN16@qt_static_:
	mov	DWORD PTR tv139[rsp], 1
	jmp	SHORT $LN18@qt_static_
$LN17@qt_static_:
	mov	DWORD PTR tv139[rsp], 0
$LN18@qt_static_:
	cmp	DWORD PTR tv139[rsp], 0
	je	SHORT $LN13@qt_static_
; Line 101
	mov	rax, QWORD PTR result$2[rsp]
	mov	DWORD PTR [rax], 0
; Line 102
	jmp	$LN1@qt_static_
$LN13@qt_static_:
; Line 107
	lea	rax, OFFSET FLAT:?changedTargetCombo@wresult@@QEAAXH@Z ; wresult::changedTargetCombo
	mov	QWORD PTR $T4[rsp], rax
	mov	DWORD PTR $T4[rsp+8], 0
	mov	eax, 8
	imul	rax, rax, 1
	mov	rcx, QWORD PTR _a$[rsp]
	mov	rax, QWORD PTR [rcx+rax]
	mov	rcx, QWORD PTR $T4[rsp]
	cmp	QWORD PTR [rax], rcx
	jne	SHORT $LN20@qt_static_
	mov	eax, 8
	imul	rax, rax, 1
	mov	rcx, QWORD PTR _a$[rsp]
	mov	rax, QWORD PTR [rcx+rax]
	cmp	QWORD PTR [rax], 0
	je	SHORT $LN19@qt_static_
	mov	eax, 8
	imul	rax, rax, 1
	mov	rcx, QWORD PTR _a$[rsp]
	mov	rax, QWORD PTR [rcx+rax]
	mov	ecx, DWORD PTR $T4[rsp+8]
	cmp	DWORD PTR [rax+8], ecx
	jne	SHORT $LN20@qt_static_
$LN19@qt_static_:
	mov	DWORD PTR tv153[rsp], 1
	jmp	SHORT $LN21@qt_static_
$LN20@qt_static_:
	mov	DWORD PTR tv153[rsp], 0
$LN21@qt_static_:
	cmp	DWORD PTR tv153[rsp], 0
	je	SHORT $LN14@qt_static_
; Line 108
	mov	rax, QWORD PTR result$2[rsp]
	mov	DWORD PTR [rax], 1
$LN14@qt_static_:
$LN12@qt_static_:
$LN5@qt_static_:
$LN1@qt_static_:
; Line 113
	add	rsp, 104				; 00000068H
	ret	0
?qt_static_metacall@wresult@@CAXPEAVQObject@@W4Call@QMetaObject@@HPEAPEAX@Z ENDP ; wresult::qt_static_metacall
_TEXT	ENDS
; Function compile flags: /Odtp
_TEXT	SEGMENT
this$ = 48
_c$ = 56
_id$ = 64
_a$ = 72
?qt_metacall@wresult@@UEAAHW4Call@QMetaObject@@HPEAPEAX@Z PROC ; wresult::qt_metacall
; File c:\xdynamics\xdynamics_gui\generatedfiles\debug\moc_xresultwidget.cpp
; Line 141
$LN9:
	mov	QWORD PTR [rsp+32], r9
	mov	DWORD PTR [rsp+24], r8d
	mov	DWORD PTR [rsp+16], edx
	mov	QWORD PTR [rsp+8], rcx
	sub	rsp, 40					; 00000028H
; Line 142
	mov	r9, QWORD PTR _a$[rsp]
	mov	r8d, DWORD PTR _id$[rsp]
	mov	edx, DWORD PTR _c$[rsp]
	mov	rcx, QWORD PTR this$[rsp]
	call	QWORD PTR __imp_?qt_metacall@QWidget@@UEAAHW4Call@QMetaObject@@HPEAPEAX@Z
	mov	DWORD PTR _id$[rsp], eax
; Line 143
	cmp	DWORD PTR _id$[rsp], 0
	jge	SHORT $LN2@qt_metacal
; Line 144
	mov	eax, DWORD PTR _id$[rsp]
	jmp	SHORT $LN1@qt_metacal
$LN2@qt_metacal:
; Line 145
	cmp	DWORD PTR _c$[rsp], 0
	jne	SHORT $LN3@qt_metacal
; Line 146
	cmp	DWORD PTR _id$[rsp], 5
	jge	SHORT $LN5@qt_metacal
; Line 147
	mov	r9, QWORD PTR _a$[rsp]
	mov	r8d, DWORD PTR _id$[rsp]
	mov	edx, DWORD PTR _c$[rsp]
	mov	rcx, QWORD PTR this$[rsp]
	call	?qt_static_metacall@wresult@@CAXPEAVQObject@@W4Call@QMetaObject@@HPEAPEAX@Z ; wresult::qt_static_metacall
$LN5@qt_metacal:
; Line 148
	mov	eax, DWORD PTR _id$[rsp]
	sub	eax, 5
	mov	DWORD PTR _id$[rsp], eax
	jmp	SHORT $LN4@qt_metacal
$LN3@qt_metacal:
; Line 149
	cmp	DWORD PTR _c$[rsp], 12
	jne	SHORT $LN6@qt_metacal
; Line 150
	cmp	DWORD PTR _id$[rsp], 5
	jge	SHORT $LN7@qt_metacal
; Line 151
	mov	eax, 8
	imul	rax, rax, 0
	mov	rcx, QWORD PTR _a$[rsp]
	mov	rax, QWORD PTR [rcx+rax]
	mov	DWORD PTR [rax], -1
$LN7@qt_metacal:
; Line 152
	mov	eax, DWORD PTR _id$[rsp]
	sub	eax, 5
	mov	DWORD PTR _id$[rsp], eax
$LN6@qt_metacal:
$LN4@qt_metacal:
; Line 154
	mov	eax, DWORD PTR _id$[rsp]
$LN1@qt_metacal:
; Line 155
	add	rsp, 40					; 00000028H
	ret	0
?qt_metacall@wresult@@UEAAHW4Call@QMetaObject@@HPEAPEAX@Z ENDP ; wresult::qt_metacall
_TEXT	ENDS
; Function compile flags: /Odtp
_TEXT	SEGMENT
tv77 = 32
this$ = 64
_clname$ = 72
?qt_metacast@wresult@@UEAAPEAXPEBD@Z PROC		; wresult::qt_metacast
; File c:\xdynamics\xdynamics_gui\generatedfiles\debug\moc_xresultwidget.cpp
; Line 131
$LN8:
	mov	QWORD PTR [rsp+16], rdx
	mov	QWORD PTR [rsp+8], rcx
	sub	rsp, 56					; 00000038H
; Line 132
	cmp	QWORD PTR _clname$[rsp], 0
	jne	SHORT $LN2@qt_metacas
	xor	eax, eax
	jmp	SHORT $LN1@qt_metacas
$LN2@qt_metacas:
; Line 133
	lea	rdx, OFFSET FLAT:?qt_meta_stringdata_wresult@@3Uqt_meta_stringdata_wresult_t@@B+168
	mov	rcx, QWORD PTR _clname$[rsp]
	call	strcmp
	test	eax, eax
	jne	SHORT $LN3@qt_metacas
; Line 134
	mov	rax, QWORD PTR this$[rsp]
	jmp	SHORT $LN1@qt_metacas
$LN3@qt_metacas:
; Line 135
	lea	rdx, OFFSET FLAT:$SG147903
	mov	rcx, QWORD PTR _clname$[rsp]
	call	strcmp
	test	eax, eax
	jne	SHORT $LN4@qt_metacas
; Line 136
	cmp	QWORD PTR this$[rsp], 0
	je	SHORT $LN6@qt_metacas
	mov	rax, QWORD PTR this$[rsp]
	add	rax, 48					; 00000030H
	mov	QWORD PTR tv77[rsp], rax
	jmp	SHORT $LN7@qt_metacas
$LN6@qt_metacas:
	mov	QWORD PTR tv77[rsp], 0
$LN7@qt_metacas:
	mov	rax, QWORD PTR tv77[rsp]
	jmp	SHORT $LN1@qt_metacas
$LN4@qt_metacas:
; Line 137
	mov	rdx, QWORD PTR _clname$[rsp]
	mov	rcx, QWORD PTR this$[rsp]
	call	QWORD PTR __imp_?qt_metacast@QWidget@@UEAAPEAXPEBD@Z
$LN1@qt_metacas:
; Line 138
	add	rsp, 56					; 00000038H
	ret	0
?qt_metacast@wresult@@UEAAPEAXPEBD@Z ENDP		; wresult::qt_metacast
_TEXT	ENDS
; Function compile flags: /Odtp
_TEXT	SEGMENT
tv82 = 32
this$ = 64
?metaObject@wresult@@UEBAPEBUQMetaObject@@XZ PROC	; wresult::metaObject
; File c:\xdynamics\xdynamics_gui\generatedfiles\debug\moc_xresultwidget.cpp
; Line 126
$LN5:
	mov	QWORD PTR [rsp+8], rcx
	sub	rsp, 56					; 00000038H
; Line 127
	mov	rax, QWORD PTR this$[rsp]
	add	rax, 8
	mov	rcx, rax
	call	??C?$QScopedPointer@VQObjectData@@U?$QScopedPointerDeleter@VQObjectData@@@@@@QEBAPEAVQObjectData@@XZ ; QScopedPointer<QObjectData,QScopedPointerDeleter<QObjectData> >::operator->
	cmp	QWORD PTR [rax+40], 0
	je	SHORT $LN3@metaObject
	mov	rax, QWORD PTR this$[rsp]
	add	rax, 8
	mov	rcx, rax
	call	??C?$QScopedPointer@VQObjectData@@U?$QScopedPointerDeleter@VQObjectData@@@@@@QEBAPEAVQObjectData@@XZ ; QScopedPointer<QObjectData,QScopedPointerDeleter<QObjectData> >::operator->
	mov	rcx, rax
	call	QWORD PTR __imp_?dynamicMetaObject@QObjectData@@QEBAPEAUQMetaObject@@XZ
	mov	QWORD PTR tv82[rsp], rax
	jmp	SHORT $LN4@metaObject
$LN3@metaObject:
	lea	rax, OFFSET FLAT:?staticMetaObject@wresult@@2UQMetaObject@@B ; wresult::staticMetaObject
	mov	QWORD PTR tv82[rsp], rax
$LN4@metaObject:
	mov	rax, QWORD PTR tv82[rsp]
; Line 128
	add	rsp, 56					; 00000038H
	ret	0
?metaObject@wresult@@UEBAPEBUQMetaObject@@XZ ENDP	; wresult::metaObject
_TEXT	ENDS
; Function compile flags: /Odtp
;	COMDAT ??C?$QScopedPointer@VQObjectData@@U?$QScopedPointerDeleter@VQObjectData@@@@@@QEBAPEAVQObjectData@@XZ
_TEXT	SEGMENT
this$ = 8
??C?$QScopedPointer@VQObjectData@@U?$QScopedPointerDeleter@VQObjectData@@@@@@QEBAPEAVQObjectData@@XZ PROC ; QScopedPointer<QObjectData,QScopedPointerDeleter<QObjectData> >::operator->, COMDAT
; File c:\qt\5.12.6\msvc2017_64\include\qtcore\qscopedpointer.h
; Line 117
	mov	QWORD PTR [rsp+8], rcx
; Line 118
	mov	rax, QWORD PTR this$[rsp]
	mov	rax, QWORD PTR [rax]
; Line 119
	ret	0
??C?$QScopedPointer@VQObjectData@@U?$QScopedPointerDeleter@VQObjectData@@@@@@QEBAPEAVQObjectData@@XZ ENDP ; QScopedPointer<QObjectData,QScopedPointerDeleter<QObjectData> >::operator->
_TEXT	ENDS
; Function compile flags: /Odtp
;	COMDAT ?__empty_global_delete@@YAXPEAX_K@Z
_TEXT	SEGMENT
__formal$ = 8
__formal$ = 16
?__empty_global_delete@@YAXPEAX_K@Z PROC		; __empty_global_delete, COMDAT
; File c:\xdynamics\xdynamics_gui\generatedfiles\debug\moc_xresultwidget.cpp
; Line 172
	mov	QWORD PTR [rsp+16], rdx
	mov	QWORD PTR [rsp+8], rcx
	ret	0
?__empty_global_delete@@YAXPEAX_K@Z ENDP		; __empty_global_delete
_TEXT	ENDS
; Function compile flags: /Odtp
;	COMDAT ?__empty_global_delete@@YAXPEAX@Z
_TEXT	SEGMENT
__formal$ = 8
?__empty_global_delete@@YAXPEAX@Z PROC			; __empty_global_delete, COMDAT
; File c:\xdynamics\xdynamics_gui\generatedfiles\debug\moc_xresultwidget.cpp
; Line 172
	mov	QWORD PTR [rsp+8], rcx
	ret	0
?__empty_global_delete@@YAXPEAX@Z ENDP			; __empty_global_delete
_TEXT	ENDS
END
