; Listing generated by Microsoft (R) Optimizing Compiler Version 19.16.27034.0 

include listing.inc

INCLUDELIB MSVCRTD
INCLUDELIB OLDNAMES

CONST	SEGMENT
$SG265332 DB	'c:\qt\5.12.3\msvc2017_64\include\qtcore\qmetatype.h', 00H
	ORG $+12
$SG265333 DB	'qRegisterNormalizedMetaType was called with a not normal'
	DB	'ized type name, please call qRegisterMetaType instead.', 00H
	ORG $+1
$SG265334 DB	'qRegisterNormalizedMetaType', 00H
	ORG $+4
$SG265701 DB	'c:\qt\5.12.3\msvc2017_64\include\qtcore\qmetatype.h', 00H
	ORG $+12
$SG265702 DB	'qRegisterNormalizedMetaType was called with a not normal'
	DB	'ized type name, please call qRegisterMetaType instead.', 00H
	ORG $+1
$SG265703 DB	'qRegisterNormalizedMetaType', 00H
	ORG $+4
?qt_meta_stringdata_xGLWidget@@3Uqt_meta_stringdata_xGLWidget_t@@B DD 0ffffffffH ; qt_meta_stringdata_xGLWidget
	DD	09H
	DD	00H
	ORG $+4
	DQ	00000000000001e0H
	DD	0ffffffffH
	DD	010H
	DD	00H
	ORG $+4
	DQ	00000000000001d2H
	DD	0ffffffffH
	DD	00H
	DD	00H
	ORG $+4
	DQ	00000000000001cbH
	DD	0ffffffffH
	DD	05H
	DD	00H
	ORG $+4
	DQ	00000000000001b4H
	DD	0ffffffffH
	DD	010H
	DD	00H
	ORG $+4
	DQ	00000000000001a2H
	DD	0ffffffffH
	DD	010H
	DD	00H
	ORG $+4
	DQ	000000000000019bH
	DD	0ffffffffH
	DD	015H
	DD	00H
	ORG $+4
	DQ	0000000000000194H
	DD	0ffffffffH
	DD	017H
	DD	00H
	ORG $+4
	DQ	0000000000000192H
	DD	0ffffffffH
	DD	010H
	DD	00H
	ORG $+4
	DQ	0000000000000192H
	DD	0ffffffffH
	DD	0dH
	DD	00H
	ORG $+4
	DQ	000000000000018bH
	DD	0ffffffffH
	DD	0fH
	DD	00H
	ORG $+4
	DQ	0000000000000181H
	DD	0ffffffffH
	DD	07H
	DD	00H
	ORG $+4
	DQ	0000000000000179H
	DD	0ffffffffH
	DD	0cH
	DD	00H
	ORG $+4
	DQ	0000000000000169H
	DD	0ffffffffH
	DD	0cH
	DD	00H
	ORG $+4
	DQ	000000000000015eH
	DD	0ffffffffH
	DD	0cH
	DD	00H
	ORG $+4
	DQ	0000000000000153H
	DD	0ffffffffH
	DD	0fH
	DD	00H
	ORG $+4
	DQ	0000000000000148H
	DD	0ffffffffH
	DD	03H
	DD	00H
	ORG $+4
	DQ	0000000000000140H
	DD	0ffffffffH
	DD	0eH
	DD	00H
	ORG $+4
	DQ	000000000000012cH
	DD	0ffffffffH
	DD	024H
	DD	00H
	ORG $+4
	DQ	0000000000000123H
	DD	0ffffffffH
	DD	01H
	DD	00H
	ORG $+4
	DQ	0000000000000130H
	DB	078H
	DB	047H
	DB	04cH
	DB	057H
	DB	069H
	DB	064H
	DB	067H
	DB	065H
	DB	074H
	DB	00H
	DB	078H
	DB	052H
	DB	06fH
	DB	074H
	DB	061H
	DB	074H
	DB	069H
	DB	06fH
	DB	06eH
	DB	043H
	DB	068H
	DB	061H
	DB	06eH
	DB	067H
	DB	065H
	DB	064H
	DB	00H
	DB	00H
	DB	061H
	DB	06eH
	DB	067H
	DB	06cH
	DB	065H
	DB	00H
	DB	079H
	DB	052H
	DB	06fH
	DB	074H
	DB	061H
	DB	074H
	DB	069H
	DB	06fH
	DB	06eH
	DB	043H
	DB	068H
	DB	061H
	DB	06eH
	DB	067H
	DB	065H
	DB	064H
	DB	00H
	DB	07aH
	DB	052H
	DB	06fH
	DB	074H
	DB	061H
	DB	074H
	DB	069H
	DB	06fH
	DB	06eH
	DB	043H
	DB	068H
	DB	061H
	DB	06eH
	DB	067H
	DB	065H
	DB	064H
	DB	00H
	DB	063H
	DB	068H
	DB	061H
	DB	06eH
	DB	067H
	DB	065H
	DB	064H
	DB	041H
	DB	06eH
	DB	069H
	DB	06dH
	DB	061H
	DB	074H
	DB	069H
	DB	06fH
	DB	06eH
	DB	046H
	DB	072H
	DB	061H
	DB	06dH
	DB	065H
	DB	00H
	DB	073H
	DB	069H
	DB	067H
	DB	06eH
	DB	061H
	DB	06cH
	DB	047H
	DB	065H
	DB	06fH
	DB	06dH
	DB	065H
	DB	074H
	DB	072H
	DB	079H
	DB	053H
	DB	065H
	DB	06cH
	DB	065H
	DB	063H
	DB	074H
	DB	069H
	DB	06fH
	DB	06eH
	DB	00H
	DB	072H
	DB	065H
	DB	06cH
	DB	065H
	DB	061H
	DB	073H
	DB	065H
	DB	04fH
	DB	070H
	DB	065H
	DB	072H
	DB	061H
	DB	074H
	DB	069H
	DB	06fH
	DB	06eH
	DB	00H
	DB	063H
	DB	06fH
	DB	06eH
	DB	074H
	DB	065H
	DB	078H
	DB	074H
	DB	053H
	DB	069H
	DB	067H
	DB	06eH
	DB	061H
	DB	06cH
	DB	00H
	DB	063H
	DB	06fH
	DB	06eH
	DB	074H
	DB	065H
	DB	078H
	DB	074H
	DB	04dH
	DB	065H
	DB	06eH
	DB	075H
	DB	054H
	DB	079H
	DB	070H
	DB	065H
	DB	00H
	DB	066H
	DB	069H
	DB	074H
	DB	056H
	DB	069H
	DB	065H
	DB	077H
	DB	00H
	DB	073H
	DB	065H
	DB	074H
	DB	058H
	DB	052H
	DB	06fH
	DB	074H
	DB	061H
	DB	074H
	DB	069H
	DB	06fH
	DB	06eH
	DB	00H
	DB	073H
	DB	065H
	DB	074H
	DB	059H
	DB	052H
	DB	06fH
	DB	074H
	DB	061H
	DB	074H
	DB	069H
	DB	06fH
	DB	06eH
	DB	00H
	DB	073H
	DB	065H
	DB	074H
	DB	05aH
	DB	052H
	DB	06fH
	DB	074H
	DB	061H
	DB	074H
	DB	069H
	DB	06fH
	DB	06eH
	DB	00H
	DB	053H
	DB	068H
	DB	06fH
	DB	077H
	DB	043H
	DB	06fH
	DB	06eH
	DB	074H
	DB	065H
	DB	078H
	DB	074H
	DB	04dH
	DB	065H
	DB	06eH
	DB	075H
	DB	00H
	DB	070H
	DB	06fH
	DB	073H
	DB	00H
	DB	073H
	DB	065H
	DB	074H
	DB	053H
	DB	06bH
	DB	065H
	DB	074H
	DB	063H
	DB	068H
	DB	053H
	DB	070H
	DB	061H
	DB	063H
	DB	065H
	DB	00H
	DB	073H
	DB	065H
	DB	074H
	DB	075H
	DB	070H
	DB	050H
	DB	061H
	DB	072H
	DB	074H
	DB	069H
	DB	063H
	DB	06cH
	DB	065H
	DB	042H
	DB	075H
	DB	066H
	DB	066H
	DB	065H
	DB	072H
	DB	043H
	DB	06fH
	DB	06cH
	DB	06fH
	DB	072H
	DB	044H
	DB	069H
	DB	073H
	DB	074H
	DB	072H
	DB	069H
	DB	062H
	DB	075H
	DB	074H
	DB	069H
	DB	06fH
	DB	06eH
	DB	00H
	DB	06eH
	DB	00H
	ORG $+6
?qt_meta_data_xGLWidget@@3QBIB DD 08H			; qt_meta_data_xGLWidget
	DD	00H
	DD	00H
	DD	00H
	DD	0fH
	DD	0eH
	DD	00H
	DD	00H
	DD	00H
	DD	00H
	DD	00H
	DD	00H
	DD	00H
	DD	07H
	DD	01H
	DD	01H
	DD	059H
	DD	02H
	DD	06H
	DD	04H
	DD	01H
	DD	05cH
	DD	02H
	DD	06H
	DD	05H
	DD	01H
	DD	05fH
	DD	02H
	DD	06H
	DD	06H
	DD	00H
	DD	062H
	DD	02H
	DD	06H
	DD	07H
	DD	01H
	DD	063H
	DD	02H
	DD	06H
	DD	08H
	DD	00H
	DD	066H
	DD	02H
	DD	06H
	DD	09H
	DD	02H
	DD	067H
	DD	02H
	DD	06H
	DD	0bH
	DD	00H
	DD	06cH
	DD	02H
	DD	0aH
	DD	0cH
	DD	01H
	DD	06dH
	DD	02H
	DD	0aH
	DD	0dH
	DD	01H
	DD	070H
	DD	02H
	DD	0aH
	DD	0eH
	DD	01H
	DD	073H
	DD	02H
	DD	0aH
	DD	0fH
	DD	01H
	DD	076H
	DD	02H
	DD	0aH
	DD	011H
	DD	00H
	DD	079H
	DD	02H
	DD	0aH
	DD	012H
	DD	01H
	DD	07aH
	DD	02H
	DD	0aH
	DD	012H
	DD	00H
	DD	07dH
	DD	02H
	DD	02aH
	DD	02bH
	DD	02H
	DD	03H
	DD	02bH
	DD	02H
	DD	03H
	DD	02bH
	DD	02H
	DD	03H
	DD	02bH
	DD	02bH
	DD	0aH
	DD	02H
	DD	02bH
	DD	02bH
	DD	0aH
	DD	08000000aH
	DD	02H
	DD	02H
	DD	02bH
	DD	02bH
	DD	02H
	DD	03H
	DD	02bH
	DD	02H
	DD	03H
	DD	02bH
	DD	02H
	DD	03H
	DD	02bH
	DD	019H
	DD	010H
	DD	02bH
	DD	02bH
	DD	02H
	DD	013H
	DD	02bH
	DD	00H
	ORG $+4
$SG266070 DB	'c:\qt\5.12.3\msvc2017_64\include\qtcore\qmetatype.h', 00H
	ORG $+12
$SG266071 DB	'qRegisterNormalizedMetaType was called with a not normal'
	DB	'ized type name, please call qRegisterMetaType instead.', 00H
	ORG $+1
$SG266072 DB	'qRegisterNormalizedMetaType', 00H
	ORG $+4
$SG266488 DB	'c:\qt\5.12.3\msvc2017_64\include\qtcore\qmetatype.h', 00H
	ORG $+12
$SG266489 DB	'qRegisterNormalizedMetaType was called with a not normal'
	DB	'ized type name, please call qRegisterMetaType instead.', 00H
	ORG $+1
$SG266490 DB	'qRegisterNormalizedMetaType', 00H
	ORG $+4
$SG267332 DB	'c:\qt\5.12.3\msvc2017_64\include\qtcore\qmetatype.h', 00H
	ORG $+12
$SG267333 DB	'qRegisterNormalizedMetaType was called with a not normal'
	DB	'ized type name, please call qRegisterMetaType instead.', 00H
	ORG $+1
$SG267334 DB	'qRegisterNormalizedMetaType', 00H
	ORG $+4
$SG261913 DB	'c:\qt\5.12.3\msvc2017_64\include\qtcore\qmetatype.h', 00H
	ORG $+12
$SG261914 DB	'qRegisterNormalizedMetaType was called with a not normal'
	DB	'ized type name, please call qRegisterMetaType instead.', 00H
	ORG $+1
$SG261915 DB	'qRegisterNormalizedMetaType', 00H
CONST	ENDS
PUBLIC	?__empty_global_delete@@YAXPEAX@Z		; __empty_global_delete
PUBLIC	?__empty_global_delete@@YAXPEAX_K@Z		; __empty_global_delete
PUBLIC	??C?$QScopedPointer@VQObjectData@@U?$QScopedPointerDeleter@VQObjectData@@@@@@QEBAPEAVQObjectData@@XZ ; QScopedPointer<QObjectData,QScopedPointerDeleter<QObjectData> >::operator->
PUBLIC	??0xvGlew@@QEAA@XZ				; xvGlew::xvGlew
PUBLIC	??1xvGlew@@QEAA@XZ				; xvGlew::~xvGlew
PUBLIC	?metaObject@xGLWidget@@UEBAPEBUQMetaObject@@XZ	; xGLWidget::metaObject
PUBLIC	?qt_metacast@xGLWidget@@UEAAPEAXPEBD@Z		; xGLWidget::qt_metacast
PUBLIC	?qt_metacall@xGLWidget@@UEAAHW4Call@QMetaObject@@HPEAPEAX@Z ; xGLWidget::qt_metacall
PUBLIC	?qt_static_metacall@xGLWidget@@CAXPEAVQObject@@W4Call@QMetaObject@@HPEAPEAX@Z ; xGLWidget::qt_static_metacall
PUBLIC	?xRotationChanged@xGLWidget@@QEAAXH@Z		; xGLWidget::xRotationChanged
PUBLIC	?yRotationChanged@xGLWidget@@QEAAXH@Z		; xGLWidget::yRotationChanged
PUBLIC	?zRotationChanged@xGLWidget@@QEAAXH@Z		; xGLWidget::zRotationChanged
PUBLIC	?changedAnimationFrame@xGLWidget@@QEAAXXZ	; xGLWidget::changedAnimationFrame
PUBLIC	?signalGeometrySelection@xGLWidget@@QEAAXVQString@@@Z ; xGLWidget::signalGeometrySelection
PUBLIC	?releaseOperation@xGLWidget@@QEAAXXZ		; xGLWidget::releaseOperation
PUBLIC	?contextSignal@xGLWidget@@QEAAXVQString@@W4contextMenuType@@@Z ; xGLWidget::contextSignal
PUBLIC	?staticMetaObject@xGLWidget@@2UQMetaObject@@B	; xGLWidget::staticMetaObject
EXTRN	atexit:PROC
EXTRN	__imp_glewInit:PROC
EXTRN	strcmp:PROC
EXTRN	__imp_?activate@QMetaObject@@SAXPEAVQObject@@PEBU1@HPEAPEAX@Z:PROC
EXTRN	__imp_??0QString@@QEAA@AEBV0@@Z:PROC
EXTRN	__imp_??1QString@@QEAA@XZ:PROC
EXTRN	__imp_?dynamicMetaObject@QObjectData@@QEBAPEAUQMetaObject@@XZ:PROC
EXTRN	__imp_?qt_metacast@QGLWidget@@UEAAPEAXPEBD@Z:PROC
EXTRN	__imp_?qt_metacall@QGLWidget@@UEAAHW4Call@QMetaObject@@HPEAPEAX@Z:PROC
EXTRN	?fitView@xGLWidget@@QEAAXXZ:PROC		; xGLWidget::fitView
EXTRN	?setXRotation@xGLWidget@@QEAAXH@Z:PROC		; xGLWidget::setXRotation
EXTRN	?setYRotation@xGLWidget@@QEAAXH@Z:PROC		; xGLWidget::setYRotation
EXTRN	?setZRotation@xGLWidget@@QEAAXH@Z:PROC		; xGLWidget::setZRotation
EXTRN	?ShowContextMenu@xGLWidget@@QEAAXAEBVQPoint@@@Z:PROC ; xGLWidget::ShowContextMenu
EXTRN	?setSketchSpace@xGLWidget@@QEAAXXZ:PROC		; xGLWidget::setSketchSpace
EXTRN	?setupParticleBufferColorDistribution@xGLWidget@@QEAAXH@Z:PROC ; xGLWidget::setupParticleBufferColorDistribution
EXTRN	__CxxFrameHandler3:PROC
EXTRN	__GSHandlerCheck_EH:PROC
EXTRN	__security_check_cookie:PROC
EXTRN	__imp_?staticMetaObject@QGLWidget@@2UQMetaObject@@B:BYTE
EXTRN	__ImageBase:BYTE
EXTRN	__security_cookie:QWORD
_BSS	SEGMENT
?g_vglew@@3VxvGlew@@A DB 01H DUP (?)			; g_vglew
	ALIGN	4

?staticMetaObject@xGLWidget@@2UQMetaObject@@B DB 030H DUP (?) ; xGLWidget::staticMetaObject
_BSS	ENDS
;	COMDAT pdata
pdata	SEGMENT
$pdata$??0xvGlew@@QEAA@XZ DD imagerel $LN3
	DD	imagerel $LN3+41
	DD	imagerel $unwind$??0xvGlew@@QEAA@XZ
pdata	ENDS
;	COMDAT pdata
pdata	SEGMENT
$pdata$??__Eg_vglew@@YAXXZ DD imagerel ??__Eg_vglew@@YAXXZ
	DD	imagerel ??__Eg_vglew@@YAXXZ+33
	DD	imagerel $unwind$??__Eg_vglew@@YAXXZ
pdata	ENDS
;	COMDAT pdata
pdata	SEGMENT
$pdata$??__Fg_vglew@@YAXXZ DD imagerel ??__Fg_vglew@@YAXXZ
	DD	imagerel ??__Fg_vglew@@YAXXZ+21
	DD	imagerel $unwind$??__Fg_vglew@@YAXXZ
pdata	ENDS
pdata	SEGMENT
$pdata$?metaObject@xGLWidget@@UEBAPEBUQMetaObject@@XZ DD imagerel $LN5
	DD	imagerel $LN5+88
	DD	imagerel $unwind$?metaObject@xGLWidget@@UEBAPEBUQMetaObject@@XZ
$pdata$?qt_metacast@xGLWidget@@UEAAPEAXPEBD@Z DD imagerel $LN5
	DD	imagerel $LN5+75
	DD	imagerel $unwind$?qt_metacast@xGLWidget@@UEAAPEAXPEBD@Z
$pdata$?qt_metacall@xGLWidget@@UEAAHW4Call@QMetaObject@@HPEAPEAX@Z DD imagerel $LN9
	DD	imagerel $LN9+174
	DD	imagerel $unwind$?qt_metacall@xGLWidget@@UEAAHW4Call@QMetaObject@@HPEAPEAX@Z
$pdata$?qt_static_metacall@xGLWidget@@CAXPEAVQObject@@W4Call@QMetaObject@@HPEAPEAX@Z DD imagerel $LN55
	DD	imagerel $LN55+1868
	DD	imagerel $unwind$?qt_static_metacall@xGLWidget@@CAXPEAVQObject@@W4Call@QMetaObject@@HPEAPEAX@Z
$pdata$?xRotationChanged@xGLWidget@@QEAAXH@Z DD imagerel $LN3
	DD	imagerel $LN3+63
	DD	imagerel $unwind$?xRotationChanged@xGLWidget@@QEAAXH@Z
$pdata$?yRotationChanged@xGLWidget@@QEAAXH@Z DD imagerel $LN3
	DD	imagerel $LN3+66
	DD	imagerel $unwind$?yRotationChanged@xGLWidget@@QEAAXH@Z
$pdata$?zRotationChanged@xGLWidget@@QEAAXH@Z DD imagerel $LN3
	DD	imagerel $LN3+66
	DD	imagerel $unwind$?zRotationChanged@xGLWidget@@QEAAXH@Z
$pdata$?changedAnimationFrame@xGLWidget@@QEAAXXZ DD imagerel $LN3
	DD	imagerel $LN3+41
	DD	imagerel $unwind$?changedAnimationFrame@xGLWidget@@QEAAXXZ
$pdata$?signalGeometrySelection@xGLWidget@@QEAAXVQString@@@Z DD imagerel $LN4
	DD	imagerel $LN4+88
	DD	imagerel $unwind$?signalGeometrySelection@xGLWidget@@QEAAXVQString@@@Z
pdata	ENDS
pdata	SEGMENT
$pdata$?dtor$0@?0??signalGeometrySelection@xGLWidget@@QEAAXVQString@@@Z@4HA DD imagerel ?dtor$0@?0??signalGeometrySelection@xGLWidget@@QEAAXVQString@@@Z@4HA
	DD	imagerel ?dtor$0@?0??signalGeometrySelection@xGLWidget@@QEAAXVQString@@@Z@4HA+25
	DD	imagerel $unwind$?dtor$0@?0??signalGeometrySelection@xGLWidget@@QEAAXVQString@@@Z@4HA
pdata	ENDS
pdata	SEGMENT
$pdata$?releaseOperation@xGLWidget@@QEAAXXZ DD imagerel $LN3
	DD	imagerel $LN3+41
	DD	imagerel $unwind$?releaseOperation@xGLWidget@@QEAAXXZ
$pdata$?contextSignal@xGLWidget@@QEAAXVQString@@W4contextMenuType@@@Z DD imagerel $LN4
	DD	imagerel $LN4+131
	DD	imagerel $unwind$?contextSignal@xGLWidget@@QEAAXVQString@@W4contextMenuType@@@Z
pdata	ENDS
pdata	SEGMENT
$pdata$?dtor$0@?0??contextSignal@xGLWidget@@QEAAXVQString@@W4contextMenuType@@@Z@4HA DD imagerel ?dtor$0@?0??contextSignal@xGLWidget@@QEAAXVQString@@W4contextMenuType@@@Z@4HA
	DD	imagerel ?dtor$0@?0??contextSignal@xGLWidget@@QEAAXVQString@@W4contextMenuType@@@Z@4HA+25
	DD	imagerel $unwind$?dtor$0@?0??contextSignal@xGLWidget@@QEAAXVQString@@W4contextMenuType@@@Z@4HA
pdata	ENDS
CRT$XCU	SEGMENT
?g_vglew$initializer$@@3P6AXXZEA DQ FLAT:??__Eg_vglew@@YAXXZ ; g_vglew$initializer$
CRT$XCU	ENDS
CONST	SEGMENT
	ORG $+4
$cppxdata$?signalGeometrySelection@xGLWidget@@QEAAXVQString@@@Z DD 019930522H
	DD	01H
	DD	imagerel $stateUnwindMap$?signalGeometrySelection@xGLWidget@@QEAAXVQString@@@Z
	DD	00H
	DD	00H
	DD	03H
	DD	imagerel $ip2state$?signalGeometrySelection@xGLWidget@@QEAAXVQString@@@Z
	DD	020H
	DD	00H
	DD	01H
$cppxdata$?contextSignal@xGLWidget@@QEAAXVQString@@W4contextMenuType@@@Z DD 019930522H
	DD	01H
	DD	imagerel $stateUnwindMap$?contextSignal@xGLWidget@@QEAAXVQString@@W4contextMenuType@@@Z
	DD	00H
	DD	00H
	DD	03H
	DD	imagerel $ip2state$?contextSignal@xGLWidget@@QEAAXVQString@@W4contextMenuType@@@Z
	DD	020H
	DD	00H
	DD	01H
CONST	ENDS
xdata	SEGMENT
$unwind$?metaObject@xGLWidget@@UEBAPEBUQMetaObject@@XZ DD 010901H
	DD	06209H
$unwind$?qt_metacast@xGLWidget@@UEAAPEAXPEBD@Z DD 010e01H
	DD	0420eH
$unwind$?qt_metacall@xGLWidget@@UEAAHW4Call@QMetaObject@@HPEAPEAX@Z DD 011701H
	DD	04217H
$unwind$?qt_static_metacall@xGLWidget@@CAXPEAVQObject@@W4Call@QMetaObject@@HPEAPEAX@Z DD 021a01H
	DD	021011aH
$unwind$?xRotationChanged@xGLWidget@@QEAAXH@Z DD 010d01H
	DD	0620dH
$unwind$?yRotationChanged@xGLWidget@@QEAAXH@Z DD 010d01H
	DD	0620dH
$unwind$?zRotationChanged@xGLWidget@@QEAAXH@Z DD 010d01H
	DD	0620dH
$unwind$?changedAnimationFrame@xGLWidget@@QEAAXXZ DD 010901H
	DD	04209H
$unwind$?signalGeometrySelection@xGLWidget@@QEAAXVQString@@@Z DD 011711H
	DD	0820eH
	DD	imagerel __CxxFrameHandler3
	DD	imagerel $cppxdata$?signalGeometrySelection@xGLWidget@@QEAAXVQString@@@Z
$stateUnwindMap$?signalGeometrySelection@xGLWidget@@QEAAXVQString@@@Z DD 0ffffffffH
	DD	imagerel ?dtor$0@?0??signalGeometrySelection@xGLWidget@@QEAAXVQString@@@Z@4HA
$ip2state$?signalGeometrySelection@xGLWidget@@QEAAXVQString@@@Z DD imagerel ?signalGeometrySelection@xGLWidget@@QEAAXVQString@@@Z
	DD	0ffffffffH
	DD	imagerel ?signalGeometrySelection@xGLWidget@@QEAAXVQString@@@Z+23
	DD	00H
	DD	imagerel ?signalGeometrySelection@xGLWidget@@QEAAXVQString@@@Z+72
	DD	0ffffffffH
$unwind$?dtor$0@?0??signalGeometrySelection@xGLWidget@@QEAAXVQString@@@Z@4HA DD 020601H
	DD	050023206H
$unwind$?releaseOperation@xGLWidget@@QEAAXXZ DD 010901H
	DD	04209H
$unwind$?contextSignal@xGLWidget@@QEAAXVQString@@W4contextMenuType@@@Z DD 012b19H
	DD	0a213H
	DD	imagerel __GSHandlerCheck_EH
	DD	imagerel $cppxdata$?contextSignal@xGLWidget@@QEAAXVQString@@W4contextMenuType@@@Z
	DD	042H
$stateUnwindMap$?contextSignal@xGLWidget@@QEAAXVQString@@W4contextMenuType@@@Z DD 0ffffffffH
	DD	imagerel ?dtor$0@?0??contextSignal@xGLWidget@@QEAAXVQString@@W4contextMenuType@@@Z@4HA
$ip2state$?contextSignal@xGLWidget@@QEAAXVQString@@W4contextMenuType@@@Z DD imagerel ?contextSignal@xGLWidget@@QEAAXVQString@@W4contextMenuType@@@Z
	DD	0ffffffffH
	DD	imagerel ?contextSignal@xGLWidget@@QEAAXVQString@@W4contextMenuType@@@Z+43
	DD	00H
	DD	imagerel ?contextSignal@xGLWidget@@QEAAXVQString@@W4contextMenuType@@@Z+102
	DD	0ffffffffH
$unwind$?dtor$0@?0??contextSignal@xGLWidget@@QEAAXVQString@@W4contextMenuType@@@Z@4HA DD 020601H
	DD	050023206H
xdata	ENDS
;	COMDAT xdata
xdata	SEGMENT
$unwind$??__Fg_vglew@@YAXXZ DD 010401H
	DD	04204H
xdata	ENDS
;	COMDAT xdata
xdata	SEGMENT
$unwind$??__Eg_vglew@@YAXXZ DD 010401H
	DD	04204H
xdata	ENDS
;	COMDAT xdata
xdata	SEGMENT
$unwind$??0xvGlew@@QEAA@XZ DD 010901H
	DD	04209H
xdata	ENDS
CRT$XCU	SEGMENT
??staticMetaObject$initializer$@xGLWidget@@2P6AXXZEA@@3P6AXXZEA DQ FLAT:??__E?staticMetaObject@xGLWidget@@2UQMetaObject@@B@@YAXXZ ; ??staticMetaObject$initializer$@xGLWidget@@2P6AXXZEA@@3P6AXXZEA
CRT$XCU	ENDS
; Function compile flags: /Odtp
;	COMDAT ??__E?staticMetaObject@xGLWidget@@2UQMetaObject@@B@@YAXXZ
text$di	SEGMENT
??__E?staticMetaObject@xGLWidget@@2UQMetaObject@@B@@YAXXZ PROC ; `dynamic initializer for 'xGLWidget::staticMetaObject'', COMDAT
; File c:\xdynamics\xdynamics_gui\generatedfiles\debug\moc_xglwidget.cpp
; Line 200
	mov	rax, QWORD PTR __imp_?staticMetaObject@QGLWidget@@2UQMetaObject@@B
	mov	QWORD PTR ?staticMetaObject@xGLWidget@@2UQMetaObject@@B, rax
; Line 201
	lea	rax, OFFSET FLAT:?qt_meta_stringdata_xGLWidget@@3Uqt_meta_stringdata_xGLWidget_t@@B
	mov	QWORD PTR ?staticMetaObject@xGLWidget@@2UQMetaObject@@B+8, rax
; Line 202
	lea	rax, OFFSET FLAT:?qt_meta_data_xGLWidget@@3QBIB
	mov	QWORD PTR ?staticMetaObject@xGLWidget@@2UQMetaObject@@B+16, rax
; Line 203
	lea	rax, OFFSET FLAT:?qt_static_metacall@xGLWidget@@CAXPEAVQObject@@W4Call@QMetaObject@@HPEAPEAX@Z ; xGLWidget::qt_static_metacall
	mov	QWORD PTR ?staticMetaObject@xGLWidget@@2UQMetaObject@@B+24, rax
; Line 204
	mov	QWORD PTR ?staticMetaObject@xGLWidget@@2UQMetaObject@@B+32, 0
; Line 205
	mov	QWORD PTR ?staticMetaObject@xGLWidget@@2UQMetaObject@@B+40, 0
	ret	0
??__E?staticMetaObject@xGLWidget@@2UQMetaObject@@B@@YAXXZ ENDP ; `dynamic initializer for 'xGLWidget::staticMetaObject''
text$di	ENDS
; Function compile flags: /Odtp
_TEXT	SEGMENT
$T1 = 32
_a$ = 40
__$ArrayPad$ = 64
this$ = 96
_t1$ = 104
_t2$ = 112
?contextSignal@xGLWidget@@QEAAXVQString@@W4contextMenuType@@@Z PROC ; xGLWidget::contextSignal
; File c:\xdynamics\xdynamics_gui\generatedfiles\debug\moc_xglwidget.cpp
; Line 281
$LN4:
	mov	DWORD PTR [rsp+24], r8d
	mov	QWORD PTR [rsp+16], rdx
	mov	QWORD PTR [rsp+8], rcx
	sub	rsp, 88					; 00000058H
	mov	QWORD PTR $T1[rsp], -2
	mov	rax, QWORD PTR __security_cookie
	xor	rax, rsp
	mov	QWORD PTR __$ArrayPad$[rsp], rax
; Line 282
	mov	QWORD PTR _a$[rsp], 0
	mov	rax, QWORD PTR _t1$[rsp]
	mov	QWORD PTR _a$[rsp+8], rax
	lea	rax, QWORD PTR _t2$[rsp]
	mov	QWORD PTR _a$[rsp+16], rax
; Line 283
	lea	r9, QWORD PTR _a$[rsp]
	mov	r8d, 6
	lea	rdx, OFFSET FLAT:?staticMetaObject@xGLWidget@@2UQMetaObject@@B ; xGLWidget::staticMetaObject
	mov	rcx, QWORD PTR this$[rsp]
	call	QWORD PTR __imp_?activate@QMetaObject@@SAXPEAVQObject@@PEBU1@HPEAPEAX@Z
	npad	1
; Line 284
	mov	rcx, QWORD PTR _t1$[rsp]
	call	QWORD PTR __imp_??1QString@@QEAA@XZ
	mov	rcx, QWORD PTR __$ArrayPad$[rsp]
	xor	rcx, rsp
	call	__security_check_cookie
	add	rsp, 88					; 00000058H
	ret	0
?contextSignal@xGLWidget@@QEAAXVQString@@W4contextMenuType@@@Z ENDP ; xGLWidget::contextSignal
_TEXT	ENDS
text$x	SEGMENT
$T1 = 32
_a$ = 40
__$ArrayPad$ = 64
this$ = 96
_t1$ = 104
_t2$ = 112
?dtor$0@?0??contextSignal@xGLWidget@@QEAAXVQString@@W4contextMenuType@@@Z@4HA PROC ; `xGLWidget::contextSignal'::`1'::dtor$0
	push	rbp
	sub	rsp, 32					; 00000020H
	mov	rbp, rdx
	mov	rcx, QWORD PTR _t1$[rbp]
	call	QWORD PTR __imp_??1QString@@QEAA@XZ
	add	rsp, 32					; 00000020H
	pop	rbp
	ret	0
?dtor$0@?0??contextSignal@xGLWidget@@QEAAXVQString@@W4contextMenuType@@@Z@4HA ENDP ; `xGLWidget::contextSignal'::`1'::dtor$0
text$x	ENDS
; Function compile flags: /Odtp
text$x	SEGMENT
$T1 = 32
_a$ = 40
__$ArrayPad$ = 64
this$ = 96
_t1$ = 104
_t2$ = 112
?dtor$0@?0??contextSignal@xGLWidget@@QEAAXVQString@@W4contextMenuType@@@Z@4HA PROC ; `xGLWidget::contextSignal'::`1'::dtor$0
	push	rbp
	sub	rsp, 32					; 00000020H
	mov	rbp, rdx
	mov	rcx, QWORD PTR _t1$[rbp]
	call	QWORD PTR __imp_??1QString@@QEAA@XZ
	add	rsp, 32					; 00000020H
	pop	rbp
	ret	0
?dtor$0@?0??contextSignal@xGLWidget@@QEAAXVQString@@W4contextMenuType@@@Z@4HA ENDP ; `xGLWidget::contextSignal'::`1'::dtor$0
text$x	ENDS
; Function compile flags: /Odtp
_TEXT	SEGMENT
this$ = 48
?releaseOperation@xGLWidget@@QEAAXXZ PROC		; xGLWidget::releaseOperation
; File c:\xdynamics\xdynamics_gui\generatedfiles\debug\moc_xglwidget.cpp
; Line 275
$LN3:
	mov	QWORD PTR [rsp+8], rcx
	sub	rsp, 40					; 00000028H
; Line 276
	xor	r9d, r9d
	mov	r8d, 5
	lea	rdx, OFFSET FLAT:?staticMetaObject@xGLWidget@@2UQMetaObject@@B ; xGLWidget::staticMetaObject
	mov	rcx, QWORD PTR this$[rsp]
	call	QWORD PTR __imp_?activate@QMetaObject@@SAXPEAVQObject@@PEBU1@HPEAPEAX@Z
; Line 277
	add	rsp, 40					; 00000028H
	ret	0
?releaseOperation@xGLWidget@@QEAAXXZ ENDP		; xGLWidget::releaseOperation
_TEXT	ENDS
; Function compile flags: /Odtp
_TEXT	SEGMENT
$T1 = 32
_a$ = 40
this$ = 80
_t1$ = 88
?signalGeometrySelection@xGLWidget@@QEAAXVQString@@@Z PROC ; xGLWidget::signalGeometrySelection
; File c:\xdynamics\xdynamics_gui\generatedfiles\debug\moc_xglwidget.cpp
; Line 268
$LN4:
	mov	QWORD PTR [rsp+16], rdx
	mov	QWORD PTR [rsp+8], rcx
	sub	rsp, 72					; 00000048H
	mov	QWORD PTR $T1[rsp], -2
; Line 269
	mov	QWORD PTR _a$[rsp], 0
	mov	rax, QWORD PTR _t1$[rsp]
	mov	QWORD PTR _a$[rsp+8], rax
; Line 270
	lea	r9, QWORD PTR _a$[rsp]
	mov	r8d, 4
	lea	rdx, OFFSET FLAT:?staticMetaObject@xGLWidget@@2UQMetaObject@@B ; xGLWidget::staticMetaObject
	mov	rcx, QWORD PTR this$[rsp]
	call	QWORD PTR __imp_?activate@QMetaObject@@SAXPEAVQObject@@PEBU1@HPEAPEAX@Z
	npad	1
; Line 271
	mov	rcx, QWORD PTR _t1$[rsp]
	call	QWORD PTR __imp_??1QString@@QEAA@XZ
	add	rsp, 72					; 00000048H
	ret	0
?signalGeometrySelection@xGLWidget@@QEAAXVQString@@@Z ENDP ; xGLWidget::signalGeometrySelection
_TEXT	ENDS
text$x	SEGMENT
$T1 = 32
_a$ = 40
this$ = 80
_t1$ = 88
?dtor$0@?0??signalGeometrySelection@xGLWidget@@QEAAXVQString@@@Z@4HA PROC ; `xGLWidget::signalGeometrySelection'::`1'::dtor$0
	push	rbp
	sub	rsp, 32					; 00000020H
	mov	rbp, rdx
	mov	rcx, QWORD PTR _t1$[rbp]
	call	QWORD PTR __imp_??1QString@@QEAA@XZ
	add	rsp, 32					; 00000020H
	pop	rbp
	ret	0
?dtor$0@?0??signalGeometrySelection@xGLWidget@@QEAAXVQString@@@Z@4HA ENDP ; `xGLWidget::signalGeometrySelection'::`1'::dtor$0
text$x	ENDS
; Function compile flags: /Odtp
text$x	SEGMENT
$T1 = 32
_a$ = 40
this$ = 80
_t1$ = 88
?dtor$0@?0??signalGeometrySelection@xGLWidget@@QEAAXVQString@@@Z@4HA PROC ; `xGLWidget::signalGeometrySelection'::`1'::dtor$0
	push	rbp
	sub	rsp, 32					; 00000020H
	mov	rbp, rdx
	mov	rcx, QWORD PTR _t1$[rbp]
	call	QWORD PTR __imp_??1QString@@QEAA@XZ
	add	rsp, 32					; 00000020H
	pop	rbp
	ret	0
?dtor$0@?0??signalGeometrySelection@xGLWidget@@QEAAXVQString@@@Z@4HA ENDP ; `xGLWidget::signalGeometrySelection'::`1'::dtor$0
text$x	ENDS
; Function compile flags: /Odtp
_TEXT	SEGMENT
this$ = 48
?changedAnimationFrame@xGLWidget@@QEAAXXZ PROC		; xGLWidget::changedAnimationFrame
; File c:\xdynamics\xdynamics_gui\generatedfiles\debug\moc_xglwidget.cpp
; Line 262
$LN3:
	mov	QWORD PTR [rsp+8], rcx
	sub	rsp, 40					; 00000028H
; Line 263
	xor	r9d, r9d
	mov	r8d, 3
	lea	rdx, OFFSET FLAT:?staticMetaObject@xGLWidget@@2UQMetaObject@@B ; xGLWidget::staticMetaObject
	mov	rcx, QWORD PTR this$[rsp]
	call	QWORD PTR __imp_?activate@QMetaObject@@SAXPEAVQObject@@PEBU1@HPEAPEAX@Z
; Line 264
	add	rsp, 40					; 00000028H
	ret	0
?changedAnimationFrame@xGLWidget@@QEAAXXZ ENDP		; xGLWidget::changedAnimationFrame
_TEXT	ENDS
; Function compile flags: /Odtp
_TEXT	SEGMENT
_a$ = 32
this$ = 64
_t1$ = 72
?zRotationChanged@xGLWidget@@QEAAXH@Z PROC		; xGLWidget::zRotationChanged
; File c:\xdynamics\xdynamics_gui\generatedfiles\debug\moc_xglwidget.cpp
; Line 255
$LN3:
	mov	DWORD PTR [rsp+16], edx
	mov	QWORD PTR [rsp+8], rcx
	sub	rsp, 56					; 00000038H
; Line 256
	mov	QWORD PTR _a$[rsp], 0
	lea	rax, QWORD PTR _t1$[rsp]
	mov	QWORD PTR _a$[rsp+8], rax
; Line 257
	lea	r9, QWORD PTR _a$[rsp]
	mov	r8d, 2
	lea	rdx, OFFSET FLAT:?staticMetaObject@xGLWidget@@2UQMetaObject@@B ; xGLWidget::staticMetaObject
	mov	rcx, QWORD PTR this$[rsp]
	call	QWORD PTR __imp_?activate@QMetaObject@@SAXPEAVQObject@@PEBU1@HPEAPEAX@Z
; Line 258
	add	rsp, 56					; 00000038H
	ret	0
?zRotationChanged@xGLWidget@@QEAAXH@Z ENDP		; xGLWidget::zRotationChanged
_TEXT	ENDS
; Function compile flags: /Odtp
_TEXT	SEGMENT
_a$ = 32
this$ = 64
_t1$ = 72
?yRotationChanged@xGLWidget@@QEAAXH@Z PROC		; xGLWidget::yRotationChanged
; File c:\xdynamics\xdynamics_gui\generatedfiles\debug\moc_xglwidget.cpp
; Line 248
$LN3:
	mov	DWORD PTR [rsp+16], edx
	mov	QWORD PTR [rsp+8], rcx
	sub	rsp, 56					; 00000038H
; Line 249
	mov	QWORD PTR _a$[rsp], 0
	lea	rax, QWORD PTR _t1$[rsp]
	mov	QWORD PTR _a$[rsp+8], rax
; Line 250
	lea	r9, QWORD PTR _a$[rsp]
	mov	r8d, 1
	lea	rdx, OFFSET FLAT:?staticMetaObject@xGLWidget@@2UQMetaObject@@B ; xGLWidget::staticMetaObject
	mov	rcx, QWORD PTR this$[rsp]
	call	QWORD PTR __imp_?activate@QMetaObject@@SAXPEAVQObject@@PEBU1@HPEAPEAX@Z
; Line 251
	add	rsp, 56					; 00000038H
	ret	0
?yRotationChanged@xGLWidget@@QEAAXH@Z ENDP		; xGLWidget::yRotationChanged
_TEXT	ENDS
; Function compile flags: /Odtp
_TEXT	SEGMENT
_a$ = 32
this$ = 64
_t1$ = 72
?xRotationChanged@xGLWidget@@QEAAXH@Z PROC		; xGLWidget::xRotationChanged
; File c:\xdynamics\xdynamics_gui\generatedfiles\debug\moc_xglwidget.cpp
; Line 241
$LN3:
	mov	DWORD PTR [rsp+16], edx
	mov	QWORD PTR [rsp+8], rcx
	sub	rsp, 56					; 00000038H
; Line 242
	mov	QWORD PTR _a$[rsp], 0
	lea	rax, QWORD PTR _t1$[rsp]
	mov	QWORD PTR _a$[rsp+8], rax
; Line 243
	lea	r9, QWORD PTR _a$[rsp]
	xor	r8d, r8d
	lea	rdx, OFFSET FLAT:?staticMetaObject@xGLWidget@@2UQMetaObject@@B ; xGLWidget::staticMetaObject
	mov	rcx, QWORD PTR this$[rsp]
	call	QWORD PTR __imp_?activate@QMetaObject@@SAXPEAVQObject@@PEBU1@HPEAPEAX@Z
; Line 244
	add	rsp, 56					; 00000038H
	ret	0
?xRotationChanged@xGLWidget@@QEAAXH@Z ENDP		; xGLWidget::xRotationChanged
_TEXT	ENDS
; Function compile flags: /Odtp
_TEXT	SEGMENT
_t$1 = 32
result$2 = 40
tv69 = 48
tv191 = 52
tv205 = 56
tv219 = 60
tv233 = 64
tv247 = 68
tv293 = 72
tv307 = 76
$T3 = 80
tv310 = 88
$T4 = 96
tv134 = 104
tv312 = 112
$T5 = 120
$T6 = 136
$T7 = 152
$T8 = 168
$T9 = 184
$T10 = 200
$T11 = 216
$T12 = 232
$T13 = 240
_o$ = 272
_c$ = 280
_id$ = 288
_a$ = 296
?qt_static_metacall@xGLWidget@@CAXPEAVQObject@@W4Call@QMetaObject@@HPEAPEAX@Z PROC ; xGLWidget::qt_static_metacall
; File c:\xdynamics\xdynamics_gui\generatedfiles\debug\moc_xglwidget.cpp
; Line 123
$LN55:
	mov	QWORD PTR [rsp+32], r9
	mov	DWORD PTR [rsp+24], r8d
	mov	DWORD PTR [rsp+16], edx
	mov	QWORD PTR [rsp+8], rcx
	sub	rsp, 264				; 00000108H
; Line 124
	cmp	DWORD PTR _c$[rsp], 0
	jne	$LN4@qt_static_
; Line 125
	mov	rax, QWORD PTR _o$[rsp]
	mov	QWORD PTR _t$1[rsp], rax
; Line 127
	mov	eax, DWORD PTR _id$[rsp]
	mov	DWORD PTR tv69[rsp], eax
	cmp	DWORD PTR tv69[rsp], 14
	ja	$LN2@qt_static_
	movsxd	rax, DWORD PTR tv69[rsp]
	lea	rcx, OFFSET FLAT:__ImageBase
	mov	eax, DWORD PTR $LN54@qt_static_[rcx+rax*4]
	add	rax, rcx
	jmp	rax
$LN6@qt_static_:
; Line 128
	mov	eax, 8
	imul	rax, rax, 1
	mov	rcx, QWORD PTR _a$[rsp]
	mov	rax, QWORD PTR [rcx+rax]
	mov	edx, DWORD PTR [rax]
	mov	rcx, QWORD PTR _t$1[rsp]
	call	?xRotationChanged@xGLWidget@@QEAAXH@Z	; xGLWidget::xRotationChanged
	jmp	$LN2@qt_static_
$LN7@qt_static_:
; Line 129
	mov	eax, 8
	imul	rax, rax, 1
	mov	rcx, QWORD PTR _a$[rsp]
	mov	rax, QWORD PTR [rcx+rax]
	mov	edx, DWORD PTR [rax]
	mov	rcx, QWORD PTR _t$1[rsp]
	call	?yRotationChanged@xGLWidget@@QEAAXH@Z	; xGLWidget::yRotationChanged
	jmp	$LN2@qt_static_
$LN8@qt_static_:
; Line 130
	mov	eax, 8
	imul	rax, rax, 1
	mov	rcx, QWORD PTR _a$[rsp]
	mov	rax, QWORD PTR [rcx+rax]
	mov	edx, DWORD PTR [rax]
	mov	rcx, QWORD PTR _t$1[rsp]
	call	?zRotationChanged@xGLWidget@@QEAAXH@Z	; xGLWidget::zRotationChanged
	jmp	$LN2@qt_static_
$LN9@qt_static_:
; Line 131
	mov	rcx, QWORD PTR _t$1[rsp]
	call	?changedAnimationFrame@xGLWidget@@QEAAXXZ ; xGLWidget::changedAnimationFrame
	jmp	$LN2@qt_static_
$LN10@qt_static_:
; Line 132
	lea	rax, QWORD PTR $T12[rsp]
	mov	QWORD PTR $T3[rsp], rax
	mov	eax, 8
	imul	rax, rax, 1
	mov	rcx, QWORD PTR _a$[rsp]
	mov	rdx, QWORD PTR [rcx+rax]
	mov	rcx, QWORD PTR $T3[rsp]
	call	QWORD PTR __imp_??0QString@@QEAA@AEBV0@@Z
	mov	QWORD PTR tv310[rsp], rax
	mov	rdx, QWORD PTR tv310[rsp]
	mov	rcx, QWORD PTR _t$1[rsp]
	call	?signalGeometrySelection@xGLWidget@@QEAAXVQString@@@Z ; xGLWidget::signalGeometrySelection
	jmp	$LN2@qt_static_
$LN11@qt_static_:
; Line 133
	mov	rcx, QWORD PTR _t$1[rsp]
	call	?releaseOperation@xGLWidget@@QEAAXXZ	; xGLWidget::releaseOperation
	jmp	$LN2@qt_static_
$LN12@qt_static_:
; Line 134
	lea	rax, QWORD PTR $T13[rsp]
	mov	QWORD PTR $T4[rsp], rax
	mov	eax, 8
	imul	rax, rax, 2
	mov	rcx, QWORD PTR _a$[rsp]
	mov	rax, QWORD PTR [rcx+rax]
	mov	QWORD PTR tv134[rsp], rax
	mov	ecx, 8
	imul	rcx, rcx, 1
	mov	rdx, QWORD PTR _a$[rsp]
	mov	rdx, QWORD PTR [rdx+rcx]
	mov	rcx, QWORD PTR $T4[rsp]
	call	QWORD PTR __imp_??0QString@@QEAA@AEBV0@@Z
	mov	QWORD PTR tv312[rsp], rax
	mov	rax, QWORD PTR tv134[rsp]
	mov	r8d, DWORD PTR [rax]
	mov	rdx, QWORD PTR tv312[rsp]
	mov	rcx, QWORD PTR _t$1[rsp]
	call	?contextSignal@xGLWidget@@QEAAXVQString@@W4contextMenuType@@@Z ; xGLWidget::contextSignal
	jmp	$LN2@qt_static_
$LN13@qt_static_:
; Line 135
	mov	rcx, QWORD PTR _t$1[rsp]
	call	?fitView@xGLWidget@@QEAAXXZ		; xGLWidget::fitView
	jmp	$LN2@qt_static_
$LN14@qt_static_:
; Line 136
	mov	eax, 8
	imul	rax, rax, 1
	mov	rcx, QWORD PTR _a$[rsp]
	mov	rax, QWORD PTR [rcx+rax]
	mov	edx, DWORD PTR [rax]
	mov	rcx, QWORD PTR _t$1[rsp]
	call	?setXRotation@xGLWidget@@QEAAXH@Z	; xGLWidget::setXRotation
	jmp	$LN2@qt_static_
$LN15@qt_static_:
; Line 137
	mov	eax, 8
	imul	rax, rax, 1
	mov	rcx, QWORD PTR _a$[rsp]
	mov	rax, QWORD PTR [rcx+rax]
	mov	edx, DWORD PTR [rax]
	mov	rcx, QWORD PTR _t$1[rsp]
	call	?setYRotation@xGLWidget@@QEAAXH@Z	; xGLWidget::setYRotation
	jmp	$LN2@qt_static_
$LN16@qt_static_:
; Line 138
	mov	eax, 8
	imul	rax, rax, 1
	mov	rcx, QWORD PTR _a$[rsp]
	mov	rax, QWORD PTR [rcx+rax]
	mov	edx, DWORD PTR [rax]
	mov	rcx, QWORD PTR _t$1[rsp]
	call	?setZRotation@xGLWidget@@QEAAXH@Z	; xGLWidget::setZRotation
	jmp	SHORT $LN2@qt_static_
$LN17@qt_static_:
; Line 139
	mov	eax, 8
	imul	rax, rax, 1
	mov	rcx, QWORD PTR _a$[rsp]
	mov	rdx, QWORD PTR [rcx+rax]
	mov	rcx, QWORD PTR _t$1[rsp]
	call	?ShowContextMenu@xGLWidget@@QEAAXAEBVQPoint@@@Z ; xGLWidget::ShowContextMenu
	jmp	SHORT $LN2@qt_static_
$LN18@qt_static_:
; Line 140
	mov	rcx, QWORD PTR _t$1[rsp]
	call	?setSketchSpace@xGLWidget@@QEAAXXZ	; xGLWidget::setSketchSpace
	jmp	SHORT $LN2@qt_static_
$LN19@qt_static_:
; Line 141
	mov	eax, 8
	imul	rax, rax, 1
	mov	rcx, QWORD PTR _a$[rsp]
	mov	rax, QWORD PTR [rcx+rax]
	mov	edx, DWORD PTR [rax]
	mov	rcx, QWORD PTR _t$1[rsp]
	call	?setupParticleBufferColorDistribution@xGLWidget@@QEAAXH@Z ; xGLWidget::setupParticleBufferColorDistribution
	jmp	SHORT $LN2@qt_static_
$LN20@qt_static_:
; Line 142
	mov	edx, -1
	mov	rcx, QWORD PTR _t$1[rsp]
	call	?setupParticleBufferColorDistribution@xGLWidget@@QEAAXH@Z ; xGLWidget::setupParticleBufferColorDistribution
$LN2@qt_static_:
; Line 145
	jmp	$LN1@qt_static_
$LN4@qt_static_:
	cmp	DWORD PTR _c$[rsp], 10
	jne	$LN1@qt_static_
; Line 146
	mov	eax, 8
	imul	rax, rax, 0
	mov	rcx, QWORD PTR _a$[rsp]
	mov	rax, QWORD PTR [rcx+rax]
	mov	QWORD PTR result$2[rsp], rax
; Line 149
	lea	rax, OFFSET FLAT:?xRotationChanged@xGLWidget@@QEAAXH@Z ; xGLWidget::xRotationChanged
	mov	QWORD PTR $T5[rsp], rax
	mov	DWORD PTR $T5[rsp+8], 0
	mov	eax, 8
	imul	rax, rax, 1
	mov	rcx, QWORD PTR _a$[rsp]
	mov	rax, QWORD PTR [rcx+rax]
	mov	rcx, QWORD PTR $T5[rsp]
	cmp	QWORD PTR [rax], rcx
	jne	SHORT $LN32@qt_static_
	mov	eax, 8
	imul	rax, rax, 1
	mov	rcx, QWORD PTR _a$[rsp]
	mov	rax, QWORD PTR [rcx+rax]
	cmp	QWORD PTR [rax], 0
	je	SHORT $LN31@qt_static_
	mov	eax, 8
	imul	rax, rax, 1
	mov	rcx, QWORD PTR _a$[rsp]
	mov	rax, QWORD PTR [rcx+rax]
	mov	ecx, DWORD PTR $T5[rsp+8]
	cmp	DWORD PTR [rax+8], ecx
	jne	SHORT $LN32@qt_static_
$LN31@qt_static_:
	mov	DWORD PTR tv191[rsp], 1
	jmp	SHORT $LN33@qt_static_
$LN32@qt_static_:
	mov	DWORD PTR tv191[rsp], 0
$LN33@qt_static_:
	cmp	DWORD PTR tv191[rsp], 0
	je	SHORT $LN23@qt_static_
; Line 150
	mov	rax, QWORD PTR result$2[rsp]
	mov	DWORD PTR [rax], 0
; Line 151
	jmp	$LN1@qt_static_
$LN23@qt_static_:
; Line 156
	lea	rax, OFFSET FLAT:?yRotationChanged@xGLWidget@@QEAAXH@Z ; xGLWidget::yRotationChanged
	mov	QWORD PTR $T6[rsp], rax
	mov	DWORD PTR $T6[rsp+8], 0
	mov	eax, 8
	imul	rax, rax, 1
	mov	rcx, QWORD PTR _a$[rsp]
	mov	rax, QWORD PTR [rcx+rax]
	mov	rcx, QWORD PTR $T6[rsp]
	cmp	QWORD PTR [rax], rcx
	jne	SHORT $LN35@qt_static_
	mov	eax, 8
	imul	rax, rax, 1
	mov	rcx, QWORD PTR _a$[rsp]
	mov	rax, QWORD PTR [rcx+rax]
	cmp	QWORD PTR [rax], 0
	je	SHORT $LN34@qt_static_
	mov	eax, 8
	imul	rax, rax, 1
	mov	rcx, QWORD PTR _a$[rsp]
	mov	rax, QWORD PTR [rcx+rax]
	mov	ecx, DWORD PTR $T6[rsp+8]
	cmp	DWORD PTR [rax+8], ecx
	jne	SHORT $LN35@qt_static_
$LN34@qt_static_:
	mov	DWORD PTR tv205[rsp], 1
	jmp	SHORT $LN36@qt_static_
$LN35@qt_static_:
	mov	DWORD PTR tv205[rsp], 0
$LN36@qt_static_:
	cmp	DWORD PTR tv205[rsp], 0
	je	SHORT $LN24@qt_static_
; Line 157
	mov	rax, QWORD PTR result$2[rsp]
	mov	DWORD PTR [rax], 1
; Line 158
	jmp	$LN1@qt_static_
$LN24@qt_static_:
; Line 163
	lea	rax, OFFSET FLAT:?zRotationChanged@xGLWidget@@QEAAXH@Z ; xGLWidget::zRotationChanged
	mov	QWORD PTR $T7[rsp], rax
	mov	DWORD PTR $T7[rsp+8], 0
	mov	eax, 8
	imul	rax, rax, 1
	mov	rcx, QWORD PTR _a$[rsp]
	mov	rax, QWORD PTR [rcx+rax]
	mov	rcx, QWORD PTR $T7[rsp]
	cmp	QWORD PTR [rax], rcx
	jne	SHORT $LN38@qt_static_
	mov	eax, 8
	imul	rax, rax, 1
	mov	rcx, QWORD PTR _a$[rsp]
	mov	rax, QWORD PTR [rcx+rax]
	cmp	QWORD PTR [rax], 0
	je	SHORT $LN37@qt_static_
	mov	eax, 8
	imul	rax, rax, 1
	mov	rcx, QWORD PTR _a$[rsp]
	mov	rax, QWORD PTR [rcx+rax]
	mov	ecx, DWORD PTR $T7[rsp+8]
	cmp	DWORD PTR [rax+8], ecx
	jne	SHORT $LN38@qt_static_
$LN37@qt_static_:
	mov	DWORD PTR tv219[rsp], 1
	jmp	SHORT $LN39@qt_static_
$LN38@qt_static_:
	mov	DWORD PTR tv219[rsp], 0
$LN39@qt_static_:
	cmp	DWORD PTR tv219[rsp], 0
	je	SHORT $LN25@qt_static_
; Line 164
	mov	rax, QWORD PTR result$2[rsp]
	mov	DWORD PTR [rax], 2
; Line 165
	jmp	$LN1@qt_static_
$LN25@qt_static_:
; Line 170
	lea	rax, OFFSET FLAT:?changedAnimationFrame@xGLWidget@@QEAAXXZ ; xGLWidget::changedAnimationFrame
	mov	QWORD PTR $T8[rsp], rax
	mov	DWORD PTR $T8[rsp+8], 0
	mov	eax, 8
	imul	rax, rax, 1
	mov	rcx, QWORD PTR _a$[rsp]
	mov	rax, QWORD PTR [rcx+rax]
	mov	rcx, QWORD PTR $T8[rsp]
	cmp	QWORD PTR [rax], rcx
	jne	SHORT $LN41@qt_static_
	mov	eax, 8
	imul	rax, rax, 1
	mov	rcx, QWORD PTR _a$[rsp]
	mov	rax, QWORD PTR [rcx+rax]
	cmp	QWORD PTR [rax], 0
	je	SHORT $LN40@qt_static_
	mov	eax, 8
	imul	rax, rax, 1
	mov	rcx, QWORD PTR _a$[rsp]
	mov	rax, QWORD PTR [rcx+rax]
	mov	ecx, DWORD PTR $T8[rsp+8]
	cmp	DWORD PTR [rax+8], ecx
	jne	SHORT $LN41@qt_static_
$LN40@qt_static_:
	mov	DWORD PTR tv233[rsp], 1
	jmp	SHORT $LN42@qt_static_
$LN41@qt_static_:
	mov	DWORD PTR tv233[rsp], 0
$LN42@qt_static_:
	cmp	DWORD PTR tv233[rsp], 0
	je	SHORT $LN26@qt_static_
; Line 171
	mov	rax, QWORD PTR result$2[rsp]
	mov	DWORD PTR [rax], 3
; Line 172
	jmp	$LN1@qt_static_
$LN26@qt_static_:
; Line 177
	lea	rax, OFFSET FLAT:?signalGeometrySelection@xGLWidget@@QEAAXVQString@@@Z ; xGLWidget::signalGeometrySelection
	mov	QWORD PTR $T9[rsp], rax
	mov	DWORD PTR $T9[rsp+8], 0
	mov	eax, 8
	imul	rax, rax, 1
	mov	rcx, QWORD PTR _a$[rsp]
	mov	rax, QWORD PTR [rcx+rax]
	mov	rcx, QWORD PTR $T9[rsp]
	cmp	QWORD PTR [rax], rcx
	jne	SHORT $LN44@qt_static_
	mov	eax, 8
	imul	rax, rax, 1
	mov	rcx, QWORD PTR _a$[rsp]
	mov	rax, QWORD PTR [rcx+rax]
	cmp	QWORD PTR [rax], 0
	je	SHORT $LN43@qt_static_
	mov	eax, 8
	imul	rax, rax, 1
	mov	rcx, QWORD PTR _a$[rsp]
	mov	rax, QWORD PTR [rcx+rax]
	mov	ecx, DWORD PTR $T9[rsp+8]
	cmp	DWORD PTR [rax+8], ecx
	jne	SHORT $LN44@qt_static_
$LN43@qt_static_:
	mov	DWORD PTR tv247[rsp], 1
	jmp	SHORT $LN45@qt_static_
$LN44@qt_static_:
	mov	DWORD PTR tv247[rsp], 0
$LN45@qt_static_:
	cmp	DWORD PTR tv247[rsp], 0
	je	SHORT $LN27@qt_static_
; Line 178
	mov	rax, QWORD PTR result$2[rsp]
	mov	DWORD PTR [rax], 4
; Line 179
	jmp	$LN1@qt_static_
$LN27@qt_static_:
; Line 184
	lea	rax, OFFSET FLAT:?releaseOperation@xGLWidget@@QEAAXXZ ; xGLWidget::releaseOperation
	mov	QWORD PTR $T10[rsp], rax
	mov	DWORD PTR $T10[rsp+8], 0
	mov	eax, 8
	imul	rax, rax, 1
	mov	rcx, QWORD PTR _a$[rsp]
	mov	rax, QWORD PTR [rcx+rax]
	mov	rcx, QWORD PTR $T10[rsp]
	cmp	QWORD PTR [rax], rcx
	jne	SHORT $LN47@qt_static_
	mov	eax, 8
	imul	rax, rax, 1
	mov	rcx, QWORD PTR _a$[rsp]
	mov	rax, QWORD PTR [rcx+rax]
	cmp	QWORD PTR [rax], 0
	je	SHORT $LN46@qt_static_
	mov	eax, 8
	imul	rax, rax, 1
	mov	rcx, QWORD PTR _a$[rsp]
	mov	rax, QWORD PTR [rcx+rax]
	mov	ecx, DWORD PTR $T10[rsp+8]
	cmp	DWORD PTR [rax+8], ecx
	jne	SHORT $LN47@qt_static_
$LN46@qt_static_:
	mov	DWORD PTR tv293[rsp], 1
	jmp	SHORT $LN48@qt_static_
$LN47@qt_static_:
	mov	DWORD PTR tv293[rsp], 0
$LN48@qt_static_:
	cmp	DWORD PTR tv293[rsp], 0
	je	SHORT $LN28@qt_static_
; Line 185
	mov	rax, QWORD PTR result$2[rsp]
	mov	DWORD PTR [rax], 5
; Line 186
	jmp	$LN1@qt_static_
$LN28@qt_static_:
; Line 191
	lea	rax, OFFSET FLAT:?contextSignal@xGLWidget@@QEAAXVQString@@W4contextMenuType@@@Z ; xGLWidget::contextSignal
	mov	QWORD PTR $T11[rsp], rax
	mov	DWORD PTR $T11[rsp+8], 0
	mov	eax, 8
	imul	rax, rax, 1
	mov	rcx, QWORD PTR _a$[rsp]
	mov	rax, QWORD PTR [rcx+rax]
	mov	rcx, QWORD PTR $T11[rsp]
	cmp	QWORD PTR [rax], rcx
	jne	SHORT $LN50@qt_static_
	mov	eax, 8
	imul	rax, rax, 1
	mov	rcx, QWORD PTR _a$[rsp]
	mov	rax, QWORD PTR [rcx+rax]
	cmp	QWORD PTR [rax], 0
	je	SHORT $LN49@qt_static_
	mov	eax, 8
	imul	rax, rax, 1
	mov	rcx, QWORD PTR _a$[rsp]
	mov	rax, QWORD PTR [rcx+rax]
	mov	ecx, DWORD PTR $T11[rsp+8]
	cmp	DWORD PTR [rax+8], ecx
	jne	SHORT $LN50@qt_static_
$LN49@qt_static_:
	mov	DWORD PTR tv307[rsp], 1
	jmp	SHORT $LN51@qt_static_
$LN50@qt_static_:
	mov	DWORD PTR tv307[rsp], 0
$LN51@qt_static_:
	cmp	DWORD PTR tv307[rsp], 0
	je	SHORT $LN1@qt_static_
; Line 192
	mov	rax, QWORD PTR result$2[rsp]
	mov	DWORD PTR [rax], 6
$LN1@qt_static_:
; Line 197
	add	rsp, 264				; 00000108H
	ret	0
	npad	1
$LN54@qt_static_:
	DD	$LN6@qt_static_
	DD	$LN7@qt_static_
	DD	$LN8@qt_static_
	DD	$LN9@qt_static_
	DD	$LN10@qt_static_
	DD	$LN11@qt_static_
	DD	$LN12@qt_static_
	DD	$LN13@qt_static_
	DD	$LN14@qt_static_
	DD	$LN15@qt_static_
	DD	$LN16@qt_static_
	DD	$LN17@qt_static_
	DD	$LN18@qt_static_
	DD	$LN19@qt_static_
	DD	$LN20@qt_static_
?qt_static_metacall@xGLWidget@@CAXPEAVQObject@@W4Call@QMetaObject@@HPEAPEAX@Z ENDP ; xGLWidget::qt_static_metacall
_TEXT	ENDS
; Function compile flags: /Odtp
_TEXT	SEGMENT
this$ = 48
_c$ = 56
_id$ = 64
_a$ = 72
?qt_metacall@xGLWidget@@UEAAHW4Call@QMetaObject@@HPEAPEAX@Z PROC ; xGLWidget::qt_metacall
; File c:\xdynamics\xdynamics_gui\generatedfiles\debug\moc_xglwidget.cpp
; Line 223
$LN9:
	mov	QWORD PTR [rsp+32], r9
	mov	DWORD PTR [rsp+24], r8d
	mov	DWORD PTR [rsp+16], edx
	mov	QWORD PTR [rsp+8], rcx
	sub	rsp, 40					; 00000028H
; Line 224
	mov	r9, QWORD PTR _a$[rsp]
	mov	r8d, DWORD PTR _id$[rsp]
	mov	edx, DWORD PTR _c$[rsp]
	mov	rcx, QWORD PTR this$[rsp]
	call	QWORD PTR __imp_?qt_metacall@QGLWidget@@UEAAHW4Call@QMetaObject@@HPEAPEAX@Z
	mov	DWORD PTR _id$[rsp], eax
; Line 225
	cmp	DWORD PTR _id$[rsp], 0
	jge	SHORT $LN2@qt_metacal
; Line 226
	mov	eax, DWORD PTR _id$[rsp]
	jmp	SHORT $LN1@qt_metacal
$LN2@qt_metacal:
; Line 227
	cmp	DWORD PTR _c$[rsp], 0
	jne	SHORT $LN3@qt_metacal
; Line 228
	cmp	DWORD PTR _id$[rsp], 15
	jge	SHORT $LN5@qt_metacal
; Line 229
	mov	r9, QWORD PTR _a$[rsp]
	mov	r8d, DWORD PTR _id$[rsp]
	mov	edx, DWORD PTR _c$[rsp]
	mov	rcx, QWORD PTR this$[rsp]
	call	?qt_static_metacall@xGLWidget@@CAXPEAVQObject@@W4Call@QMetaObject@@HPEAPEAX@Z ; xGLWidget::qt_static_metacall
$LN5@qt_metacal:
; Line 230
	mov	eax, DWORD PTR _id$[rsp]
	sub	eax, 15
	mov	DWORD PTR _id$[rsp], eax
	jmp	SHORT $LN4@qt_metacal
$LN3@qt_metacal:
; Line 231
	cmp	DWORD PTR _c$[rsp], 12
	jne	SHORT $LN6@qt_metacal
; Line 232
	cmp	DWORD PTR _id$[rsp], 15
	jge	SHORT $LN7@qt_metacal
; Line 233
	mov	eax, 8
	imul	rax, rax, 0
	mov	rcx, QWORD PTR _a$[rsp]
	mov	rax, QWORD PTR [rcx+rax]
	mov	DWORD PTR [rax], -1
$LN7@qt_metacal:
; Line 234
	mov	eax, DWORD PTR _id$[rsp]
	sub	eax, 15
	mov	DWORD PTR _id$[rsp], eax
$LN6@qt_metacal:
$LN4@qt_metacal:
; Line 236
	mov	eax, DWORD PTR _id$[rsp]
$LN1@qt_metacal:
; Line 237
	add	rsp, 40					; 00000028H
	ret	0
?qt_metacall@xGLWidget@@UEAAHW4Call@QMetaObject@@HPEAPEAX@Z ENDP ; xGLWidget::qt_metacall
_TEXT	ENDS
; Function compile flags: /Odtp
_TEXT	SEGMENT
this$ = 48
_clname$ = 56
?qt_metacast@xGLWidget@@UEAAPEAXPEBD@Z PROC		; xGLWidget::qt_metacast
; File c:\xdynamics\xdynamics_gui\generatedfiles\debug\moc_xglwidget.cpp
; Line 215
$LN5:
	mov	QWORD PTR [rsp+16], rdx
	mov	QWORD PTR [rsp+8], rcx
	sub	rsp, 40					; 00000028H
; Line 216
	cmp	QWORD PTR _clname$[rsp], 0
	jne	SHORT $LN2@qt_metacas
	xor	eax, eax
	jmp	SHORT $LN1@qt_metacas
$LN2@qt_metacas:
; Line 217
	lea	rdx, OFFSET FLAT:?qt_meta_stringdata_xGLWidget@@3Uqt_meta_stringdata_xGLWidget_t@@B+480
	mov	rcx, QWORD PTR _clname$[rsp]
	call	strcmp
	test	eax, eax
	jne	SHORT $LN3@qt_metacas
; Line 218
	mov	rax, QWORD PTR this$[rsp]
	jmp	SHORT $LN1@qt_metacas
$LN3@qt_metacas:
; Line 219
	mov	rdx, QWORD PTR _clname$[rsp]
	mov	rcx, QWORD PTR this$[rsp]
	call	QWORD PTR __imp_?qt_metacast@QGLWidget@@UEAAPEAXPEBD@Z
$LN1@qt_metacas:
; Line 220
	add	rsp, 40					; 00000028H
	ret	0
?qt_metacast@xGLWidget@@UEAAPEAXPEBD@Z ENDP		; xGLWidget::qt_metacast
_TEXT	ENDS
; Function compile flags: /Odtp
_TEXT	SEGMENT
tv82 = 32
this$ = 64
?metaObject@xGLWidget@@UEBAPEBUQMetaObject@@XZ PROC	; xGLWidget::metaObject
; File c:\xdynamics\xdynamics_gui\generatedfiles\debug\moc_xglwidget.cpp
; Line 210
$LN5:
	mov	QWORD PTR [rsp+8], rcx
	sub	rsp, 56					; 00000038H
; Line 211
	mov	rax, QWORD PTR this$[rsp]
	add	rax, 8
	mov	rcx, rax
	call	??C?$QScopedPointer@VQObjectData@@U?$QScopedPointerDeleter@VQObjectData@@@@@@QEBAPEAVQObjectData@@XZ ; QScopedPointer<QObjectData,QScopedPointerDeleter<QObjectData> >::operator->
	cmp	QWORD PTR [rax+40], 0
	je	SHORT $LN3@metaObject
	mov	rax, QWORD PTR this$[rsp]
	add	rax, 8
	mov	rcx, rax
	call	??C?$QScopedPointer@VQObjectData@@U?$QScopedPointerDeleter@VQObjectData@@@@@@QEBAPEAVQObjectData@@XZ ; QScopedPointer<QObjectData,QScopedPointerDeleter<QObjectData> >::operator->
	mov	rcx, rax
	call	QWORD PTR __imp_?dynamicMetaObject@QObjectData@@QEBAPEAUQMetaObject@@XZ
	mov	QWORD PTR tv82[rsp], rax
	jmp	SHORT $LN4@metaObject
$LN3@metaObject:
	lea	rax, OFFSET FLAT:?staticMetaObject@xGLWidget@@2UQMetaObject@@B ; xGLWidget::staticMetaObject
	mov	QWORD PTR tv82[rsp], rax
$LN4@metaObject:
	mov	rax, QWORD PTR tv82[rsp]
; Line 212
	add	rsp, 56					; 00000038H
	ret	0
?metaObject@xGLWidget@@UEBAPEBUQMetaObject@@XZ ENDP	; xGLWidget::metaObject
_TEXT	ENDS
; Function compile flags: /Odtp
;	COMDAT ??__Fg_vglew@@YAXXZ
text$yd	SEGMENT
??__Fg_vglew@@YAXXZ PROC				; `dynamic atexit destructor for 'g_vglew'', COMDAT
	sub	rsp, 40					; 00000028H
	lea	rcx, OFFSET FLAT:?g_vglew@@3VxvGlew@@A
	call	??1xvGlew@@QEAA@XZ			; xvGlew::~xvGlew
	add	rsp, 40					; 00000028H
	ret	0
??__Fg_vglew@@YAXXZ ENDP				; `dynamic atexit destructor for 'g_vglew''
text$yd	ENDS
; Function compile flags: /Odtp
;	COMDAT ??__Eg_vglew@@YAXXZ
text$di	SEGMENT
??__Eg_vglew@@YAXXZ PROC				; `dynamic initializer for 'g_vglew'', COMDAT
; File c:\xdynamics\include\xdynamics_gui\xvglew.h
; Line 44
	sub	rsp, 40					; 00000028H
	lea	rcx, OFFSET FLAT:?g_vglew@@3VxvGlew@@A
	call	??0xvGlew@@QEAA@XZ			; xvGlew::xvGlew
	lea	rcx, OFFSET FLAT:??__Fg_vglew@@YAXXZ	; `dynamic atexit destructor for 'g_vglew''
	call	atexit
	add	rsp, 40					; 00000028H
	ret	0
??__Eg_vglew@@YAXXZ ENDP				; `dynamic initializer for 'g_vglew''
text$di	ENDS
; Function compile flags: /Odtp
;	COMDAT ??1xvGlew@@QEAA@XZ
_TEXT	SEGMENT
this$ = 8
??1xvGlew@@QEAA@XZ PROC					; xvGlew::~xvGlew, COMDAT
; File c:\xdynamics\include\xdynamics_gui\xvglew.h
; Line 30
	mov	QWORD PTR [rsp+8], rcx
	ret	0
??1xvGlew@@QEAA@XZ ENDP					; xvGlew::~xvGlew
_TEXT	ENDS
; Function compile flags: /Odtp
;	COMDAT ??0xvGlew@@QEAA@XZ
_TEXT	SEGMENT
this$ = 48
??0xvGlew@@QEAA@XZ PROC					; xvGlew::xvGlew, COMDAT
; File c:\xdynamics\include\xdynamics_gui\xvglew.h
; Line 19
$LN3:
	mov	QWORD PTR [rsp+8], rcx
	sub	rsp, 40					; 00000028H
; Line 18
	mov	rax, QWORD PTR this$[rsp]
	mov	BYTE PTR [rax], 0
; Line 20
	call	QWORD PTR __imp_glewInit
; Line 21
	mov	rax, QWORD PTR this$[rsp]
	mov	BYTE PTR [rax], 1
; Line 22
	mov	rax, QWORD PTR this$[rsp]
	add	rsp, 40					; 00000028H
	ret	0
??0xvGlew@@QEAA@XZ ENDP					; xvGlew::xvGlew
_TEXT	ENDS
; Function compile flags: /Odtp
;	COMDAT ??C?$QScopedPointer@VQObjectData@@U?$QScopedPointerDeleter@VQObjectData@@@@@@QEBAPEAVQObjectData@@XZ
_TEXT	SEGMENT
this$ = 8
??C?$QScopedPointer@VQObjectData@@U?$QScopedPointerDeleter@VQObjectData@@@@@@QEBAPEAVQObjectData@@XZ PROC ; QScopedPointer<QObjectData,QScopedPointerDeleter<QObjectData> >::operator->, COMDAT
; File c:\qt\5.12.3\msvc2017_64\include\qtcore\qscopedpointer.h
; Line 117
	mov	QWORD PTR [rsp+8], rcx
; Line 118
	mov	rax, QWORD PTR this$[rsp]
	mov	rax, QWORD PTR [rax]
; Line 119
	ret	0
??C?$QScopedPointer@VQObjectData@@U?$QScopedPointerDeleter@VQObjectData@@@@@@QEBAPEAVQObjectData@@XZ ENDP ; QScopedPointer<QObjectData,QScopedPointerDeleter<QObjectData> >::operator->
_TEXT	ENDS
; Function compile flags: /Odtp
;	COMDAT ?__empty_global_delete@@YAXPEAX_K@Z
_TEXT	SEGMENT
__formal$ = 8
__formal$ = 16
?__empty_global_delete@@YAXPEAX_K@Z PROC		; __empty_global_delete, COMDAT
; File c:\xdynamics\xdynamics_gui\generatedfiles\debug\moc_xglwidget.cpp
; Line 287
	mov	QWORD PTR [rsp+16], rdx
	mov	QWORD PTR [rsp+8], rcx
	ret	0
?__empty_global_delete@@YAXPEAX_K@Z ENDP		; __empty_global_delete
_TEXT	ENDS
; Function compile flags: /Odtp
;	COMDAT ?__empty_global_delete@@YAXPEAX@Z
_TEXT	SEGMENT
__formal$ = 8
?__empty_global_delete@@YAXPEAX@Z PROC			; __empty_global_delete, COMDAT
; File c:\xdynamics\xdynamics_gui\generatedfiles\debug\moc_xglwidget.cpp
; Line 287
	mov	QWORD PTR [rsp+8], rcx
	ret	0
?__empty_global_delete@@YAXPEAX@Z ENDP			; __empty_global_delete
_TEXT	ENDS
END
