; Listing generated by Microsoft (R) Optimizing Compiler Version 19.16.27034.0 

include listing.inc

INCLUDELIB MSVCRTD
INCLUDELIB OLDNAMES

CONST	SEGMENT
?qt_meta_stringdata_wpointmass@@3Uqt_meta_stringdata_wpointmass_t@@B DD 0ffffffffH ; qt_meta_stringdata_wpointmass
	DD	0aH
	DD	00H
	ORG $+4
	DQ	00000000000000a8H
	DD	0ffffffffH
	DD	01aH
	DD	00H
	ORG $+4
	DQ	000000000000009bH
	DD	0ffffffffH
	DD	00H
	DD	00H
	ORG $+4
	DQ	000000000000009eH
	DD	0ffffffffH
	DD	011H
	DD	00H
	ORG $+4
	DQ	0000000000000087H
	DD	0ffffffffH
	DD	0bH
	DD	00H
	ORG $+4
	DQ	0000000000000081H
	DD	0ffffffffH
	DD	03H
	DD	00H
	ORG $+4
	DQ	0000000000000075H
	DD	0ffffffffH
	DD	015H
	DD	00H
	ORG $+4
	DQ	0000000000000061H
	DB	077H
	DB	070H
	DB	06fH
	DB	069H
	DB	06eH
	DB	074H
	DB	06dH
	DB	061H
	DB	073H
	DB	073H
	DB	00H
	DB	063H
	DB	06cH
	DB	069H
	DB	063H
	DB	06bH
	DB	045H
	DB	06eH
	DB	061H
	DB	062H
	DB	06cH
	DB	065H
	DB	043H
	DB	06fH
	DB	06eH
	DB	06eH
	DB	065H
	DB	063H
	DB	074H
	DB	047H
	DB	065H
	DB	06fH
	DB	06dH
	DB	065H
	DB	074H
	DB	072H
	DB	079H
	DB	00H
	DB	00H
	DB	055H
	DB	070H
	DB	064H
	DB	061H
	DB	074H
	DB	065H
	DB	049H
	DB	06eH
	DB	066H
	DB	06fH
	DB	072H
	DB	06dH
	DB	061H
	DB	074H
	DB	069H
	DB	06fH
	DB	06eH
	DB	00H
	DB	078H
	DB	050H
	DB	06fH
	DB	069H
	DB	06eH
	DB	074H
	DB	04dH
	DB	061H
	DB	073H
	DB	073H
	DB	02aH
	DB	00H
	DB	078H
	DB	070H
	DB	06dH
	DB	00H
	DB	045H
	DB	06eH
	DB	061H
	DB	062H
	DB	06cH
	DB	065H
	DB	043H
	DB	06fH
	DB	06eH
	DB	06eH
	DB	065H
	DB	063H
	DB	074H
	DB	047H
	DB	065H
	DB	06fH
	DB	06dH
	DB	065H
	DB	074H
	DB	072H
	DB	079H
	DB	00H
	ORG $+1
$SG151047 DB	'c:\qt\5.12.3\msvc2017_64\include\qtcore\qmetatype.h', 00H
	ORG $+4
?qt_meta_data_wpointmass@@3QBIB DD 08H			; qt_meta_data_wpointmass
	DD	00H
	DD	00H
	DD	00H
	DD	03H
	DD	0eH
	DD	00H
	DD	00H
	DD	00H
	DD	00H
	DD	00H
	DD	00H
	DD	00H
	DD	01H
	DD	01H
	DD	01H
	DD	01dH
	DD	02H
	DD	06H
	DD	03H
	DD	01H
	DD	020H
	DD	02H
	DD	0aH
	DD	06H
	DD	00H
	DD	023H
	DD	02H
	DD	08H
	DD	02bH
	DD	01H
	DD	02H
	DD	02bH
	DD	080000004H
	DD	05H
	DD	02bH
	DD	00H
	ORG $+4
$SG139618 DB	'Ui::wpointmass', 00H
	ORG $+9
$SG151048 DB	'qRegisterNormalizedMetaType was called with a not normal'
	DB	'ized type name, please call qRegisterMetaType instead.', 00H
	ORG $+1
$SG151049 DB	'qRegisterNormalizedMetaType', 00H
	ORG $+4
$SG154048 DB	'c:\qt\5.12.3\msvc2017_64\include\qtcore\qmetatype.h', 00H
	ORG $+12
$SG154049 DB	'qRegisterNormalizedMetaType was called with a not normal'
	DB	'ized type name, please call qRegisterMetaType instead.', 00H
	ORG $+1
$SG154050 DB	'qRegisterNormalizedMetaType', 00H
	ORG $+4
$SG154409 DB	'c:\qt\5.12.3\msvc2017_64\include\qtcore\qmetatype.h', 00H
	ORG $+12
$SG154410 DB	'qRegisterNormalizedMetaType was called with a not normal'
	DB	'ized type name, please call qRegisterMetaType instead.', 00H
	ORG $+1
$SG154411 DB	'qRegisterNormalizedMetaType', 00H
	ORG $+4
$SG154770 DB	'c:\qt\5.12.3\msvc2017_64\include\qtcore\qmetatype.h', 00H
	ORG $+12
$SG154771 DB	'qRegisterNormalizedMetaType was called with a not normal'
	DB	'ized type name, please call qRegisterMetaType instead.', 00H
	ORG $+1
$SG154772 DB	'qRegisterNormalizedMetaType', 00H
	ORG $+4
$SG155624 DB	'c:\qt\5.12.3\msvc2017_64\include\qtcore\qmetatype.h', 00H
	ORG $+12
$SG155625 DB	'qRegisterNormalizedMetaType was called with a not normal'
	DB	'ized type name, please call qRegisterMetaType instead.', 00H
	ORG $+1
$SG155626 DB	'qRegisterNormalizedMetaType', 00H
CONST	ENDS
PUBLIC	?__empty_global_delete@@YAXPEAX@Z		; __empty_global_delete
PUBLIC	?__empty_global_delete@@YAXPEAX_K@Z		; __empty_global_delete
PUBLIC	??C?$QScopedPointer@VQObjectData@@U?$QScopedPointerDeleter@VQObjectData@@@@@@QEBAPEAVQObjectData@@XZ ; QScopedPointer<QObjectData,QScopedPointerDeleter<QObjectData> >::operator->
PUBLIC	?metaObject@wpointmass@@UEBAPEBUQMetaObject@@XZ	; wpointmass::metaObject
PUBLIC	?qt_metacast@wpointmass@@UEAAPEAXPEBD@Z		; wpointmass::qt_metacast
PUBLIC	?qt_metacall@wpointmass@@UEAAHW4Call@QMetaObject@@HPEAPEAX@Z ; wpointmass::qt_metacall
PUBLIC	?qt_static_metacall@wpointmass@@CAXPEAVQObject@@W4Call@QMetaObject@@HPEAPEAX@Z ; wpointmass::qt_static_metacall
PUBLIC	?clickEnableConnectGeometry@wpointmass@@QEAAX_N@Z ; wpointmass::clickEnableConnectGeometry
PUBLIC	?staticMetaObject@wpointmass@@2UQMetaObject@@B	; wpointmass::staticMetaObject
EXTRN	strcmp:PROC
EXTRN	__imp_?activate@QMetaObject@@SAXPEAVQObject@@PEBU1@HPEAPEAX@Z:PROC
EXTRN	__imp_?dynamicMetaObject@QObjectData@@QEBAPEAUQMetaObject@@XZ:PROC
EXTRN	__imp_?qt_metacast@QWidget@@UEAAPEAXPEBD@Z:PROC
EXTRN	__imp_?qt_metacall@QWidget@@UEAAHW4Call@QMetaObject@@HPEAPEAX@Z:PROC
EXTRN	?UpdateInformation@wpointmass@@QEAAXPEAVxPointMass@@@Z:PROC ; wpointmass::UpdateInformation
EXTRN	?EnableConnectGeometry@wpointmass@@AEAAXXZ:PROC	; wpointmass::EnableConnectGeometry
EXTRN	__imp_?staticMetaObject@QWidget@@2UQMetaObject@@B:BYTE
_BSS	SEGMENT
?staticMetaObject@wpointmass@@2UQMetaObject@@B DB 030H DUP (?) ; wpointmass::staticMetaObject
_BSS	ENDS
pdata	SEGMENT
$pdata$?metaObject@wpointmass@@UEBAPEBUQMetaObject@@XZ DD imagerel $LN5
	DD	imagerel $LN5+88
	DD	imagerel $unwind$?metaObject@wpointmass@@UEBAPEBUQMetaObject@@XZ
$pdata$?qt_metacast@wpointmass@@UEAAPEAXPEBD@Z DD imagerel $LN8
	DD	imagerel $LN8+136
	DD	imagerel $unwind$?qt_metacast@wpointmass@@UEAAPEAXPEBD@Z
$pdata$?qt_metacall@wpointmass@@UEAAHW4Call@QMetaObject@@HPEAPEAX@Z DD imagerel $LN9
	DD	imagerel $LN9+174
	DD	imagerel $unwind$?qt_metacall@wpointmass@@UEAAHW4Call@QMetaObject@@HPEAPEAX@Z
$pdata$?qt_static_metacall@wpointmass@@CAXPEAVQObject@@W4Call@QMetaObject@@HPEAPEAX@Z DD imagerel $LN16
	DD	imagerel $LN16+326
	DD	imagerel $unwind$?qt_static_metacall@wpointmass@@CAXPEAVQObject@@W4Call@QMetaObject@@HPEAPEAX@Z
$pdata$?clickEnableConnectGeometry@wpointmass@@QEAAX_N@Z DD imagerel $LN3
	DD	imagerel $LN3+63
	DD	imagerel $unwind$?clickEnableConnectGeometry@wpointmass@@QEAAX_N@Z
pdata	ENDS
CRT$XCU	SEGMENT
??staticMetaObject$initializer$@wpointmass@@2P6AXXZEA@@3P6AXXZEA DQ FLAT:??__E?staticMetaObject@wpointmass@@2UQMetaObject@@B@@YAXXZ ; ??staticMetaObject$initializer$@wpointmass@@2P6AXXZEA@@3P6AXXZEA
CRT$XCU	ENDS
xdata	SEGMENT
$unwind$?metaObject@wpointmass@@UEBAPEBUQMetaObject@@XZ DD 010901H
	DD	06209H
$unwind$?qt_metacast@wpointmass@@UEAAPEAXPEBD@Z DD 010e01H
	DD	0620eH
$unwind$?qt_metacall@wpointmass@@UEAAHW4Call@QMetaObject@@HPEAPEAX@Z DD 011701H
	DD	04217H
$unwind$?qt_static_metacall@wpointmass@@CAXPEAVQObject@@W4Call@QMetaObject@@HPEAPEAX@Z DD 011701H
	DD	0a217H
$unwind$?clickEnableConnectGeometry@wpointmass@@QEAAX_N@Z DD 010d01H
	DD	0620dH
xdata	ENDS
; Function compile flags: /Odtp
;	COMDAT ??__E?staticMetaObject@wpointmass@@2UQMetaObject@@B@@YAXXZ
text$di	SEGMENT
??__E?staticMetaObject@wpointmass@@2UQMetaObject@@B@@YAXXZ PROC ; `dynamic initializer for 'wpointmass::staticMetaObject'', COMDAT
; File c:\xdynamics\xdynamics_gui\generatedfiles\debug\moc_xpointmasswidget.cpp
; Line 103
	mov	rax, QWORD PTR __imp_?staticMetaObject@QWidget@@2UQMetaObject@@B
	mov	QWORD PTR ?staticMetaObject@wpointmass@@2UQMetaObject@@B, rax
; Line 104
	lea	rax, OFFSET FLAT:?qt_meta_stringdata_wpointmass@@3Uqt_meta_stringdata_wpointmass_t@@B
	mov	QWORD PTR ?staticMetaObject@wpointmass@@2UQMetaObject@@B+8, rax
; Line 105
	lea	rax, OFFSET FLAT:?qt_meta_data_wpointmass@@3QBIB
	mov	QWORD PTR ?staticMetaObject@wpointmass@@2UQMetaObject@@B+16, rax
; Line 106
	lea	rax, OFFSET FLAT:?qt_static_metacall@wpointmass@@CAXPEAVQObject@@W4Call@QMetaObject@@HPEAPEAX@Z ; wpointmass::qt_static_metacall
	mov	QWORD PTR ?staticMetaObject@wpointmass@@2UQMetaObject@@B+24, rax
; Line 107
	mov	QWORD PTR ?staticMetaObject@wpointmass@@2UQMetaObject@@B+32, 0
; Line 108
	mov	QWORD PTR ?staticMetaObject@wpointmass@@2UQMetaObject@@B+40, 0
	ret	0
??__E?staticMetaObject@wpointmass@@2UQMetaObject@@B@@YAXXZ ENDP ; `dynamic initializer for 'wpointmass::staticMetaObject''
text$di	ENDS
; Function compile flags: /Odtp
_TEXT	SEGMENT
_a$ = 32
this$ = 64
_t1$ = 72
?clickEnableConnectGeometry@wpointmass@@QEAAX_N@Z PROC	; wpointmass::clickEnableConnectGeometry
; File c:\xdynamics\xdynamics_gui\generatedfiles\debug\moc_xpointmasswidget.cpp
; Line 146
$LN3:
	mov	BYTE PTR [rsp+16], dl
	mov	QWORD PTR [rsp+8], rcx
	sub	rsp, 56					; 00000038H
; Line 147
	mov	QWORD PTR _a$[rsp], 0
	lea	rax, QWORD PTR _t1$[rsp]
	mov	QWORD PTR _a$[rsp+8], rax
; Line 148
	lea	r9, QWORD PTR _a$[rsp]
	xor	r8d, r8d
	lea	rdx, OFFSET FLAT:?staticMetaObject@wpointmass@@2UQMetaObject@@B ; wpointmass::staticMetaObject
	mov	rcx, QWORD PTR this$[rsp]
	call	QWORD PTR __imp_?activate@QMetaObject@@SAXPEAVQObject@@PEBU1@HPEAPEAX@Z
; Line 149
	add	rsp, 56					; 00000038H
	ret	0
?clickEnableConnectGeometry@wpointmass@@QEAAX_N@Z ENDP	; wpointmass::clickEnableConnectGeometry
_TEXT	ENDS
; Function compile flags: /Odtp
_TEXT	SEGMENT
tv69 = 32
tv131 = 36
_t$1 = 40
result$2 = 48
$T3 = 56
_o$ = 96
_c$ = 104
_id$ = 112
_a$ = 120
?qt_static_metacall@wpointmass@@CAXPEAVQObject@@W4Call@QMetaObject@@HPEAPEAX@Z PROC ; wpointmass::qt_static_metacall
; File c:\xdynamics\xdynamics_gui\generatedfiles\debug\moc_xpointmasswidget.cpp
; Line 80
$LN16:
	mov	QWORD PTR [rsp+32], r9
	mov	DWORD PTR [rsp+24], r8d
	mov	DWORD PTR [rsp+16], edx
	mov	QWORD PTR [rsp+8], rcx
	sub	rsp, 88					; 00000058H
; Line 81
	cmp	DWORD PTR _c$[rsp], 0
	jne	SHORT $LN4@qt_static_
; Line 82
	mov	rax, QWORD PTR _o$[rsp]
	mov	QWORD PTR _t$1[rsp], rax
; Line 84
	mov	eax, DWORD PTR _id$[rsp]
	mov	DWORD PTR tv69[rsp], eax
	cmp	DWORD PTR tv69[rsp], 0
	je	SHORT $LN6@qt_static_
	cmp	DWORD PTR tv69[rsp], 1
	je	SHORT $LN7@qt_static_
	cmp	DWORD PTR tv69[rsp], 2
	je	SHORT $LN8@qt_static_
	jmp	SHORT $LN9@qt_static_
$LN6@qt_static_:
; Line 85
	mov	eax, 8
	imul	rax, rax, 1
	mov	rcx, QWORD PTR _a$[rsp]
	mov	rax, QWORD PTR [rcx+rax]
	movzx	edx, BYTE PTR [rax]
	mov	rcx, QWORD PTR _t$1[rsp]
	call	?clickEnableConnectGeometry@wpointmass@@QEAAX_N@Z ; wpointmass::clickEnableConnectGeometry
	jmp	SHORT $LN2@qt_static_
$LN7@qt_static_:
; Line 86
	mov	eax, 8
	imul	rax, rax, 1
	mov	rcx, QWORD PTR _a$[rsp]
	mov	rax, QWORD PTR [rcx+rax]
	mov	rdx, QWORD PTR [rax]
	mov	rcx, QWORD PTR _t$1[rsp]
	call	?UpdateInformation@wpointmass@@QEAAXPEAVxPointMass@@@Z ; wpointmass::UpdateInformation
	jmp	SHORT $LN2@qt_static_
$LN8@qt_static_:
; Line 87
	mov	rcx, QWORD PTR _t$1[rsp]
	call	?EnableConnectGeometry@wpointmass@@AEAAXXZ ; wpointmass::EnableConnectGeometry
$LN9@qt_static_:
$LN2@qt_static_:
; Line 90
	jmp	$LN5@qt_static_
$LN4@qt_static_:
	cmp	DWORD PTR _c$[rsp], 10
	jne	$LN10@qt_static_
; Line 91
	mov	eax, 8
	imul	rax, rax, 0
	mov	rcx, QWORD PTR _a$[rsp]
	mov	rax, QWORD PTR [rcx+rax]
	mov	QWORD PTR result$2[rsp], rax
; Line 94
	lea	rax, OFFSET FLAT:?clickEnableConnectGeometry@wpointmass@@QEAAX_N@Z ; wpointmass::clickEnableConnectGeometry
	mov	QWORD PTR $T3[rsp], rax
	mov	DWORD PTR $T3[rsp+8], 0
	mov	eax, 8
	imul	rax, rax, 1
	mov	rcx, QWORD PTR _a$[rsp]
	mov	rax, QWORD PTR [rcx+rax]
	mov	rcx, QWORD PTR $T3[rsp]
	cmp	QWORD PTR [rax], rcx
	jne	SHORT $LN14@qt_static_
	mov	eax, 8
	imul	rax, rax, 1
	mov	rcx, QWORD PTR _a$[rsp]
	mov	rax, QWORD PTR [rcx+rax]
	cmp	QWORD PTR [rax], 0
	je	SHORT $LN13@qt_static_
	mov	eax, 8
	imul	rax, rax, 1
	mov	rcx, QWORD PTR _a$[rsp]
	mov	rax, QWORD PTR [rcx+rax]
	mov	ecx, DWORD PTR $T3[rsp+8]
	cmp	DWORD PTR [rax+8], ecx
	jne	SHORT $LN14@qt_static_
$LN13@qt_static_:
	mov	DWORD PTR tv131[rsp], 1
	jmp	SHORT $LN15@qt_static_
$LN14@qt_static_:
	mov	DWORD PTR tv131[rsp], 0
$LN15@qt_static_:
	cmp	DWORD PTR tv131[rsp], 0
	je	SHORT $LN11@qt_static_
; Line 95
	mov	rax, QWORD PTR result$2[rsp]
	mov	DWORD PTR [rax], 0
$LN11@qt_static_:
$LN10@qt_static_:
$LN5@qt_static_:
; Line 100
	add	rsp, 88					; 00000058H
	ret	0
?qt_static_metacall@wpointmass@@CAXPEAVQObject@@W4Call@QMetaObject@@HPEAPEAX@Z ENDP ; wpointmass::qt_static_metacall
_TEXT	ENDS
; Function compile flags: /Odtp
_TEXT	SEGMENT
this$ = 48
_c$ = 56
_id$ = 64
_a$ = 72
?qt_metacall@wpointmass@@UEAAHW4Call@QMetaObject@@HPEAPEAX@Z PROC ; wpointmass::qt_metacall
; File c:\xdynamics\xdynamics_gui\generatedfiles\debug\moc_xpointmasswidget.cpp
; Line 128
$LN9:
	mov	QWORD PTR [rsp+32], r9
	mov	DWORD PTR [rsp+24], r8d
	mov	DWORD PTR [rsp+16], edx
	mov	QWORD PTR [rsp+8], rcx
	sub	rsp, 40					; 00000028H
; Line 129
	mov	r9, QWORD PTR _a$[rsp]
	mov	r8d, DWORD PTR _id$[rsp]
	mov	edx, DWORD PTR _c$[rsp]
	mov	rcx, QWORD PTR this$[rsp]
	call	QWORD PTR __imp_?qt_metacall@QWidget@@UEAAHW4Call@QMetaObject@@HPEAPEAX@Z
	mov	DWORD PTR _id$[rsp], eax
; Line 130
	cmp	DWORD PTR _id$[rsp], 0
	jge	SHORT $LN2@qt_metacal
; Line 131
	mov	eax, DWORD PTR _id$[rsp]
	jmp	SHORT $LN1@qt_metacal
$LN2@qt_metacal:
; Line 132
	cmp	DWORD PTR _c$[rsp], 0
	jne	SHORT $LN3@qt_metacal
; Line 133
	cmp	DWORD PTR _id$[rsp], 3
	jge	SHORT $LN5@qt_metacal
; Line 134
	mov	r9, QWORD PTR _a$[rsp]
	mov	r8d, DWORD PTR _id$[rsp]
	mov	edx, DWORD PTR _c$[rsp]
	mov	rcx, QWORD PTR this$[rsp]
	call	?qt_static_metacall@wpointmass@@CAXPEAVQObject@@W4Call@QMetaObject@@HPEAPEAX@Z ; wpointmass::qt_static_metacall
$LN5@qt_metacal:
; Line 135
	mov	eax, DWORD PTR _id$[rsp]
	sub	eax, 3
	mov	DWORD PTR _id$[rsp], eax
	jmp	SHORT $LN4@qt_metacal
$LN3@qt_metacal:
; Line 136
	cmp	DWORD PTR _c$[rsp], 12
	jne	SHORT $LN6@qt_metacal
; Line 137
	cmp	DWORD PTR _id$[rsp], 3
	jge	SHORT $LN7@qt_metacal
; Line 138
	mov	eax, 8
	imul	rax, rax, 0
	mov	rcx, QWORD PTR _a$[rsp]
	mov	rax, QWORD PTR [rcx+rax]
	mov	DWORD PTR [rax], -1
$LN7@qt_metacal:
; Line 139
	mov	eax, DWORD PTR _id$[rsp]
	sub	eax, 3
	mov	DWORD PTR _id$[rsp], eax
$LN6@qt_metacal:
$LN4@qt_metacal:
; Line 141
	mov	eax, DWORD PTR _id$[rsp]
$LN1@qt_metacal:
; Line 142
	add	rsp, 40					; 00000028H
	ret	0
?qt_metacall@wpointmass@@UEAAHW4Call@QMetaObject@@HPEAPEAX@Z ENDP ; wpointmass::qt_metacall
_TEXT	ENDS
; Function compile flags: /Odtp
_TEXT	SEGMENT
tv77 = 32
this$ = 64
_clname$ = 72
?qt_metacast@wpointmass@@UEAAPEAXPEBD@Z PROC		; wpointmass::qt_metacast
; File c:\xdynamics\xdynamics_gui\generatedfiles\debug\moc_xpointmasswidget.cpp
; Line 118
$LN8:
	mov	QWORD PTR [rsp+16], rdx
	mov	QWORD PTR [rsp+8], rcx
	sub	rsp, 56					; 00000038H
; Line 119
	cmp	QWORD PTR _clname$[rsp], 0
	jne	SHORT $LN2@qt_metacas
	xor	eax, eax
	jmp	SHORT $LN1@qt_metacas
$LN2@qt_metacas:
; Line 120
	lea	rdx, OFFSET FLAT:?qt_meta_stringdata_wpointmass@@3Uqt_meta_stringdata_wpointmass_t@@B+168
	mov	rcx, QWORD PTR _clname$[rsp]
	call	strcmp
	test	eax, eax
	jne	SHORT $LN3@qt_metacas
; Line 121
	mov	rax, QWORD PTR this$[rsp]
	jmp	SHORT $LN1@qt_metacas
$LN3@qt_metacas:
; Line 122
	lea	rdx, OFFSET FLAT:$SG139618
	mov	rcx, QWORD PTR _clname$[rsp]
	call	strcmp
	test	eax, eax
	jne	SHORT $LN4@qt_metacas
; Line 123
	cmp	QWORD PTR this$[rsp], 0
	je	SHORT $LN6@qt_metacas
	mov	rax, QWORD PTR this$[rsp]
	add	rax, 48					; 00000030H
	mov	QWORD PTR tv77[rsp], rax
	jmp	SHORT $LN7@qt_metacas
$LN6@qt_metacas:
	mov	QWORD PTR tv77[rsp], 0
$LN7@qt_metacas:
	mov	rax, QWORD PTR tv77[rsp]
	jmp	SHORT $LN1@qt_metacas
$LN4@qt_metacas:
; Line 124
	mov	rdx, QWORD PTR _clname$[rsp]
	mov	rcx, QWORD PTR this$[rsp]
	call	QWORD PTR __imp_?qt_metacast@QWidget@@UEAAPEAXPEBD@Z
$LN1@qt_metacas:
; Line 125
	add	rsp, 56					; 00000038H
	ret	0
?qt_metacast@wpointmass@@UEAAPEAXPEBD@Z ENDP		; wpointmass::qt_metacast
_TEXT	ENDS
; Function compile flags: /Odtp
_TEXT	SEGMENT
tv82 = 32
this$ = 64
?metaObject@wpointmass@@UEBAPEBUQMetaObject@@XZ PROC	; wpointmass::metaObject
; File c:\xdynamics\xdynamics_gui\generatedfiles\debug\moc_xpointmasswidget.cpp
; Line 113
$LN5:
	mov	QWORD PTR [rsp+8], rcx
	sub	rsp, 56					; 00000038H
; Line 114
	mov	rax, QWORD PTR this$[rsp]
	add	rax, 8
	mov	rcx, rax
	call	??C?$QScopedPointer@VQObjectData@@U?$QScopedPointerDeleter@VQObjectData@@@@@@QEBAPEAVQObjectData@@XZ ; QScopedPointer<QObjectData,QScopedPointerDeleter<QObjectData> >::operator->
	cmp	QWORD PTR [rax+40], 0
	je	SHORT $LN3@metaObject
	mov	rax, QWORD PTR this$[rsp]
	add	rax, 8
	mov	rcx, rax
	call	??C?$QScopedPointer@VQObjectData@@U?$QScopedPointerDeleter@VQObjectData@@@@@@QEBAPEAVQObjectData@@XZ ; QScopedPointer<QObjectData,QScopedPointerDeleter<QObjectData> >::operator->
	mov	rcx, rax
	call	QWORD PTR __imp_?dynamicMetaObject@QObjectData@@QEBAPEAUQMetaObject@@XZ
	mov	QWORD PTR tv82[rsp], rax
	jmp	SHORT $LN4@metaObject
$LN3@metaObject:
	lea	rax, OFFSET FLAT:?staticMetaObject@wpointmass@@2UQMetaObject@@B ; wpointmass::staticMetaObject
	mov	QWORD PTR tv82[rsp], rax
$LN4@metaObject:
	mov	rax, QWORD PTR tv82[rsp]
; Line 115
	add	rsp, 56					; 00000038H
	ret	0
?metaObject@wpointmass@@UEBAPEBUQMetaObject@@XZ ENDP	; wpointmass::metaObject
_TEXT	ENDS
; Function compile flags: /Odtp
;	COMDAT ??C?$QScopedPointer@VQObjectData@@U?$QScopedPointerDeleter@VQObjectData@@@@@@QEBAPEAVQObjectData@@XZ
_TEXT	SEGMENT
this$ = 8
??C?$QScopedPointer@VQObjectData@@U?$QScopedPointerDeleter@VQObjectData@@@@@@QEBAPEAVQObjectData@@XZ PROC ; QScopedPointer<QObjectData,QScopedPointerDeleter<QObjectData> >::operator->, COMDAT
; File c:\qt\5.12.3\msvc2017_64\include\qtcore\qscopedpointer.h
; Line 117
	mov	QWORD PTR [rsp+8], rcx
; Line 118
	mov	rax, QWORD PTR this$[rsp]
	mov	rax, QWORD PTR [rax]
; Line 119
	ret	0
??C?$QScopedPointer@VQObjectData@@U?$QScopedPointerDeleter@VQObjectData@@@@@@QEBAPEAVQObjectData@@XZ ENDP ; QScopedPointer<QObjectData,QScopedPointerDeleter<QObjectData> >::operator->
_TEXT	ENDS
; Function compile flags: /Odtp
;	COMDAT ?__empty_global_delete@@YAXPEAX_K@Z
_TEXT	SEGMENT
__formal$ = 8
__formal$ = 16
?__empty_global_delete@@YAXPEAX_K@Z PROC		; __empty_global_delete, COMDAT
; File c:\xdynamics\xdynamics_gui\generatedfiles\debug\moc_xpointmasswidget.cpp
; Line 152
	mov	QWORD PTR [rsp+16], rdx
	mov	QWORD PTR [rsp+8], rcx
	ret	0
?__empty_global_delete@@YAXPEAX_K@Z ENDP		; __empty_global_delete
_TEXT	ENDS
; Function compile flags: /Odtp
;	COMDAT ?__empty_global_delete@@YAXPEAX@Z
_TEXT	SEGMENT
__formal$ = 8
?__empty_global_delete@@YAXPEAX@Z PROC			; __empty_global_delete, COMDAT
; File c:\xdynamics\xdynamics_gui\generatedfiles\debug\moc_xpointmasswidget.cpp
; Line 152
	mov	QWORD PTR [rsp+8], rcx
	ret	0
?__empty_global_delete@@YAXPEAX@Z ENDP			; __empty_global_delete
_TEXT	ENDS
END
