; Listing generated by Microsoft (R) Optimizing Compiler Version 19.16.27034.0 

include listing.inc

INCLUDELIB MSVCRTD
INCLUDELIB OLDNAMES

CONST	SEGMENT
$SG279366 DB	'c:\qt\5.12.3\msvc2017_64\include\qtcore\qmetatype.h', 00H
	ORG $+12
$SG279367 DB	'qRegisterNormalizedMetaType was called with a not normal'
	DB	'ized type name, please call qRegisterMetaType instead.', 00H
	ORG $+1
$SG279368 DB	'qRegisterNormalizedMetaType', 00H
	ORG $+4
$SG279735 DB	'c:\qt\5.12.3\msvc2017_64\include\qtcore\qmetatype.h', 00H
	ORG $+12
$SG279736 DB	'qRegisterNormalizedMetaType was called with a not normal'
	DB	'ized type name, please call qRegisterMetaType instead.', 00H
	ORG $+1
$SG279737 DB	'qRegisterNormalizedMetaType', 00H
	ORG $+4
?qt_meta_stringdata_xdynamics_gui@@3Uqt_meta_stringdata_xdynamics_gui_t@@B DD 0ffffffffH ; qt_meta_stringdata_xdynamics_gui
	DD	0dH
	DD	00H
	ORG $+4
	DQ	0000000000000318H
	DD	0ffffffffH
	DD	04H
	DD	00H
	ORG $+4
	DQ	000000000000030eH
	DD	0ffffffffH
	DD	00H
	DD	00H
	ORG $+4
	DQ	00000000000002fbH
	DD	0ffffffffH
	DD	05H
	DD	00H
	ORG $+4
	DQ	00000000000002e4H
	DD	0ffffffffH
	DD	05H
	DD	00H
	ORG $+4
	DQ	00000000000002d2H
	DD	0ffffffffH
	DD	09H
	DD	00H
	ORG $+4
	DQ	00000000000002c0H
	DD	0ffffffffH
	DD	05H
	DD	00H
	ORG $+4
	DQ	00000000000002b2H
	DD	0ffffffffH
	DD	06H
	DD	00H
	ORG $+4
	DQ	00000000000002a0H
	DD	0ffffffffH
	DD	014H
	DD	00H
	ORG $+4
	DQ	000000000000028fH
	DD	0ffffffffH
	DD	0cH
	DD	00H
	ORG $+4
	DQ	000000000000028cH
	DD	0ffffffffH
	DD	013H
	DD	00H
	ORG $+4
	DQ	0000000000000281H
	DD	0ffffffffH
	DD	0bH
	DD	00H
	ORG $+4
	DQ	000000000000027dH
	DD	0ffffffffH
	DD	010H
	DD	00H
	ORG $+4
	DQ	0000000000000271H
	DD	0ffffffffH
	DD	08H
	DD	00H
	ORG $+4
	DQ	000000000000026aH
	DD	0ffffffffH
	DD	014H
	DD	00H
	ORG $+4
	DQ	000000000000025bH
	DD	0ffffffffH
	DD	015H
	DD	00H
	ORG $+4
	DQ	0000000000000258H
	DD	0ffffffffH
	DD	010H
	DD	00H
	ORG $+4
	DQ	0000000000000256H
	DD	0ffffffffH
	DD	010H
	DD	00H
	ORG $+4
	DQ	000000000000024fH
	DD	0ffffffffH
	DD	012H
	DD	00H
	ORG $+4
	DQ	0000000000000248H
	DD	0ffffffffH
	DD	011H
	DD	00H
	ORG $+4
	DQ	0000000000000243H
	DD	0ffffffffH
	DD	01aH
	DD	00H
	ORG $+4
	DQ	000000000000023dH
	DD	0ffffffffH
	DD	01fH
	DD	00H
	ORG $+4
	DQ	0000000000000240H
	DD	0ffffffffH
	DD	015H
	DD	00H
	ORG $+4
	DQ	0000000000000248H
	DD	0ffffffffH
	DD	018H
	DD	00H
	ORG $+4
	DQ	0000000000000246H
	DD	0ffffffffH
	DD	013H
	DD	00H
	ORG $+4
	DQ	0000000000000247H
	DD	0ffffffffH
	DD	02H
	DD	00H
	ORG $+4
	DQ	0000000000000243H
	DD	0ffffffffH
	DD	0fH
	DD	00H
	ORG $+4
	DQ	000000000000022eH
	DD	0ffffffffH
	DD	03H
	DD	00H
	ORG $+4
	DQ	0000000000000226H
	DD	0ffffffffH
	DD	028H
	DD	00H
	ORG $+4
	DQ	0000000000000212H
	DD	0ffffffffH
	DD	016H
	DD	00H
	ORG $+4
	DQ	0000000000000223H
	DD	0ffffffffH
	DD	025H
	DD	00H
	ORG $+4
	DQ	0000000000000222H
	DD	0ffffffffH
	DD	011H
	DD	00H
	ORG $+4
	DQ	0000000000000230H
	DD	0ffffffffH
	DD	011H
	DD	00H
	ORG $+4
	DQ	000000000000022aH
	DB	078H
	DB	064H
	DB	079H
	DB	06eH
	DB	061H
	DB	06dH
	DB	069H
	DB	063H
	DB	073H
	DB	05fH
	DB	067H
	DB	075H
	DB	069H
	DB	00H
	DB	078H
	DB	04eH
	DB	065H
	DB	077H
	DB	00H
	DB	00H
	DB	078H
	DB	053H
	DB	061H
	DB	076H
	DB	065H
	DB	00H
	DB	078H
	DB	04fH
	DB	070H
	DB	065H
	DB	06eH
	DB	00H
	DB	078H
	DB	043H
	DB	079H
	DB	06cH
	DB	069H
	DB	06eH
	DB	064H
	DB	065H
	DB	072H
	DB	00H
	DB	078H
	DB	043H
	DB	075H
	DB	062H
	DB	065H
	DB	00H
	DB	078H
	DB	043H
	DB	068H
	DB	061H
	DB	072H
	DB	074H
	DB	00H
	DB	078H
	DB	047H
	DB	065H
	DB	074H
	DB	053H
	DB	069H
	DB	06dH
	DB	075H
	DB	06cH
	DB	061H
	DB	074H
	DB	069H
	DB	06fH
	DB	06eH
	DB	057H
	DB	069H
	DB	064H
	DB	067H
	DB	065H
	DB	074H
	DB	00H
	DB	077H
	DB	073H
	DB	069H
	DB	06dH
	DB	075H
	DB	06cH
	DB	061H
	DB	074H
	DB	069H
	DB	06fH
	DB	06eH
	DB	02aH
	DB	00H
	DB	078H
	DB	047H
	DB	065H
	DB	074H
	DB	050H
	DB	06fH
	DB	069H
	DB	06eH
	DB	074H
	DB	04dH
	DB	061H
	DB	073H
	DB	073H
	DB	057H
	DB	069H
	DB	064H
	DB	067H
	DB	065H
	DB	074H
	DB	00H
	DB	077H
	DB	070H
	DB	06fH
	DB	069H
	DB	06eH
	DB	074H
	DB	06dH
	DB	061H
	DB	073H
	DB	073H
	DB	02aH
	DB	00H
	DB	078H
	DB	047H
	DB	065H
	DB	074H
	DB	052H
	DB	065H
	DB	073H
	DB	075H
	DB	06cH
	DB	074H
	DB	057H
	DB	069H
	DB	064H
	DB	067H
	DB	065H
	DB	074H
	DB	00H
	DB	077H
	DB	072H
	DB	065H
	DB	073H
	DB	075H
	DB	06cH
	DB	074H
	DB	02aH
	DB	00H
	DB	078H
	DB	052H
	DB	075H
	DB	06eH
	DB	053H
	DB	069H
	DB	06dH
	DB	075H
	DB	06cH
	DB	061H
	DB	074H
	DB	069H
	DB	06fH
	DB	06eH
	DB	054H
	DB	068H
	DB	072H
	DB	065H
	DB	061H
	DB	064H
	DB	00H
	DB	078H
	DB	045H
	DB	078H
	DB	069H
	DB	074H
	DB	053H
	DB	069H
	DB	06dH
	DB	075H
	DB	06cH
	DB	061H
	DB	074H
	DB	069H
	DB	06fH
	DB	06eH
	DB	054H
	DB	068H
	DB	072H
	DB	065H
	DB	061H
	DB	064H
	DB	00H
	DB	078H
	DB	052H
	DB	065H
	DB	063H
	DB	069H
	DB	065H
	DB	076H
	DB	065H
	DB	050H
	DB	072H
	DB	06fH
	DB	067H
	DB	072H
	DB	065H
	DB	073H
	DB	073H
	DB	00H
	DB	078H
	DB	045H
	DB	064H
	DB	069H
	DB	074H
	DB	043H
	DB	06fH
	DB	06dH
	DB	06dH
	DB	061H
	DB	06eH
	DB	064H
	DB	04cH
	DB	069H
	DB	06eH
	DB	065H
	DB	00H
	DB	078H
	DB	047H
	DB	065H
	DB	06fH
	DB	06dH
	DB	065H
	DB	074H
	DB	072H
	DB	079H
	DB	053H
	DB	065H
	DB	06cH
	DB	065H
	DB	063H
	DB	074H
	DB	069H
	DB	06fH
	DB	06eH
	DB	00H
	DB	078H
	DB	052H
	DB	065H
	DB	06cH
	DB	065H
	DB	061H
	DB	073H
	DB	065H
	DB	04fH
	DB	070H
	DB	065H
	DB	072H
	DB	061H
	DB	074H
	DB	069H
	DB	06fH
	DB	06eH
	DB	00H
	DB	078H
	DB	049H
	DB	06eH
	DB	069H
	DB	074H
	DB	069H
	DB	061H
	DB	06cH
	DB	069H
	DB	07aH
	DB	065H
	DB	057H
	DB	069H
	DB	064H
	DB	067H
	DB	065H
	DB	074H
	DB	053H
	DB	074H
	DB	061H
	DB	074H
	DB	065H
	DB	06dH
	DB	065H
	DB	06eH
	DB	074H
	DB	00H
	DB	078H
	DB	04fH
	DB	06eH
	DB	047H
	DB	065H
	DB	06fH
	DB	06dH
	DB	065H
	DB	074H
	DB	072H
	DB	079H
	DB	053H
	DB	065H
	DB	06cH
	DB	065H
	DB	063H
	DB	074H
	DB	069H
	DB	06fH
	DB	06eH
	DB	04fH
	DB	066H
	DB	050H
	DB	06fH
	DB	069H
	DB	06eH
	DB	074H
	DB	04dH
	DB	061H
	DB	073H
	DB	073H
	DB	00H
	DB	078H
	DB	053H
	DB	074H
	DB	06fH
	DB	070H
	DB	053H
	DB	069H
	DB	06dH
	DB	075H
	DB	06cH
	DB	061H
	DB	074H
	DB	069H
	DB	06fH
	DB	06eH
	DB	054H
	DB	068H
	DB	072H
	DB	065H
	DB	061H
	DB	064H
	DB	00H
	DB	078H
	DB	052H
	DB	065H
	DB	06cH
	DB	065H
	DB	061H
	DB	073H
	DB	065H
	DB	052H
	DB	065H
	DB	073H
	DB	075H
	DB	06cH
	DB	074H
	DB	043H
	DB	061H
	DB	06cH
	DB	06cH
	DB	054H
	DB	068H
	DB	072H
	DB	065H
	DB	061H
	DB	064H
	DB	00H
	DB	078H
	DB	043H
	DB	06fH
	DB	06eH
	DB	074H
	DB	065H
	DB	078H
	DB	074H
	DB	04dH
	DB	065H
	DB	06eH
	DB	075H
	DB	050H
	DB	072H
	DB	06fH
	DB	063H
	DB	065H
	DB	073H
	DB	073H
	DB	00H
	DB	06eH
	DB	06dH
	DB	00H
	DB	063H
	DB	06fH
	DB	06eH
	DB	074H
	DB	065H
	DB	078H
	DB	074H
	DB	04dH
	DB	065H
	DB	06eH
	DB	075H
	DB	054H
	DB	079H
	DB	070H
	DB	065H
	DB	00H
	DB	076H
	DB	06fH
	DB	074H
	DB	00H
	DB	078H
	DB	053H
	DB	065H
	DB	074H
	DB	075H
	DB	070H
	DB	052H
	DB	065H
	DB	073H
	DB	075H
	DB	06cH
	DB	074H
	DB	04eH
	DB	061H
	DB	076H
	DB	069H
	DB	067H
	DB	061H
	DB	074H
	DB	06fH
	DB	072H
	DB	042H
	DB	079H
	DB	043H
	DB	068H
	DB	061H
	DB	06eH
	DB	067H
	DB	065H
	DB	054H
	DB	061H
	DB	072H
	DB	067H
	DB	065H
	DB	074H
	DB	043H
	DB	06fH
	DB	06dH
	DB	062H
	DB	06fH
	DB	00H
	DB	078H
	DB	055H
	DB	070H
	DB	06cH
	DB	06fH
	DB	061H
	DB	064H
	DB	052H
	DB	065H
	DB	073H
	DB	075H
	DB	06cH
	DB	074H
	DB	054H
	DB	068H
	DB	069H
	DB	073H
	DB	04dH
	DB	06fH
	DB	064H
	DB	065H
	DB	06cH
	DB	00H
	DB	078H
	DB	053H
	DB	065H
	DB	074H
	DB	075H
	DB	070H
	DB	050H
	DB	061H
	DB	072H
	DB	074H
	DB	069H
	DB	063H
	DB	06cH
	DB	065H
	DB	042H
	DB	075H
	DB	066H
	DB	066H
	DB	065H
	DB	072H
	DB	043H
	DB	06fH
	DB	06cH
	DB	06fH
	DB	072H
	DB	044H
	DB	069H
	DB	073H
	DB	074H
	DB	072H
	DB	069H
	DB	062H
	DB	075H
	DB	074H
	DB	069H
	DB	06fH
	DB	06eH
	DB	00H
	DB	078H
	DB	053H
	DB	065H
	DB	06cH
	DB	065H
	DB	063H
	DB	074H
	DB	053H
	DB	074H
	DB	061H
	DB	072H
	DB	074H
	DB	050H
	DB	06fH
	DB	069H
	DB	06eH
	DB	074H
	DB	00H
	DB	078H
	DB	050H
	DB	061H
	DB	073H
	DB	073H
	DB	044H
	DB	069H
	DB	073H
	DB	074H
	DB	072H
	DB	069H
	DB	062H
	DB	075H
	DB	074H
	DB	069H
	DB	06fH
	DB	06eH
	DB	00H
	ORG $+4
?qt_meta_data_xdynamics_gui@@3QBIB DD 08H		; qt_meta_data_xdynamics_gui
	DD	00H
	DD	00H
	DD	00H
	DD	019H
	DD	0eH
	DD	00H
	DD	00H
	DD	00H
	DD	00H
	DD	00H
	DD	00H
	DD	00H
	DD	00H
	DD	01H
	DD	00H
	DD	08bH
	DD	02H
	DD	08H
	DD	03H
	DD	00H
	DD	08cH
	DD	02H
	DD	08H
	DD	04H
	DD	00H
	DD	08dH
	DD	02H
	DD	08H
	DD	05H
	DD	00H
	DD	08eH
	DD	02H
	DD	08H
	DD	06H
	DD	00H
	DD	08fH
	DD	02H
	DD	08H
	DD	07H
	DD	00H
	DD	090H
	DD	02H
	DD	08H
	DD	08H
	DD	01H
	DD	091H
	DD	02H
	DD	08H
	DD	0aH
	DD	01H
	DD	094H
	DD	02H
	DD	08H
	DD	0cH
	DD	01H
	DD	097H
	DD	02H
	DD	08H
	DD	0eH
	DD	03H
	DD	09aH
	DD	02H
	DD	08H
	DD	0fH
	DD	00H
	DD	0a1H
	DD	02H
	DD	08H
	DD	010H
	DD	02H
	DD	0a2H
	DD	02H
	DD	08H
	DD	011H
	DD	00H
	DD	0a7H
	DD	02H
	DD	08H
	DD	012H
	DD	01H
	DD	0a8H
	DD	02H
	DD	08H
	DD	013H
	DD	00H
	DD	0abH
	DD	02H
	DD	08H
	DD	014H
	DD	00H
	DD	0acH
	DD	02H
	DD	08H
	DD	015H
	DD	00H
	DD	0adH
	DD	02H
	DD	08H
	DD	016H
	DD	00H
	DD	0aeH
	DD	02H
	DD	08H
	DD	017H
	DD	00H
	DD	0afH
	DD	02H
	DD	08H
	DD	018H
	DD	02H
	DD	0b0H
	DD	02H
	DD	08H
	DD	01cH
	DD	01H
	DD	0b5H
	DD	02H
	DD	08H
	DD	01dH
	DD	00H
	DD	0b8H
	DD	02H
	DD	08H
	DD	01eH
	DD	01H
	DD	0b9H
	DD	02H
	DD	08H
	DD	01fH
	DD	00H
	DD	0bcH
	DD	02H
	DD	08H
	DD	020H
	DD	00H
	DD	0bdH
	DD	02H
	DD	08H
	DD	02bH
	DD	02bH
	DD	02bH
	DD	02bH
	DD	02bH
	DD	02bH
	DD	02bH
	DD	080000009H
	DD	02H
	DD	02bH
	DD	08000000bH
	DD	02H
	DD	02bH
	DD	08000000dH
	DD	02H
	DD	02bH
	DD	06H
	DD	03H
	DD	06H
	DD	02H
	DD	02H
	DD	02H
	DD	02bH
	DD	02bH
	DD	02H
	DD	0aH
	DD	02H
	DD	02H
	DD	02bH
	DD	02bH
	DD	0aH
	DD	02H
	DD	02bH
	DD	02bH
	DD	02bH
	DD	02bH
	DD	02bH
	DD	02bH
	DD	0aH
	DD	08000001aH
	DD	019H
	DD	01bH
	DD	02bH
	DD	02H
	DD	02H
	DD	02bH
	DD	02bH
	DD	02H
	DD	02H
	DD	02bH
	DD	02bH
	DD	00H
	ORG $+4
$SG280104 DB	'c:\qt\5.12.3\msvc2017_64\include\qtcore\qmetatype.h', 00H
	ORG $+12
$SG280105 DB	'qRegisterNormalizedMetaType was called with a not normal'
	DB	'ized type name, please call qRegisterMetaType instead.', 00H
	ORG $+1
$SG280106 DB	'qRegisterNormalizedMetaType', 00H
	ORG $+4
$SG280966 DB	'c:\qt\5.12.3\msvc2017_64\include\qtcore\qmetatype.h', 00H
	ORG $+12
$SG280967 DB	'qRegisterNormalizedMetaType was called with a not normal'
	DB	'ized type name, please call qRegisterMetaType instead.', 00H
	ORG $+1
$SG280968 DB	'qRegisterNormalizedMetaType', 00H
	ORG $+4
$SG281366 DB	'c:\qt\5.12.3\msvc2017_64\include\qtcore\qmetatype.h', 00H
	ORG $+12
$SG281367 DB	'qRegisterNormalizedMetaType was called with a not normal'
	DB	'ized type name, please call qRegisterMetaType instead.', 00H
	ORG $+1
$SG281368 DB	'qRegisterNormalizedMetaType', 00H
	ORG $+4
$SG275798 DB	'c:\qt\5.12.3\msvc2017_64\include\qtcore\qmetatype.h', 00H
	ORG $+12
$SG275799 DB	'qRegisterNormalizedMetaType was called with a not normal'
	DB	'ized type name, please call qRegisterMetaType instead.', 00H
	ORG $+1
$SG275800 DB	'qRegisterNormalizedMetaType', 00H
CONST	ENDS
PUBLIC	?__empty_global_delete@@YAXPEAX@Z		; __empty_global_delete
PUBLIC	?__empty_global_delete@@YAXPEAX_K@Z		; __empty_global_delete
PUBLIC	??C?$QScopedPointer@VQObjectData@@U?$QScopedPointerDeleter@VQObjectData@@@@@@QEBAPEAVQObjectData@@XZ ; QScopedPointer<QObjectData,QScopedPointerDeleter<QObjectData> >::operator->
PUBLIC	??0xvGlew@@QEAA@XZ				; xvGlew::xvGlew
PUBLIC	??1xvGlew@@QEAA@XZ				; xvGlew::~xvGlew
PUBLIC	?metaObject@xdynamics_gui@@UEBAPEBUQMetaObject@@XZ ; xdynamics_gui::metaObject
PUBLIC	?qt_metacast@xdynamics_gui@@UEAAPEAXPEBD@Z	; xdynamics_gui::qt_metacast
PUBLIC	?qt_metacall@xdynamics_gui@@UEAAHW4Call@QMetaObject@@HPEAPEAX@Z ; xdynamics_gui::qt_metacall
PUBLIC	?qt_static_metacall@xdynamics_gui@@CAXPEAVQObject@@W4Call@QMetaObject@@HPEAPEAX@Z ; xdynamics_gui::qt_static_metacall
PUBLIC	?staticMetaObject@xdynamics_gui@@2UQMetaObject@@B ; xdynamics_gui::staticMetaObject
EXTRN	atexit:PROC
EXTRN	strcmp:PROC
EXTRN	__imp_??0QString@@QEAA@AEBV0@@Z:PROC
EXTRN	__imp_?dynamicMetaObject@QObjectData@@QEBAPEAUQMetaObject@@XZ:PROC
EXTRN	__imp_?qt_metacast@QMainWindow@@UEAAPEAXPEBD@Z:PROC
EXTRN	__imp_?qt_metacall@QMainWindow@@UEAAHW4Call@QMetaObject@@HPEAPEAX@Z:PROC
EXTRN	__imp_glewInit:PROC
EXTRN	?xNew@xdynamics_gui@@AEAAXXZ:PROC		; xdynamics_gui::xNew
EXTRN	?xSave@xdynamics_gui@@AEAAXXZ:PROC		; xdynamics_gui::xSave
EXTRN	?xOpen@xdynamics_gui@@AEAAXXZ:PROC		; xdynamics_gui::xOpen
EXTRN	?xCylinder@xdynamics_gui@@AEAAXXZ:PROC		; xdynamics_gui::xCylinder
EXTRN	?xCube@xdynamics_gui@@AEAAXXZ:PROC		; xdynamics_gui::xCube
EXTRN	?xChart@xdynamics_gui@@AEAAXXZ:PROC		; xdynamics_gui::xChart
EXTRN	?xGetSimulationWidget@xdynamics_gui@@AEAAXPEAVwsimulation@@@Z:PROC ; xdynamics_gui::xGetSimulationWidget
EXTRN	?xGetPointMassWidget@xdynamics_gui@@AEAAXPEAVwpointmass@@@Z:PROC ; xdynamics_gui::xGetPointMassWidget
EXTRN	?xGetResultWidget@xdynamics_gui@@AEAAXPEAVwresult@@@Z:PROC ; xdynamics_gui::xGetResultWidget
EXTRN	?xRunSimulationThread@xdynamics_gui@@AEAAXNIN@Z:PROC ; xdynamics_gui::xRunSimulationThread
EXTRN	?xExitSimulationThread@xdynamics_gui@@AEAAXXZ:PROC ; xdynamics_gui::xExitSimulationThread
EXTRN	?xRecieveProgress@xdynamics_gui@@AEAAXHVQString@@@Z:PROC ; xdynamics_gui::xRecieveProgress
EXTRN	?xEditCommandLine@xdynamics_gui@@AEAAXXZ:PROC	; xdynamics_gui::xEditCommandLine
EXTRN	?xGeometrySelection@xdynamics_gui@@AEAAXVQString@@@Z:PROC ; xdynamics_gui::xGeometrySelection
EXTRN	?xReleaseOperation@xdynamics_gui@@AEAAXXZ:PROC	; xdynamics_gui::xReleaseOperation
EXTRN	?xInitializeWidgetStatement@xdynamics_gui@@AEAAXXZ:PROC ; xdynamics_gui::xInitializeWidgetStatement
EXTRN	?xOnGeometrySelectionOfPointMass@xdynamics_gui@@AEAAXXZ:PROC ; xdynamics_gui::xOnGeometrySelectionOfPointMass
EXTRN	?xStopSimulationThread@xdynamics_gui@@AEAAXXZ:PROC ; xdynamics_gui::xStopSimulationThread
EXTRN	?xReleaseResultCallThread@xdynamics_gui@@AEAAXXZ:PROC ; xdynamics_gui::xReleaseResultCallThread
EXTRN	?xContextMenuProcess@xdynamics_gui@@AEAAXVQString@@W4contextMenuType@@@Z:PROC ; xdynamics_gui::xContextMenuProcess
EXTRN	?xSetupResultNavigatorByChangeTargetCombo@xdynamics_gui@@AEAAXH@Z:PROC ; xdynamics_gui::xSetupResultNavigatorByChangeTargetCombo
EXTRN	?xUploadResultThisModel@xdynamics_gui@@AEAAXXZ:PROC ; xdynamics_gui::xUploadResultThisModel
EXTRN	?xSetupParticleBufferColorDistribution@xdynamics_gui@@AEAAXH@Z:PROC ; xdynamics_gui::xSetupParticleBufferColorDistribution
EXTRN	?xSelectStartPoint@xdynamics_gui@@AEAAXXZ:PROC	; xdynamics_gui::xSelectStartPoint
EXTRN	?xPassDistribution@xdynamics_gui@@AEAAXXZ:PROC	; xdynamics_gui::xPassDistribution
EXTRN	__imp_?staticMetaObject@QMainWindow@@2UQMetaObject@@B:BYTE
EXTRN	__ImageBase:BYTE
EXTRN	_fltused:DWORD
_BSS	SEGMENT
?g_vglew@@3VxvGlew@@A DB 01H DUP (?)			; g_vglew
	ALIGN	4

?staticMetaObject@xdynamics_gui@@2UQMetaObject@@B DB 030H DUP (?) ; xdynamics_gui::staticMetaObject
_BSS	ENDS
;	COMDAT pdata
pdata	SEGMENT
$pdata$??0xvGlew@@QEAA@XZ DD imagerel $LN3
	DD	imagerel $LN3+41
	DD	imagerel $unwind$??0xvGlew@@QEAA@XZ
pdata	ENDS
;	COMDAT pdata
pdata	SEGMENT
$pdata$??__Eg_vglew@@YAXXZ DD imagerel ??__Eg_vglew@@YAXXZ
	DD	imagerel ??__Eg_vglew@@YAXXZ+33
	DD	imagerel $unwind$??__Eg_vglew@@YAXXZ
pdata	ENDS
;	COMDAT pdata
pdata	SEGMENT
$pdata$??__Fg_vglew@@YAXXZ DD imagerel ??__Fg_vglew@@YAXXZ
	DD	imagerel ??__Fg_vglew@@YAXXZ+21
	DD	imagerel $unwind$??__Fg_vglew@@YAXXZ
pdata	ENDS
pdata	SEGMENT
$pdata$?metaObject@xdynamics_gui@@UEBAPEBUQMetaObject@@XZ DD imagerel $LN5
	DD	imagerel $LN5+88
	DD	imagerel $unwind$?metaObject@xdynamics_gui@@UEBAPEBUQMetaObject@@XZ
$pdata$?qt_metacast@xdynamics_gui@@UEAAPEAXPEBD@Z DD imagerel $LN5
	DD	imagerel $LN5+75
	DD	imagerel $unwind$?qt_metacast@xdynamics_gui@@UEAAPEAXPEBD@Z
$pdata$?qt_metacall@xdynamics_gui@@UEAAHW4Call@QMetaObject@@HPEAPEAX@Z DD imagerel $LN9
	DD	imagerel $LN9+174
	DD	imagerel $unwind$?qt_metacall@xdynamics_gui@@UEAAHW4Call@QMetaObject@@HPEAPEAX@Z
$pdata$?qt_static_metacall@xdynamics_gui@@CAXPEAVQObject@@W4Call@QMetaObject@@HPEAPEAX@Z DD imagerel $LN36
	DD	imagerel $LN36+972
	DD	imagerel $unwind$?qt_static_metacall@xdynamics_gui@@CAXPEAVQObject@@W4Call@QMetaObject@@HPEAPEAX@Z
pdata	ENDS
CRT$XCU	SEGMENT
?g_vglew$initializer$@@3P6AXXZEA DQ FLAT:??__Eg_vglew@@YAXXZ ; g_vglew$initializer$
CRT$XCU	ENDS
xdata	SEGMENT
$unwind$?metaObject@xdynamics_gui@@UEBAPEBUQMetaObject@@XZ DD 010901H
	DD	06209H
$unwind$?qt_metacast@xdynamics_gui@@UEAAPEAXPEBD@Z DD 010e01H
	DD	0420eH
$unwind$?qt_metacall@xdynamics_gui@@UEAAHW4Call@QMetaObject@@HPEAPEAX@Z DD 011701H
	DD	04217H
$unwind$?qt_static_metacall@xdynamics_gui@@CAXPEAVQObject@@W4Call@QMetaObject@@HPEAPEAX@Z DD 021a01H
	DD	011011aH
xdata	ENDS
;	COMDAT xdata
xdata	SEGMENT
$unwind$??__Fg_vglew@@YAXXZ DD 010401H
	DD	04204H
xdata	ENDS
;	COMDAT xdata
xdata	SEGMENT
$unwind$??__Eg_vglew@@YAXXZ DD 010401H
	DD	04204H
xdata	ENDS
;	COMDAT xdata
xdata	SEGMENT
$unwind$??0xvGlew@@QEAA@XZ DD 010901H
	DD	04209H
xdata	ENDS
CRT$XCU	SEGMENT
??staticMetaObject$initializer$@xdynamics_gui@@2P6AXXZEA@@3P6AXXZEA DQ FLAT:??__E?staticMetaObject@xdynamics_gui@@2UQMetaObject@@B@@YAXXZ ; ??staticMetaObject$initializer$@xdynamics_gui@@2P6AXXZEA@@3P6AXXZEA
CRT$XCU	ENDS
; Function compile flags: /Odtp
;	COMDAT ??__E?staticMetaObject@xdynamics_gui@@2UQMetaObject@@B@@YAXXZ
text$di	SEGMENT
??__E?staticMetaObject@xdynamics_gui@@2UQMetaObject@@B@@YAXXZ PROC ; `dynamic initializer for 'xdynamics_gui::staticMetaObject'', COMDAT
; File c:\xdynamics\xdynamics_gui\generatedfiles\debug\moc_xdynamics_gui.cpp
; Line 194
	mov	rax, QWORD PTR __imp_?staticMetaObject@QMainWindow@@2UQMetaObject@@B
	mov	QWORD PTR ?staticMetaObject@xdynamics_gui@@2UQMetaObject@@B, rax
; Line 195
	lea	rax, OFFSET FLAT:?qt_meta_stringdata_xdynamics_gui@@3Uqt_meta_stringdata_xdynamics_gui_t@@B
	mov	QWORD PTR ?staticMetaObject@xdynamics_gui@@2UQMetaObject@@B+8, rax
; Line 196
	lea	rax, OFFSET FLAT:?qt_meta_data_xdynamics_gui@@3QBIB
	mov	QWORD PTR ?staticMetaObject@xdynamics_gui@@2UQMetaObject@@B+16, rax
; Line 197
	lea	rax, OFFSET FLAT:?qt_static_metacall@xdynamics_gui@@CAXPEAVQObject@@W4Call@QMetaObject@@HPEAPEAX@Z ; xdynamics_gui::qt_static_metacall
	mov	QWORD PTR ?staticMetaObject@xdynamics_gui@@2UQMetaObject@@B+24, rax
; Line 198
	mov	QWORD PTR ?staticMetaObject@xdynamics_gui@@2UQMetaObject@@B+32, 0
; Line 199
	mov	QWORD PTR ?staticMetaObject@xdynamics_gui@@2UQMetaObject@@B+40, 0
	ret	0
??__E?staticMetaObject@xdynamics_gui@@2UQMetaObject@@B@@YAXXZ ENDP ; `dynamic initializer for 'xdynamics_gui::staticMetaObject''
text$di	ENDS
; Function compile flags: /Odtp
_TEXT	SEGMENT
_t$1 = 32
tv69 = 40
$T2 = 48
tv204 = 56
$T3 = 64
tv206 = 72
$T4 = 80
tv176 = 88
tv208 = 96
$T5 = 104
$T6 = 112
$T7 = 120
_o$ = 144
_c$ = 152
_id$ = 160
_a$ = 168
?qt_static_metacall@xdynamics_gui@@CAXPEAVQObject@@W4Call@QMetaObject@@HPEAPEAX@Z PROC ; xdynamics_gui::qt_static_metacall
; File c:\xdynamics\xdynamics_gui\generatedfiles\debug\moc_xdynamics_gui.cpp
; Line 158
$LN36:
	mov	QWORD PTR [rsp+32], r9
	mov	DWORD PTR [rsp+24], r8d
	mov	DWORD PTR [rsp+16], edx
	mov	QWORD PTR [rsp+8], rcx
	sub	rsp, 136				; 00000088H
; Line 159
	cmp	DWORD PTR _c$[rsp], 0
	jne	$LN4@qt_static_
; Line 160
	mov	rax, QWORD PTR _o$[rsp]
	mov	QWORD PTR _t$1[rsp], rax
; Line 162
	mov	eax, DWORD PTR _id$[rsp]
	mov	DWORD PTR tv69[rsp], eax
	cmp	DWORD PTR tv69[rsp], 24
	ja	$LN4@qt_static_
	movsxd	rax, DWORD PTR tv69[rsp]
	lea	rcx, OFFSET FLAT:__ImageBase
	mov	eax, DWORD PTR $LN35@qt_static_[rcx+rax*4]
	add	rax, rcx
	jmp	rax
$LN5@qt_static_:
; Line 163
	mov	rcx, QWORD PTR _t$1[rsp]
	call	?xNew@xdynamics_gui@@AEAAXXZ		; xdynamics_gui::xNew
	jmp	$LN4@qt_static_
$LN6@qt_static_:
; Line 164
	mov	rcx, QWORD PTR _t$1[rsp]
	call	?xSave@xdynamics_gui@@AEAAXXZ		; xdynamics_gui::xSave
	jmp	$LN4@qt_static_
$LN7@qt_static_:
; Line 165
	mov	rcx, QWORD PTR _t$1[rsp]
	call	?xOpen@xdynamics_gui@@AEAAXXZ		; xdynamics_gui::xOpen
	jmp	$LN4@qt_static_
$LN8@qt_static_:
; Line 166
	mov	rcx, QWORD PTR _t$1[rsp]
	call	?xCylinder@xdynamics_gui@@AEAAXXZ	; xdynamics_gui::xCylinder
	jmp	$LN4@qt_static_
$LN9@qt_static_:
; Line 167
	mov	rcx, QWORD PTR _t$1[rsp]
	call	?xCube@xdynamics_gui@@AEAAXXZ		; xdynamics_gui::xCube
	jmp	$LN4@qt_static_
$LN10@qt_static_:
; Line 168
	mov	rcx, QWORD PTR _t$1[rsp]
	call	?xChart@xdynamics_gui@@AEAAXXZ		; xdynamics_gui::xChart
	jmp	$LN4@qt_static_
$LN11@qt_static_:
; Line 169
	mov	eax, 8
	imul	rax, rax, 1
	mov	rcx, QWORD PTR _a$[rsp]
	mov	rax, QWORD PTR [rcx+rax]
	mov	rdx, QWORD PTR [rax]
	mov	rcx, QWORD PTR _t$1[rsp]
	call	?xGetSimulationWidget@xdynamics_gui@@AEAAXPEAVwsimulation@@@Z ; xdynamics_gui::xGetSimulationWidget
	jmp	$LN4@qt_static_
$LN12@qt_static_:
; Line 170
	mov	eax, 8
	imul	rax, rax, 1
	mov	rcx, QWORD PTR _a$[rsp]
	mov	rax, QWORD PTR [rcx+rax]
	mov	rdx, QWORD PTR [rax]
	mov	rcx, QWORD PTR _t$1[rsp]
	call	?xGetPointMassWidget@xdynamics_gui@@AEAAXPEAVwpointmass@@@Z ; xdynamics_gui::xGetPointMassWidget
	jmp	$LN4@qt_static_
$LN13@qt_static_:
; Line 171
	mov	eax, 8
	imul	rax, rax, 1
	mov	rcx, QWORD PTR _a$[rsp]
	mov	rax, QWORD PTR [rcx+rax]
	mov	rdx, QWORD PTR [rax]
	mov	rcx, QWORD PTR _t$1[rsp]
	call	?xGetResultWidget@xdynamics_gui@@AEAAXPEAVwresult@@@Z ; xdynamics_gui::xGetResultWidget
	jmp	$LN4@qt_static_
$LN14@qt_static_:
; Line 172
	mov	eax, 8
	imul	rax, rax, 3
	mov	rcx, QWORD PTR _a$[rsp]
	mov	rax, QWORD PTR [rcx+rax]
	movsd	xmm0, QWORD PTR [rax]
	mov	eax, 8
	imul	rax, rax, 2
	mov	rcx, QWORD PTR _a$[rsp]
	mov	rax, QWORD PTR [rcx+rax]
	mov	ecx, 8
	imul	rcx, rcx, 1
	mov	rdx, QWORD PTR _a$[rsp]
	mov	rcx, QWORD PTR [rdx+rcx]
	movsd	xmm1, QWORD PTR [rcx]
	movaps	xmm3, xmm0
	mov	r8d, DWORD PTR [rax]
	mov	rcx, QWORD PTR _t$1[rsp]
	call	?xRunSimulationThread@xdynamics_gui@@AEAAXNIN@Z ; xdynamics_gui::xRunSimulationThread
	jmp	$LN4@qt_static_
$LN15@qt_static_:
; Line 173
	mov	rcx, QWORD PTR _t$1[rsp]
	call	?xExitSimulationThread@xdynamics_gui@@AEAAXXZ ; xdynamics_gui::xExitSimulationThread
	jmp	$LN4@qt_static_
$LN16@qt_static_:
; Line 174
	lea	rax, QWORD PTR $T5[rsp]
	mov	QWORD PTR $T2[rsp], rax
	mov	eax, 8
	imul	rax, rax, 2
	mov	rcx, QWORD PTR _a$[rsp]
	mov	rdx, QWORD PTR [rcx+rax]
	mov	rcx, QWORD PTR $T2[rsp]
	call	QWORD PTR __imp_??0QString@@QEAA@AEBV0@@Z
	mov	QWORD PTR tv204[rsp], rax
	mov	eax, 8
	imul	rax, rax, 1
	mov	rcx, QWORD PTR _a$[rsp]
	mov	rax, QWORD PTR [rcx+rax]
	mov	r8, QWORD PTR tv204[rsp]
	mov	edx, DWORD PTR [rax]
	mov	rcx, QWORD PTR _t$1[rsp]
	call	?xRecieveProgress@xdynamics_gui@@AEAAXHVQString@@@Z ; xdynamics_gui::xRecieveProgress
	jmp	$LN4@qt_static_
$LN17@qt_static_:
; Line 175
	mov	rcx, QWORD PTR _t$1[rsp]
	call	?xEditCommandLine@xdynamics_gui@@AEAAXXZ ; xdynamics_gui::xEditCommandLine
	jmp	$LN4@qt_static_
$LN18@qt_static_:
; Line 176
	lea	rax, QWORD PTR $T6[rsp]
	mov	QWORD PTR $T3[rsp], rax
	mov	eax, 8
	imul	rax, rax, 1
	mov	rcx, QWORD PTR _a$[rsp]
	mov	rdx, QWORD PTR [rcx+rax]
	mov	rcx, QWORD PTR $T3[rsp]
	call	QWORD PTR __imp_??0QString@@QEAA@AEBV0@@Z
	mov	QWORD PTR tv206[rsp], rax
	mov	rdx, QWORD PTR tv206[rsp]
	mov	rcx, QWORD PTR _t$1[rsp]
	call	?xGeometrySelection@xdynamics_gui@@AEAAXVQString@@@Z ; xdynamics_gui::xGeometrySelection
	jmp	$LN4@qt_static_
$LN19@qt_static_:
; Line 177
	mov	rcx, QWORD PTR _t$1[rsp]
	call	?xReleaseOperation@xdynamics_gui@@AEAAXXZ ; xdynamics_gui::xReleaseOperation
	jmp	$LN4@qt_static_
$LN20@qt_static_:
; Line 178
	mov	rcx, QWORD PTR _t$1[rsp]
	call	?xInitializeWidgetStatement@xdynamics_gui@@AEAAXXZ ; xdynamics_gui::xInitializeWidgetStatement
	jmp	$LN4@qt_static_
$LN21@qt_static_:
; Line 179
	mov	rcx, QWORD PTR _t$1[rsp]
	call	?xOnGeometrySelectionOfPointMass@xdynamics_gui@@AEAAXXZ ; xdynamics_gui::xOnGeometrySelectionOfPointMass
	jmp	$LN4@qt_static_
$LN22@qt_static_:
; Line 180
	mov	rcx, QWORD PTR _t$1[rsp]
	call	?xStopSimulationThread@xdynamics_gui@@AEAAXXZ ; xdynamics_gui::xStopSimulationThread
	jmp	$LN4@qt_static_
$LN23@qt_static_:
; Line 181
	mov	rcx, QWORD PTR _t$1[rsp]
	call	?xReleaseResultCallThread@xdynamics_gui@@AEAAXXZ ; xdynamics_gui::xReleaseResultCallThread
	jmp	$LN4@qt_static_
$LN24@qt_static_:
; Line 182
	lea	rax, QWORD PTR $T7[rsp]
	mov	QWORD PTR $T4[rsp], rax
	mov	eax, 8
	imul	rax, rax, 2
	mov	rcx, QWORD PTR _a$[rsp]
	mov	rax, QWORD PTR [rcx+rax]
	mov	QWORD PTR tv176[rsp], rax
	mov	ecx, 8
	imul	rcx, rcx, 1
	mov	rdx, QWORD PTR _a$[rsp]
	mov	rdx, QWORD PTR [rdx+rcx]
	mov	rcx, QWORD PTR $T4[rsp]
	call	QWORD PTR __imp_??0QString@@QEAA@AEBV0@@Z
	mov	QWORD PTR tv208[rsp], rax
	mov	rax, QWORD PTR tv176[rsp]
	mov	r8d, DWORD PTR [rax]
	mov	rdx, QWORD PTR tv208[rsp]
	mov	rcx, QWORD PTR _t$1[rsp]
	call	?xContextMenuProcess@xdynamics_gui@@AEAAXVQString@@W4contextMenuType@@@Z ; xdynamics_gui::xContextMenuProcess
	jmp	SHORT $LN4@qt_static_
$LN25@qt_static_:
; Line 183
	mov	eax, 8
	imul	rax, rax, 1
	mov	rcx, QWORD PTR _a$[rsp]
	mov	rax, QWORD PTR [rcx+rax]
	mov	edx, DWORD PTR [rax]
	mov	rcx, QWORD PTR _t$1[rsp]
	call	?xSetupResultNavigatorByChangeTargetCombo@xdynamics_gui@@AEAAXH@Z ; xdynamics_gui::xSetupResultNavigatorByChangeTargetCombo
	jmp	SHORT $LN4@qt_static_
$LN26@qt_static_:
; Line 184
	mov	rcx, QWORD PTR _t$1[rsp]
	call	?xUploadResultThisModel@xdynamics_gui@@AEAAXXZ ; xdynamics_gui::xUploadResultThisModel
	jmp	SHORT $LN4@qt_static_
$LN27@qt_static_:
; Line 185
	mov	eax, 8
	imul	rax, rax, 1
	mov	rcx, QWORD PTR _a$[rsp]
	mov	rax, QWORD PTR [rcx+rax]
	mov	edx, DWORD PTR [rax]
	mov	rcx, QWORD PTR _t$1[rsp]
	call	?xSetupParticleBufferColorDistribution@xdynamics_gui@@AEAAXH@Z ; xdynamics_gui::xSetupParticleBufferColorDistribution
	jmp	SHORT $LN4@qt_static_
$LN28@qt_static_:
; Line 186
	mov	rcx, QWORD PTR _t$1[rsp]
	call	?xSelectStartPoint@xdynamics_gui@@AEAAXXZ ; xdynamics_gui::xSelectStartPoint
	jmp	SHORT $LN4@qt_static_
$LN29@qt_static_:
; Line 187
	mov	rcx, QWORD PTR _t$1[rsp]
	call	?xPassDistribution@xdynamics_gui@@AEAAXXZ ; xdynamics_gui::xPassDistribution
$LN4@qt_static_:
; Line 191
	add	rsp, 136				; 00000088H
	ret	0
	npad	2
$LN35@qt_static_:
	DD	$LN5@qt_static_
	DD	$LN6@qt_static_
	DD	$LN7@qt_static_
	DD	$LN8@qt_static_
	DD	$LN9@qt_static_
	DD	$LN10@qt_static_
	DD	$LN11@qt_static_
	DD	$LN12@qt_static_
	DD	$LN13@qt_static_
	DD	$LN14@qt_static_
	DD	$LN15@qt_static_
	DD	$LN16@qt_static_
	DD	$LN17@qt_static_
	DD	$LN18@qt_static_
	DD	$LN19@qt_static_
	DD	$LN20@qt_static_
	DD	$LN21@qt_static_
	DD	$LN22@qt_static_
	DD	$LN23@qt_static_
	DD	$LN24@qt_static_
	DD	$LN25@qt_static_
	DD	$LN26@qt_static_
	DD	$LN27@qt_static_
	DD	$LN28@qt_static_
	DD	$LN29@qt_static_
?qt_static_metacall@xdynamics_gui@@CAXPEAVQObject@@W4Call@QMetaObject@@HPEAPEAX@Z ENDP ; xdynamics_gui::qt_static_metacall
_TEXT	ENDS
; Function compile flags: /Odtp
_TEXT	SEGMENT
this$ = 48
_c$ = 56
_id$ = 64
_a$ = 72
?qt_metacall@xdynamics_gui@@UEAAHW4Call@QMetaObject@@HPEAPEAX@Z PROC ; xdynamics_gui::qt_metacall
; File c:\xdynamics\xdynamics_gui\generatedfiles\debug\moc_xdynamics_gui.cpp
; Line 217
$LN9:
	mov	QWORD PTR [rsp+32], r9
	mov	DWORD PTR [rsp+24], r8d
	mov	DWORD PTR [rsp+16], edx
	mov	QWORD PTR [rsp+8], rcx
	sub	rsp, 40					; 00000028H
; Line 218
	mov	r9, QWORD PTR _a$[rsp]
	mov	r8d, DWORD PTR _id$[rsp]
	mov	edx, DWORD PTR _c$[rsp]
	mov	rcx, QWORD PTR this$[rsp]
	call	QWORD PTR __imp_?qt_metacall@QMainWindow@@UEAAHW4Call@QMetaObject@@HPEAPEAX@Z
	mov	DWORD PTR _id$[rsp], eax
; Line 219
	cmp	DWORD PTR _id$[rsp], 0
	jge	SHORT $LN2@qt_metacal
; Line 220
	mov	eax, DWORD PTR _id$[rsp]
	jmp	SHORT $LN1@qt_metacal
$LN2@qt_metacal:
; Line 221
	cmp	DWORD PTR _c$[rsp], 0
	jne	SHORT $LN3@qt_metacal
; Line 222
	cmp	DWORD PTR _id$[rsp], 25
	jge	SHORT $LN5@qt_metacal
; Line 223
	mov	r9, QWORD PTR _a$[rsp]
	mov	r8d, DWORD PTR _id$[rsp]
	mov	edx, DWORD PTR _c$[rsp]
	mov	rcx, QWORD PTR this$[rsp]
	call	?qt_static_metacall@xdynamics_gui@@CAXPEAVQObject@@W4Call@QMetaObject@@HPEAPEAX@Z ; xdynamics_gui::qt_static_metacall
$LN5@qt_metacal:
; Line 224
	mov	eax, DWORD PTR _id$[rsp]
	sub	eax, 25
	mov	DWORD PTR _id$[rsp], eax
	jmp	SHORT $LN4@qt_metacal
$LN3@qt_metacal:
; Line 225
	cmp	DWORD PTR _c$[rsp], 12
	jne	SHORT $LN6@qt_metacal
; Line 226
	cmp	DWORD PTR _id$[rsp], 25
	jge	SHORT $LN7@qt_metacal
; Line 227
	mov	eax, 8
	imul	rax, rax, 0
	mov	rcx, QWORD PTR _a$[rsp]
	mov	rax, QWORD PTR [rcx+rax]
	mov	DWORD PTR [rax], -1
$LN7@qt_metacal:
; Line 228
	mov	eax, DWORD PTR _id$[rsp]
	sub	eax, 25
	mov	DWORD PTR _id$[rsp], eax
$LN6@qt_metacal:
$LN4@qt_metacal:
; Line 230
	mov	eax, DWORD PTR _id$[rsp]
$LN1@qt_metacal:
; Line 231
	add	rsp, 40					; 00000028H
	ret	0
?qt_metacall@xdynamics_gui@@UEAAHW4Call@QMetaObject@@HPEAPEAX@Z ENDP ; xdynamics_gui::qt_metacall
_TEXT	ENDS
; Function compile flags: /Odtp
_TEXT	SEGMENT
this$ = 48
_clname$ = 56
?qt_metacast@xdynamics_gui@@UEAAPEAXPEBD@Z PROC		; xdynamics_gui::qt_metacast
; File c:\xdynamics\xdynamics_gui\generatedfiles\debug\moc_xdynamics_gui.cpp
; Line 209
$LN5:
	mov	QWORD PTR [rsp+16], rdx
	mov	QWORD PTR [rsp+8], rcx
	sub	rsp, 40					; 00000028H
; Line 210
	cmp	QWORD PTR _clname$[rsp], 0
	jne	SHORT $LN2@qt_metacas
	xor	eax, eax
	jmp	SHORT $LN1@qt_metacas
$LN2@qt_metacas:
; Line 211
	lea	rdx, OFFSET FLAT:?qt_meta_stringdata_xdynamics_gui@@3Uqt_meta_stringdata_xdynamics_gui_t@@B+792
	mov	rcx, QWORD PTR _clname$[rsp]
	call	strcmp
	test	eax, eax
	jne	SHORT $LN3@qt_metacas
; Line 212
	mov	rax, QWORD PTR this$[rsp]
	jmp	SHORT $LN1@qt_metacas
$LN3@qt_metacas:
; Line 213
	mov	rdx, QWORD PTR _clname$[rsp]
	mov	rcx, QWORD PTR this$[rsp]
	call	QWORD PTR __imp_?qt_metacast@QMainWindow@@UEAAPEAXPEBD@Z
$LN1@qt_metacas:
; Line 214
	add	rsp, 40					; 00000028H
	ret	0
?qt_metacast@xdynamics_gui@@UEAAPEAXPEBD@Z ENDP		; xdynamics_gui::qt_metacast
_TEXT	ENDS
; Function compile flags: /Odtp
_TEXT	SEGMENT
tv82 = 32
this$ = 64
?metaObject@xdynamics_gui@@UEBAPEBUQMetaObject@@XZ PROC	; xdynamics_gui::metaObject
; File c:\xdynamics\xdynamics_gui\generatedfiles\debug\moc_xdynamics_gui.cpp
; Line 204
$LN5:
	mov	QWORD PTR [rsp+8], rcx
	sub	rsp, 56					; 00000038H
; Line 205
	mov	rax, QWORD PTR this$[rsp]
	add	rax, 8
	mov	rcx, rax
	call	??C?$QScopedPointer@VQObjectData@@U?$QScopedPointerDeleter@VQObjectData@@@@@@QEBAPEAVQObjectData@@XZ ; QScopedPointer<QObjectData,QScopedPointerDeleter<QObjectData> >::operator->
	cmp	QWORD PTR [rax+40], 0
	je	SHORT $LN3@metaObject
	mov	rax, QWORD PTR this$[rsp]
	add	rax, 8
	mov	rcx, rax
	call	??C?$QScopedPointer@VQObjectData@@U?$QScopedPointerDeleter@VQObjectData@@@@@@QEBAPEAVQObjectData@@XZ ; QScopedPointer<QObjectData,QScopedPointerDeleter<QObjectData> >::operator->
	mov	rcx, rax
	call	QWORD PTR __imp_?dynamicMetaObject@QObjectData@@QEBAPEAUQMetaObject@@XZ
	mov	QWORD PTR tv82[rsp], rax
	jmp	SHORT $LN4@metaObject
$LN3@metaObject:
	lea	rax, OFFSET FLAT:?staticMetaObject@xdynamics_gui@@2UQMetaObject@@B ; xdynamics_gui::staticMetaObject
	mov	QWORD PTR tv82[rsp], rax
$LN4@metaObject:
	mov	rax, QWORD PTR tv82[rsp]
; Line 206
	add	rsp, 56					; 00000038H
	ret	0
?metaObject@xdynamics_gui@@UEBAPEBUQMetaObject@@XZ ENDP	; xdynamics_gui::metaObject
_TEXT	ENDS
; Function compile flags: /Odtp
;	COMDAT ??__Fg_vglew@@YAXXZ
text$yd	SEGMENT
??__Fg_vglew@@YAXXZ PROC				; `dynamic atexit destructor for 'g_vglew'', COMDAT
	sub	rsp, 40					; 00000028H
	lea	rcx, OFFSET FLAT:?g_vglew@@3VxvGlew@@A
	call	??1xvGlew@@QEAA@XZ			; xvGlew::~xvGlew
	add	rsp, 40					; 00000028H
	ret	0
??__Fg_vglew@@YAXXZ ENDP				; `dynamic atexit destructor for 'g_vglew''
text$yd	ENDS
; Function compile flags: /Odtp
;	COMDAT ??__Eg_vglew@@YAXXZ
text$di	SEGMENT
??__Eg_vglew@@YAXXZ PROC				; `dynamic initializer for 'g_vglew'', COMDAT
; File c:\xdynamics\include\xdynamics_gui\xvglew.h
; Line 44
	sub	rsp, 40					; 00000028H
	lea	rcx, OFFSET FLAT:?g_vglew@@3VxvGlew@@A
	call	??0xvGlew@@QEAA@XZ			; xvGlew::xvGlew
	lea	rcx, OFFSET FLAT:??__Fg_vglew@@YAXXZ	; `dynamic atexit destructor for 'g_vglew''
	call	atexit
	add	rsp, 40					; 00000028H
	ret	0
??__Eg_vglew@@YAXXZ ENDP				; `dynamic initializer for 'g_vglew''
text$di	ENDS
; Function compile flags: /Odtp
;	COMDAT ??1xvGlew@@QEAA@XZ
_TEXT	SEGMENT
this$ = 8
??1xvGlew@@QEAA@XZ PROC					; xvGlew::~xvGlew, COMDAT
; File c:\xdynamics\include\xdynamics_gui\xvglew.h
; Line 30
	mov	QWORD PTR [rsp+8], rcx
	ret	0
??1xvGlew@@QEAA@XZ ENDP					; xvGlew::~xvGlew
_TEXT	ENDS
; Function compile flags: /Odtp
;	COMDAT ??0xvGlew@@QEAA@XZ
_TEXT	SEGMENT
this$ = 48
??0xvGlew@@QEAA@XZ PROC					; xvGlew::xvGlew, COMDAT
; File c:\xdynamics\include\xdynamics_gui\xvglew.h
; Line 19
$LN3:
	mov	QWORD PTR [rsp+8], rcx
	sub	rsp, 40					; 00000028H
; Line 18
	mov	rax, QWORD PTR this$[rsp]
	mov	BYTE PTR [rax], 0
; Line 20
	call	QWORD PTR __imp_glewInit
; Line 21
	mov	rax, QWORD PTR this$[rsp]
	mov	BYTE PTR [rax], 1
; Line 22
	mov	rax, QWORD PTR this$[rsp]
	add	rsp, 40					; 00000028H
	ret	0
??0xvGlew@@QEAA@XZ ENDP					; xvGlew::xvGlew
_TEXT	ENDS
; Function compile flags: /Odtp
;	COMDAT ??C?$QScopedPointer@VQObjectData@@U?$QScopedPointerDeleter@VQObjectData@@@@@@QEBAPEAVQObjectData@@XZ
_TEXT	SEGMENT
this$ = 8
??C?$QScopedPointer@VQObjectData@@U?$QScopedPointerDeleter@VQObjectData@@@@@@QEBAPEAVQObjectData@@XZ PROC ; QScopedPointer<QObjectData,QScopedPointerDeleter<QObjectData> >::operator->, COMDAT
; File c:\qt\5.12.3\msvc2017_64\include\qtcore\qscopedpointer.h
; Line 117
	mov	QWORD PTR [rsp+8], rcx
; Line 118
	mov	rax, QWORD PTR this$[rsp]
	mov	rax, QWORD PTR [rax]
; Line 119
	ret	0
??C?$QScopedPointer@VQObjectData@@U?$QScopedPointerDeleter@VQObjectData@@@@@@QEBAPEAVQObjectData@@XZ ENDP ; QScopedPointer<QObjectData,QScopedPointerDeleter<QObjectData> >::operator->
_TEXT	ENDS
; Function compile flags: /Odtp
;	COMDAT ?__empty_global_delete@@YAXPEAX_K@Z
_TEXT	SEGMENT
__formal$ = 8
__formal$ = 16
?__empty_global_delete@@YAXPEAX_K@Z PROC		; __empty_global_delete, COMDAT
; File c:\xdynamics\xdynamics_gui\generatedfiles\debug\moc_xdynamics_gui.cpp
; Line 234
	mov	QWORD PTR [rsp+16], rdx
	mov	QWORD PTR [rsp+8], rcx
	ret	0
?__empty_global_delete@@YAXPEAX_K@Z ENDP		; __empty_global_delete
_TEXT	ENDS
; Function compile flags: /Odtp
;	COMDAT ?__empty_global_delete@@YAXPEAX@Z
_TEXT	SEGMENT
__formal$ = 8
?__empty_global_delete@@YAXPEAX@Z PROC			; __empty_global_delete, COMDAT
; File c:\xdynamics\xdynamics_gui\generatedfiles\debug\moc_xdynamics_gui.cpp
; Line 234
	mov	QWORD PTR [rsp+8], rcx
	ret	0
?__empty_global_delete@@YAXPEAX@Z ENDP			; __empty_global_delete
_TEXT	ENDS
END
