; Listing generated by Microsoft (R) Optimizing Compiler Version 19.16.27034.0 

include listing.inc

INCLUDELIB MSVCRT
INCLUDELIB OLDNAMES

EXTRN	__imp_?staticMetaObject@QDockWidget@@2UQMetaObject@@B:BYTE
EXTRN	__imp_?staticMetaObject@QWidget@@2UQMetaObject@@B:BYTE
CONST	SEGMENT
?qt_meta_stringdata_wview@@3Uqt_meta_stringdata_wview_t@@B DD 0ffffffffH ; qt_meta_stringdata_wview
	DD	05H
	DD	00H
	ORG $+4
	DQ	00000000000000a8H
	DD	0ffffffffH
	DD	012H
	DD	00H
	ORG $+4
	DQ	0000000000000096H
	DD	0ffffffffH
	DD	00H
	DD	00H
	ORG $+4
	DQ	0000000000000091H
	DD	0ffffffffH
	DD	0cH
	DD	00H
	ORG $+4
	DQ	000000000000007aH
	DD	0ffffffffH
	DD	0eH
	DD	00H
	ORG $+4
	DQ	000000000000006fH
	DD	0ffffffffH
	DD	010H
	DD	00H
	ORG $+4
	DQ	0000000000000066H
	DD	0ffffffffH
	DD	0fH
	DD	00H
	ORG $+4
	DQ	000000000000005fH
	DB	077H
	DB	076H
	DB	069H
	DB	065H
	DB	077H
	DB	00H
	DB	063H
	DB	068H
	DB	061H
	DB	06eH
	DB	067H
	DB	065H
	DB	054H
	DB	072H
	DB	061H
	DB	06eH
	DB	073H
	DB	070H
	DB	061H
	DB	072H
	DB	065H
	DB	06eH
	DB	063H
	DB	079H
	DB	00H
	DB	00H
	DB	063H
	DB	06fH
	DB	06cH
	DB	06fH
	DB	072H
	DB	050H
	DB	061H
	DB	06cH
	DB	065H
	DB	074H
	DB	074H
	DB	065H
	DB	00H
	DB	063H
	DB	068H
	DB	061H
	DB	06eH
	DB	067H
	DB	065H
	DB	052H
	DB	065H
	DB	064H
	DB	043H
	DB	06fH
	DB	06cH
	DB	06fH
	DB	072H
	DB	00H
	DB	063H
	DB	068H
	DB	061H
	DB	06eH
	DB	067H
	DB	065H
	DB	047H
	DB	072H
	DB	065H
	DB	065H
	DB	06eH
	DB	043H
	DB	06fH
	DB	06cH
	DB	06fH
	DB	072H
	DB	00H
	DB	063H
	DB	068H
	DB	061H
	DB	06eH
	DB	067H
	DB	065H
	DB	042H
	DB	06cH
	DB	075H
	DB	065H
	DB	043H
	DB	06fH
	DB	06cH
	DB	06fH
	DB	072H
	DB	00H
	ORG $+1
?qt_meta_data_wview@@3QBIB DD 08H			; qt_meta_data_wview
	DD	00H
	DD	00H
	DD	00H
	DD	05H
	DD	0eH
	DD	00H
	DD	00H
	DD	00H
	DD	00H
	DD	00H
	DD	00H
	DD	00H
	DD	00H
	DD	01H
	DD	01H
	DD	027H
	DD	02H
	DD	08H
	DD	03H
	DD	00H
	DD	02aH
	DD	02H
	DD	08H
	DD	04H
	DD	01H
	DD	02bH
	DD	02H
	DD	08H
	DD	05H
	DD	01H
	DD	02eH
	DD	02H
	DD	08H
	DD	06H
	DD	01H
	DD	031H
	DD	02H
	DD	08H
	DD	02bH
	DD	02H
	DD	02H
	DD	02bH
	DD	02bH
	DD	02H
	DD	02H
	DD	02bH
	DD	02H
	DD	02H
	DD	02bH
	DD	02H
	DD	02H
	DD	00H
	ORG $+12
?qt_meta_stringdata_xModelNavigator@@3Uqt_meta_stringdata_xModelNavigator_t@@B DD 0ffffffffH ; qt_meta_stringdata_xModelNavigator
	DD	0fH
	DD	00H
	ORG $+4
	DQ	0000000000000108H
	DD	0ffffffffH
	DD	017H
	DD	00H
	ORG $+4
	DQ	0000000000000100H
	DD	0ffffffffH
	DD	00H
	DD	00H
	ORG $+4
	DQ	0000000000000100H
	DD	0ffffffffH
	DD	0cH
	DD	00H
	ORG $+4
	DQ	00000000000000e9H
	DD	0ffffffffH
	DD	016H
	DD	00H
	ORG $+4
	DQ	00000000000000deH
	DD	0ffffffffH
	DD	0bH
	DD	00H
	ORG $+4
	DQ	00000000000000ddH
	DD	0ffffffffH
	DD	013H
	DD	00H
	ORG $+4
	DQ	00000000000000d1H
	DD	0ffffffffH
	DD	08H
	DD	00H
	ORG $+4
	DQ	00000000000000cdH
	DD	0ffffffffH
	DD	019H
	DD	00H
	ORG $+4
	DQ	00000000000000beH
	DD	0ffffffffH
	DD	0bH
	DD	00H
	ORG $+4
	DQ	00000000000000c0H
	DD	0ffffffffH
	DD	010H
	DD	00H
	ORG $+4
	DQ	00000000000000b4H
	DB	078H
	DB	04dH
	DB	06fH
	DB	064H
	DB	065H
	DB	06cH
	DB	04eH
	DB	061H
	DB	076H
	DB	069H
	DB	067H
	DB	061H
	DB	074H
	DB	06fH
	DB	072H
	DB	00H
	DB	064H
	DB	065H
	DB	066H
	DB	069H
	DB	06eH
	DB	065H
	DB	064H
	DB	053H
	DB	069H
	DB	06dH
	DB	075H
	DB	06cH
	DB	061H
	DB	074H
	DB	069H
	DB	06fH
	DB	06eH
	DB	057H
	DB	069H
	DB	064H
	DB	067H
	DB	065H
	DB	074H
	DB	00H
	DB	00H
	DB	077H
	DB	073H
	DB	069H
	DB	06dH
	DB	075H
	DB	06cH
	DB	061H
	DB	074H
	DB	069H
	DB	06fH
	DB	06eH
	DB	02aH
	DB	00H
	DB	064H
	DB	065H
	DB	066H
	DB	069H
	DB	06eH
	DB	065H
	DB	064H
	DB	050H
	DB	06fH
	DB	069H
	DB	06eH
	DB	074H
	DB	04dH
	DB	061H
	DB	073H
	DB	073H
	DB	057H
	DB	069H
	DB	064H
	DB	067H
	DB	065H
	DB	074H
	DB	00H
	DB	077H
	DB	070H
	DB	06fH
	DB	069H
	DB	06eH
	DB	074H
	DB	06dH
	DB	061H
	DB	073H
	DB	073H
	DB	02aH
	DB	00H
	DB	064H
	DB	065H
	DB	066H
	DB	069H
	DB	06eH
	DB	065H
	DB	064H
	DB	052H
	DB	065H
	DB	073H
	DB	075H
	DB	06cH
	DB	074H
	DB	057H
	DB	069H
	DB	064H
	DB	067H
	DB	065H
	DB	074H
	DB	00H
	DB	077H
	DB	072H
	DB	065H
	DB	073H
	DB	075H
	DB	06cH
	DB	074H
	DB	02aH
	DB	00H
	DB	049H
	DB	06eH
	DB	069H
	DB	074H
	DB	069H
	DB	061H
	DB	06cH
	DB	069H
	DB	07aH
	DB	065H
	DB	057H
	DB	069H
	DB	064H
	DB	067H
	DB	065H
	DB	074H
	DB	053H
	DB	074H
	DB	061H
	DB	074H
	DB	065H
	DB	06dH
	DB	065H
	DB	06eH
	DB	074H
	DB	00H
	DB	063H
	DB	06cH
	DB	069H
	DB	063H
	DB	06bH
	DB	041H
	DB	063H
	DB	074H
	DB	069H
	DB	06fH
	DB	06eH
	DB	00H
	DB	051H
	DB	054H
	DB	072H
	DB	065H
	DB	065H
	DB	057H
	DB	069H
	DB	064H
	DB	067H
	DB	065H
	DB	074H
	DB	049H
	DB	074H
	DB	065H
	DB	06dH
	DB	02aH
	DB	00H
	ORG $+3
	ORG $+8
?qt_meta_data_xModelNavigator@@3QBIB DD 08H		; qt_meta_data_xModelNavigator
	DD	00H
	DD	00H
	DD	00H
	DD	05H
	DD	0eH
	DD	00H
	DD	00H
	DD	00H
	DD	00H
	DD	00H
	DD	00H
	DD	00H
	DD	04H
	DD	01H
	DD	01H
	DD	027H
	DD	02H
	DD	06H
	DD	04H
	DD	01H
	DD	02aH
	DD	02H
	DD	06H
	DD	06H
	DD	01H
	DD	02dH
	DD	02H
	DD	06H
	DD	08H
	DD	00H
	DD	030H
	DD	02H
	DD	06H
	DD	09H
	DD	02H
	DD	031H
	DD	02H
	DD	08H
	DD	02bH
	DD	080000003H
	DD	02H
	DD	02bH
	DD	080000005H
	DD	02H
	DD	02bH
	DD	080000007H
	DD	02H
	DD	02bH
	DD	02bH
	DD	08000000aH
	DD	02H
	DD	02H
	DD	02H
	DD	00H
CONST	ENDS
PUBLIC	?metaObject@wview@@UEBAPEBUQMetaObject@@XZ	; wview::metaObject
PUBLIC	?qt_metacast@wview@@UEAAPEAXPEBD@Z		; wview::qt_metacast
PUBLIC	?qt_metacall@wview@@UEAAHW4Call@QMetaObject@@HPEAPEAX@Z ; wview::qt_metacall
PUBLIC	?qt_static_metacall@wview@@CAXPEAVQObject@@W4Call@QMetaObject@@HPEAPEAX@Z ; wview::qt_static_metacall
PUBLIC	?metaObject@xModelNavigator@@UEBAPEBUQMetaObject@@XZ ; xModelNavigator::metaObject
PUBLIC	?qt_metacast@xModelNavigator@@UEAAPEAXPEBD@Z	; xModelNavigator::qt_metacast
PUBLIC	?qt_metacall@xModelNavigator@@UEAAHW4Call@QMetaObject@@HPEAPEAX@Z ; xModelNavigator::qt_metacall
PUBLIC	?qt_static_metacall@xModelNavigator@@CAXPEAVQObject@@W4Call@QMetaObject@@HPEAPEAX@Z ; xModelNavigator::qt_static_metacall
PUBLIC	?definedSimulationWidget@xModelNavigator@@QEAAXPEAVwsimulation@@@Z ; xModelNavigator::definedSimulationWidget
PUBLIC	?definedPointMassWidget@xModelNavigator@@QEAAXPEAVwpointmass@@@Z ; xModelNavigator::definedPointMassWidget
PUBLIC	?definedResultWidget@xModelNavigator@@QEAAXPEAVwresult@@@Z ; xModelNavigator::definedResultWidget
PUBLIC	?InitializeWidgetStatement@xModelNavigator@@QEAAXXZ ; xModelNavigator::InitializeWidgetStatement
PUBLIC	?qt_metatype_id@?$QMetaTypeIdQObject@PEAVwsimulation@@$07@@SAHXZ ; QMetaTypeIdQObject<wsimulation *,8>::qt_metatype_id
PUBLIC	?qt_metatype_id@?$QMetaTypeId2@PEAVwsimulation@@@@SAHXZ ; QMetaTypeId2<wsimulation *>::qt_metatype_id
PUBLIC	?qt_metatype_id@?$QMetaTypeIdQObject@PEAVwpointmass@@$07@@SAHXZ ; QMetaTypeIdQObject<wpointmass *,8>::qt_metatype_id
PUBLIC	?qt_metatype_id@?$QMetaTypeId2@PEAVwpointmass@@@@SAHXZ ; QMetaTypeId2<wpointmass *>::qt_metatype_id
PUBLIC	?qt_metatype_id@?$QMetaTypeIdQObject@PEAVwresult@@$07@@SAHXZ ; QMetaTypeIdQObject<wresult *,8>::qt_metatype_id
PUBLIC	?qt_metatype_id@?$QMetaTypeId2@PEAVwresult@@@@SAHXZ ; QMetaTypeId2<wresult *>::qt_metatype_id
PUBLIC	??$qRegisterNormalizedMetaType@PEAVwresult@@@@YAHAEBVQByteArray@@PEAPEAVwresult@@W4DefinedType@?$MetaTypeDefinedHelper@PEAVwresult@@$00@QtPrivate@@@Z ; qRegisterNormalizedMetaType<wresult *>
PUBLIC	??$qRegisterNormalizedMetaType@PEAVwpointmass@@@@YAHAEBVQByteArray@@PEAPEAVwpointmass@@W4DefinedType@?$MetaTypeDefinedHelper@PEAVwpointmass@@$00@QtPrivate@@@Z ; qRegisterNormalizedMetaType<wpointmass *>
PUBLIC	??$qRegisterNormalizedMetaType@PEAVwsimulation@@@@YAHAEBVQByteArray@@PEAPEAVwsimulation@@W4DefinedType@?$MetaTypeDefinedHelper@PEAVwsimulation@@$00@QtPrivate@@@Z ; qRegisterNormalizedMetaType<wsimulation *>
PUBLIC	?Destruct@?$QMetaTypeFunctionHelper@PEAVwresult@@$00@QtMetaTypePrivate@@SAXPEAX@Z ; QtMetaTypePrivate::QMetaTypeFunctionHelper<wresult *,1>::Destruct
PUBLIC	?Construct@?$QMetaTypeFunctionHelper@PEAVwresult@@$00@QtMetaTypePrivate@@SAPEAXPEAXPEBX@Z ; QtMetaTypePrivate::QMetaTypeFunctionHelper<wresult *,1>::Construct
PUBLIC	?Destruct@?$QMetaTypeFunctionHelper@PEAVwpointmass@@$00@QtMetaTypePrivate@@SAXPEAX@Z ; QtMetaTypePrivate::QMetaTypeFunctionHelper<wpointmass *,1>::Destruct
PUBLIC	?Construct@?$QMetaTypeFunctionHelper@PEAVwpointmass@@$00@QtMetaTypePrivate@@SAPEAXPEAXPEBX@Z ; QtMetaTypePrivate::QMetaTypeFunctionHelper<wpointmass *,1>::Construct
PUBLIC	?Destruct@?$QMetaTypeFunctionHelper@PEAVwsimulation@@$00@QtMetaTypePrivate@@SAXPEAX@Z ; QtMetaTypePrivate::QMetaTypeFunctionHelper<wsimulation *,1>::Destruct
PUBLIC	?Construct@?$QMetaTypeFunctionHelper@PEAVwsimulation@@$00@QtMetaTypePrivate@@SAPEAXPEAXPEBX@Z ; QtMetaTypePrivate::QMetaTypeFunctionHelper<wsimulation *,1>::Construct
PUBLIC	?staticMetaObject@wview@@2UQMetaObject@@B	; wview::staticMetaObject
PUBLIC	?staticMetaObject@xModelNavigator@@2UQMetaObject@@B ; xModelNavigator::staticMetaObject
PUBLIC	??_C@_09KDGPCOLG@Ui?3?3wview@			; `string'
PUBLIC	?metatype_id@?1??qt_metatype_id@?$QMetaTypeIdQObject@PEAVwresult@@$07@@SAHXZ@4V?$QBasicAtomicInteger@H@@A ; `QMetaTypeIdQObject<wresult *,8>::qt_metatype_id'::`2'::metatype_id
PUBLIC	?$TSS0@?1??qt_metatype_id@?$QMetaTypeIdQObject@PEAVwresult@@$07@@SAHXZ@4HA ; TSS0<`template-parameter-2',QMetaTypeIdQObject<wresult *,8>::t_metatype_id,int * const volatile,void,int, ?? &>
PUBLIC	?metatype_id@?1??qt_metatype_id@?$QMetaTypeIdQObject@PEAVwpointmass@@$07@@SAHXZ@4V?$QBasicAtomicInteger@H@@A ; `QMetaTypeIdQObject<wpointmass *,8>::qt_metatype_id'::`2'::metatype_id
PUBLIC	?$TSS0@?1??qt_metatype_id@?$QMetaTypeIdQObject@PEAVwpointmass@@$07@@SAHXZ@4HA ; TSS0<`template-parameter-2',QMetaTypeIdQObject<wpointmass *,8>::t_metatype_id,int * const volatile,void,int, ?? &>
PUBLIC	?metatype_id@?1??qt_metatype_id@?$QMetaTypeIdQObject@PEAVwsimulation@@$07@@SAHXZ@4V?$QBasicAtomicInteger@H@@A ; `QMetaTypeIdQObject<wsimulation *,8>::qt_metatype_id'::`2'::metatype_id
PUBLIC	?$TSS0@?1??qt_metatype_id@?$QMetaTypeIdQObject@PEAVwsimulation@@$07@@SAHXZ@4HA ; TSS0<`template-parameter-2',QMetaTypeIdQObject<wsimulation *,8>::t_metatype_id,int * const volatile,void,int, ?? &>
EXTRN	_Init_thread_header:PROC
EXTRN	_Init_thread_footer:PROC
EXTRN	__imp_?className@QMetaObject@@QEBAPEBDXZ:PROC
EXTRN	__imp_?activate@QMetaObject@@SAXPEAVQObject@@PEBU1@HPEAPEAX@Z:PROC
EXTRN	__imp_??0QByteArray@@QEAA@XZ:PROC
EXTRN	__imp_??1QByteArray@@QEAA@XZ:PROC
EXTRN	__imp_?reserve@QByteArray@@QEAAXH@Z:PROC
EXTRN	__imp_?append@QByteArray@@QEAAAEAV1@D@Z:PROC
EXTRN	__imp_?append@QByteArray@@QEAAAEAV1@PEBD@Z:PROC
EXTRN	__imp_?registerNormalizedType@QMetaType@@SAHAEBVQByteArray@@P6AXPEAX@ZP6APEAX1PEBX@ZHV?$QFlags@W4TypeFlag@QMetaType@@@@PEBUQMetaObject@@@Z:PROC
EXTRN	__imp_?registerNormalizedTypedef@QMetaType@@SAHAEBVQByteArray@@H@Z:PROC
EXTRN	__imp_?dynamicMetaObject@QObjectData@@QEBAPEAUQMetaObject@@XZ:PROC
EXTRN	__imp_?qt_metacast@QWidget@@UEAAPEAXPEBD@Z:PROC
EXTRN	__imp_?qt_metacall@QWidget@@UEAAHW4Call@QMetaObject@@HPEAPEAX@Z:PROC
EXTRN	__imp_?qt_metacast@QDockWidget@@UEAAPEAXPEBD@Z:PROC
EXTRN	__imp_?qt_metacall@QDockWidget@@UEAAHW4Call@QMetaObject@@HPEAPEAX@Z:PROC
EXTRN	?changeTransparency@wview@@AEAAXH@Z:PROC	; wview::changeTransparency
EXTRN	?colorPalette@wview@@AEAAXXZ:PROC		; wview::colorPalette
EXTRN	?changeRedColor@wview@@AEAAXH@Z:PROC		; wview::changeRedColor
EXTRN	?changeGreenColor@wview@@AEAAXH@Z:PROC		; wview::changeGreenColor
EXTRN	?changeBlueColor@wview@@AEAAXH@Z:PROC		; wview::changeBlueColor
EXTRN	?clickAction@xModelNavigator@@AEAAXPEAVQTreeWidgetItem@@H@Z:PROC ; xModelNavigator::clickAction
EXTRN	__CxxFrameHandler3:PROC
EXTRN	strcmp:PROC
EXTRN	_Init_thread_epoch:DWORD
EXTRN	?staticMetaObject@wsimulation@@2UQMetaObject@@B:BYTE ; wsimulation::staticMetaObject
EXTRN	?staticMetaObject@wpointmass@@2UQMetaObject@@B:BYTE ; wpointmass::staticMetaObject
EXTRN	?staticMetaObject@wresult@@2UQMetaObject@@B:BYTE ; wresult::staticMetaObject
EXTRN	_tls_index:DWORD
;	COMDAT ?metatype_id@?1??qt_metatype_id@?$QMetaTypeIdQObject@PEAVwresult@@$07@@SAHXZ@4V?$QBasicAtomicInteger@H@@A
_BSS	SEGMENT
?metatype_id@?1??qt_metatype_id@?$QMetaTypeIdQObject@PEAVwresult@@$07@@SAHXZ@4V?$QBasicAtomicInteger@H@@A DD 01H DUP (?) ; `QMetaTypeIdQObject<wresult *,8>::qt_metatype_id'::`2'::metatype_id
_BSS	ENDS
;	COMDAT ?$TSS0@?1??qt_metatype_id@?$QMetaTypeIdQObject@PEAVwresult@@$07@@SAHXZ@4HA
_BSS	SEGMENT
?$TSS0@?1??qt_metatype_id@?$QMetaTypeIdQObject@PEAVwresult@@$07@@SAHXZ@4HA DD 01H DUP (?) ; TSS0<`template-parameter-2',QMetaTypeIdQObject<wresult *,8>::t_metatype_id,int * const volatile,void,int, ?? &>
_BSS	ENDS
;	COMDAT ?metatype_id@?1??qt_metatype_id@?$QMetaTypeIdQObject@PEAVwpointmass@@$07@@SAHXZ@4V?$QBasicAtomicInteger@H@@A
_BSS	SEGMENT
?metatype_id@?1??qt_metatype_id@?$QMetaTypeIdQObject@PEAVwpointmass@@$07@@SAHXZ@4V?$QBasicAtomicInteger@H@@A DD 01H DUP (?) ; `QMetaTypeIdQObject<wpointmass *,8>::qt_metatype_id'::`2'::metatype_id
_BSS	ENDS
;	COMDAT ?$TSS0@?1??qt_metatype_id@?$QMetaTypeIdQObject@PEAVwpointmass@@$07@@SAHXZ@4HA
_BSS	SEGMENT
?$TSS0@?1??qt_metatype_id@?$QMetaTypeIdQObject@PEAVwpointmass@@$07@@SAHXZ@4HA DD 01H DUP (?) ; TSS0<`template-parameter-2',QMetaTypeIdQObject<wpointmass *,8>::t_metatype_id,int * const volatile,void,int, ?? &>
_BSS	ENDS
;	COMDAT ?metatype_id@?1??qt_metatype_id@?$QMetaTypeIdQObject@PEAVwsimulation@@$07@@SAHXZ@4V?$QBasicAtomicInteger@H@@A
_BSS	SEGMENT
?metatype_id@?1??qt_metatype_id@?$QMetaTypeIdQObject@PEAVwsimulation@@$07@@SAHXZ@4V?$QBasicAtomicInteger@H@@A DD 01H DUP (?) ; `QMetaTypeIdQObject<wsimulation *,8>::qt_metatype_id'::`2'::metatype_id
_BSS	ENDS
;	COMDAT ?$TSS0@?1??qt_metatype_id@?$QMetaTypeIdQObject@PEAVwsimulation@@$07@@SAHXZ@4HA
_BSS	SEGMENT
?$TSS0@?1??qt_metatype_id@?$QMetaTypeIdQObject@PEAVwsimulation@@$07@@SAHXZ@4HA DD 01H DUP (?) ; TSS0<`template-parameter-2',QMetaTypeIdQObject<wsimulation *,8>::t_metatype_id,int * const volatile,void,int, ?? &>
_BSS	ENDS
;	COMDAT pdata
pdata	SEGMENT
$pdata$?qt_metacast@wview@@UEAAPEAXPEBD@Z DD imagerel $LN11
	DD	imagerel $LN11+151
	DD	imagerel $unwind$?qt_metacast@wview@@UEAAPEAXPEBD@Z
pdata	ENDS
;	COMDAT pdata
pdata	SEGMENT
$pdata$?qt_metacall@wview@@UEAAHW4Call@QMetaObject@@HPEAPEAX@Z DD imagerel $LN10
	DD	imagerel $LN10+112
	DD	imagerel $unwind$?qt_metacall@wview@@UEAAHW4Call@QMetaObject@@HPEAPEAX@Z
pdata	ENDS
;	COMDAT pdata
pdata	SEGMENT
$pdata$?qt_metacall@xModelNavigator@@UEAAHW4Call@QMetaObject@@HPEAPEAX@Z DD imagerel $LN11
	DD	imagerel $LN11+105
	DD	imagerel $unwind$?qt_metacall@xModelNavigator@@UEAAHW4Call@QMetaObject@@HPEAPEAX@Z
pdata	ENDS
;	COMDAT pdata
pdata	SEGMENT
$pdata$?qt_static_metacall@xModelNavigator@@CAXPEAVQObject@@W4Call@QMetaObject@@HPEAPEAX@Z DD imagerel $LN81
	DD	imagerel $LN81+469
	DD	imagerel $unwind$?qt_static_metacall@xModelNavigator@@CAXPEAVQObject@@W4Call@QMetaObject@@HPEAPEAX@Z
pdata	ENDS
;	COMDAT pdata
pdata	SEGMENT
$pdata$?definedSimulationWidget@xModelNavigator@@QEAAXPEAVwsimulation@@@Z DD imagerel $LN4
	DD	imagerel $LN4+54
	DD	imagerel $unwind$?definedSimulationWidget@xModelNavigator@@QEAAXPEAVwsimulation@@@Z
pdata	ENDS
;	COMDAT pdata
pdata	SEGMENT
$pdata$?definedPointMassWidget@xModelNavigator@@QEAAXPEAVwpointmass@@@Z DD imagerel $LN4
	DD	imagerel $LN4+57
	DD	imagerel $unwind$?definedPointMassWidget@xModelNavigator@@QEAAXPEAVwpointmass@@@Z
pdata	ENDS
;	COMDAT pdata
pdata	SEGMENT
$pdata$?definedResultWidget@xModelNavigator@@QEAAXPEAVwresult@@@Z DD imagerel $LN4
	DD	imagerel $LN4+57
	DD	imagerel $unwind$?definedResultWidget@xModelNavigator@@QEAAXPEAVwresult@@@Z
pdata	ENDS
;	COMDAT pdata
pdata	SEGMENT
$pdata$?qt_metatype_id@?$QMetaTypeIdQObject@PEAVwsimulation@@$07@@SAHXZ DD imagerel $LN89
	DD	imagerel $LN89+297
	DD	imagerel $unwind$?qt_metatype_id@?$QMetaTypeIdQObject@PEAVwsimulation@@$07@@SAHXZ
pdata	ENDS
;	COMDAT pdata
pdata	SEGMENT
$pdata$?qt_metatype_id@?$QMetaTypeId2@PEAVwsimulation@@@@SAHXZ DD imagerel $LN89
	DD	imagerel $LN89+297
	DD	imagerel $unwind$?qt_metatype_id@?$QMetaTypeId2@PEAVwsimulation@@@@SAHXZ
pdata	ENDS
;	COMDAT pdata
pdata	SEGMENT
$pdata$?qt_metatype_id@?$QMetaTypeIdQObject@PEAVwpointmass@@$07@@SAHXZ DD imagerel $LN89
	DD	imagerel $LN89+297
	DD	imagerel $unwind$?qt_metatype_id@?$QMetaTypeIdQObject@PEAVwpointmass@@$07@@SAHXZ
pdata	ENDS
;	COMDAT pdata
pdata	SEGMENT
$pdata$?qt_metatype_id@?$QMetaTypeId2@PEAVwpointmass@@@@SAHXZ DD imagerel $LN89
	DD	imagerel $LN89+297
	DD	imagerel $unwind$?qt_metatype_id@?$QMetaTypeId2@PEAVwpointmass@@@@SAHXZ
pdata	ENDS
;	COMDAT pdata
pdata	SEGMENT
$pdata$?qt_metatype_id@?$QMetaTypeIdQObject@PEAVwresult@@$07@@SAHXZ DD imagerel $LN89
	DD	imagerel $LN89+297
	DD	imagerel $unwind$?qt_metatype_id@?$QMetaTypeIdQObject@PEAVwresult@@$07@@SAHXZ
pdata	ENDS
;	COMDAT pdata
pdata	SEGMENT
$pdata$?qt_metatype_id@?$QMetaTypeId2@PEAVwresult@@@@SAHXZ DD imagerel $LN89
	DD	imagerel $LN89+297
	DD	imagerel $unwind$?qt_metatype_id@?$QMetaTypeId2@PEAVwresult@@@@SAHXZ
pdata	ENDS
;	COMDAT pdata
pdata	SEGMENT
$pdata$??$qRegisterNormalizedMetaType@PEAVwresult@@@@YAHAEBVQByteArray@@PEAPEAVwresult@@W4DefinedType@?$MetaTypeDefinedHelper@PEAVwresult@@$00@QtPrivate@@@Z DD imagerel $LN32
	DD	imagerel $LN32+124
	DD	imagerel $unwind$??$qRegisterNormalizedMetaType@PEAVwresult@@@@YAHAEBVQByteArray@@PEAPEAVwresult@@W4DefinedType@?$MetaTypeDefinedHelper@PEAVwresult@@$00@QtPrivate@@@Z
pdata	ENDS
;	COMDAT pdata
pdata	SEGMENT
$pdata$??$qRegisterNormalizedMetaType@PEAVwpointmass@@@@YAHAEBVQByteArray@@PEAPEAVwpointmass@@W4DefinedType@?$MetaTypeDefinedHelper@PEAVwpointmass@@$00@QtPrivate@@@Z DD imagerel $LN32
	DD	imagerel $LN32+124
	DD	imagerel $unwind$??$qRegisterNormalizedMetaType@PEAVwpointmass@@@@YAHAEBVQByteArray@@PEAPEAVwpointmass@@W4DefinedType@?$MetaTypeDefinedHelper@PEAVwpointmass@@$00@QtPrivate@@@Z
pdata	ENDS
;	COMDAT pdata
pdata	SEGMENT
$pdata$??$qRegisterNormalizedMetaType@PEAVwsimulation@@@@YAHAEBVQByteArray@@PEAPEAVwsimulation@@W4DefinedType@?$MetaTypeDefinedHelper@PEAVwsimulation@@$00@QtPrivate@@@Z DD imagerel $LN32
	DD	imagerel $LN32+124
	DD	imagerel $unwind$??$qRegisterNormalizedMetaType@PEAVwsimulation@@@@YAHAEBVQByteArray@@PEAPEAVwsimulation@@W4DefinedType@?$MetaTypeDefinedHelper@PEAVwsimulation@@$00@QtPrivate@@@Z
pdata	ENDS
CRT$XCU	SEGMENT
??staticMetaObject$initializer$@wview@@2P6AXXZEA@@3P6AXXZEA DQ FLAT:??__E?staticMetaObject@wview@@2UQMetaObject@@B@@YAXXZ ; ??staticMetaObject$initializer$@wview@@2P6AXXZEA@@3P6AXXZEA
CRT$XCU	ENDS
;	COMDAT ??_C@_09KDGPCOLG@Ui?3?3wview@
CONST	SEGMENT
??_C@_09KDGPCOLG@Ui?3?3wview@ DB 'Ui::wview', 00H	; `string'
CONST	ENDS
_DATA	SEGMENT
?staticMetaObject@wview@@2UQMetaObject@@B DB 8 DUP(00H)	; wview::staticMetaObject
	DQ	FLAT:?qt_meta_stringdata_wview@@3Uqt_meta_stringdata_wview_t@@B
	DQ	FLAT:?qt_meta_data_wview@@3QBIB
	DQ	FLAT:?qt_static_metacall@wview@@CAXPEAVQObject@@W4Call@QMetaObject@@HPEAPEAX@Z
	DQ	0000000000000000H
	DQ	0000000000000000H
?staticMetaObject@xModelNavigator@@2UQMetaObject@@B DB 8 DUP(00H) ; xModelNavigator::staticMetaObject
	DQ	FLAT:?qt_meta_stringdata_xModelNavigator@@3Uqt_meta_stringdata_xModelNavigator_t@@B
	DQ	FLAT:?qt_meta_data_xModelNavigator@@3QBIB
	DQ	FLAT:?qt_static_metacall@xModelNavigator@@CAXPEAVQObject@@W4Call@QMetaObject@@HPEAPEAX@Z
	DQ	0000000000000000H
	DQ	0000000000000000H
_DATA	ENDS
;	COMDAT xdata
xdata	SEGMENT
$unwind$??$qRegisterNormalizedMetaType@PEAVwsimulation@@@@YAHAEBVQByteArray@@PEAPEAVwsimulation@@W4DefinedType@?$MetaTypeDefinedHelper@PEAVwsimulation@@$00@QtPrivate@@@Z DD 040a01H
	DD	08340aH
	DD	07006520aH
xdata	ENDS
;	COMDAT xdata
xdata	SEGMENT
$unwind$??$qRegisterNormalizedMetaType@PEAVwpointmass@@@@YAHAEBVQByteArray@@PEAPEAVwpointmass@@W4DefinedType@?$MetaTypeDefinedHelper@PEAVwpointmass@@$00@QtPrivate@@@Z DD 040a01H
	DD	08340aH
	DD	07006520aH
xdata	ENDS
;	COMDAT xdata
xdata	SEGMENT
$unwind$??$qRegisterNormalizedMetaType@PEAVwresult@@@@YAHAEBVQByteArray@@PEAPEAVwresult@@W4DefinedType@?$MetaTypeDefinedHelper@PEAVwresult@@$00@QtPrivate@@@Z DD 040a01H
	DD	08340aH
	DD	07006520aH
xdata	ENDS
;	COMDAT xdata
xdata	SEGMENT
$ip2state$?qt_metatype_id@?$QMetaTypeId2@PEAVwresult@@@@SAHXZ DD imagerel ?qt_metatype_id@?$QMetaTypeId2@PEAVwresult@@@@SAHXZ+83
	DD	0ffffffffH
	DD	imagerel ?qt_metatype_id@?$QMetaTypeId2@PEAVwresult@@@@SAHXZ+130
	DD	00H
	DD	imagerel ?qt_metatype_id@?$QMetaTypeId2@PEAVwresult@@@@SAHXZ+221
	DD	0ffffffffH
xdata	ENDS
;	COMDAT xdata
xdata	SEGMENT
$stateUnwindMap$?qt_metatype_id@?$QMetaTypeId2@PEAVwresult@@@@SAHXZ DD 0ffffffffH
	DD	imagerel ?dtor$0@?0??qt_metatype_id@?$QMetaTypeId2@PEAVwresult@@@@SAHXZ@4HA
xdata	ENDS
;	COMDAT CONST
CONST	SEGMENT
$cppxdata$?qt_metatype_id@?$QMetaTypeId2@PEAVwresult@@@@SAHXZ DD 019930522H
	DD	01H
	DD	imagerel $stateUnwindMap$?qt_metatype_id@?$QMetaTypeId2@PEAVwresult@@@@SAHXZ
	DD	00H
	DD	00H
	DD	03H
	DD	imagerel $ip2state$?qt_metatype_id@?$QMetaTypeId2@PEAVwresult@@@@SAHXZ
	DD	030H
	DD	00H
	DD	01H
CONST	ENDS
;	COMDAT xdata
xdata	SEGMENT
$unwind$?qt_metatype_id@?$QMetaTypeId2@PEAVwresult@@@@SAHXZ DD 041411H
	DD	0c3414H
	DD	070027206H
	DD	imagerel __CxxFrameHandler3
	DD	imagerel $cppxdata$?qt_metatype_id@?$QMetaTypeId2@PEAVwresult@@@@SAHXZ
xdata	ENDS
;	COMDAT xdata
xdata	SEGMENT
$ip2state$?qt_metatype_id@?$QMetaTypeIdQObject@PEAVwresult@@$07@@SAHXZ DD imagerel ?qt_metatype_id@?$QMetaTypeIdQObject@PEAVwresult@@$07@@SAHXZ+83
	DD	0ffffffffH
	DD	imagerel ?qt_metatype_id@?$QMetaTypeIdQObject@PEAVwresult@@$07@@SAHXZ+130
	DD	00H
	DD	imagerel ?qt_metatype_id@?$QMetaTypeIdQObject@PEAVwresult@@$07@@SAHXZ+221
	DD	0ffffffffH
xdata	ENDS
;	COMDAT xdata
xdata	SEGMENT
$stateUnwindMap$?qt_metatype_id@?$QMetaTypeIdQObject@PEAVwresult@@$07@@SAHXZ DD 0ffffffffH
	DD	imagerel ?dtor$0@?0??qt_metatype_id@?$QMetaTypeIdQObject@PEAVwresult@@$07@@SAHXZ@4HA
xdata	ENDS
;	COMDAT CONST
CONST	SEGMENT
$cppxdata$?qt_metatype_id@?$QMetaTypeIdQObject@PEAVwresult@@$07@@SAHXZ DD 019930522H
	DD	01H
	DD	imagerel $stateUnwindMap$?qt_metatype_id@?$QMetaTypeIdQObject@PEAVwresult@@$07@@SAHXZ
	DD	00H
	DD	00H
	DD	03H
	DD	imagerel $ip2state$?qt_metatype_id@?$QMetaTypeIdQObject@PEAVwresult@@$07@@SAHXZ
	DD	030H
	DD	00H
	DD	01H
CONST	ENDS
;	COMDAT xdata
xdata	SEGMENT
$unwind$?qt_metatype_id@?$QMetaTypeIdQObject@PEAVwresult@@$07@@SAHXZ DD 041411H
	DD	0c3414H
	DD	070027206H
	DD	imagerel __CxxFrameHandler3
	DD	imagerel $cppxdata$?qt_metatype_id@?$QMetaTypeIdQObject@PEAVwresult@@$07@@SAHXZ
xdata	ENDS
;	COMDAT xdata
xdata	SEGMENT
$ip2state$?qt_metatype_id@?$QMetaTypeId2@PEAVwpointmass@@@@SAHXZ DD imagerel ?qt_metatype_id@?$QMetaTypeId2@PEAVwpointmass@@@@SAHXZ+83
	DD	0ffffffffH
	DD	imagerel ?qt_metatype_id@?$QMetaTypeId2@PEAVwpointmass@@@@SAHXZ+130
	DD	00H
	DD	imagerel ?qt_metatype_id@?$QMetaTypeId2@PEAVwpointmass@@@@SAHXZ+221
	DD	0ffffffffH
xdata	ENDS
;	COMDAT xdata
xdata	SEGMENT
$stateUnwindMap$?qt_metatype_id@?$QMetaTypeId2@PEAVwpointmass@@@@SAHXZ DD 0ffffffffH
	DD	imagerel ?dtor$0@?0??qt_metatype_id@?$QMetaTypeId2@PEAVwpointmass@@@@SAHXZ@4HA
xdata	ENDS
;	COMDAT CONST
CONST	SEGMENT
$cppxdata$?qt_metatype_id@?$QMetaTypeId2@PEAVwpointmass@@@@SAHXZ DD 019930522H
	DD	01H
	DD	imagerel $stateUnwindMap$?qt_metatype_id@?$QMetaTypeId2@PEAVwpointmass@@@@SAHXZ
	DD	00H
	DD	00H
	DD	03H
	DD	imagerel $ip2state$?qt_metatype_id@?$QMetaTypeId2@PEAVwpointmass@@@@SAHXZ
	DD	030H
	DD	00H
	DD	01H
CONST	ENDS
;	COMDAT xdata
xdata	SEGMENT
$unwind$?qt_metatype_id@?$QMetaTypeId2@PEAVwpointmass@@@@SAHXZ DD 041411H
	DD	0c3414H
	DD	070027206H
	DD	imagerel __CxxFrameHandler3
	DD	imagerel $cppxdata$?qt_metatype_id@?$QMetaTypeId2@PEAVwpointmass@@@@SAHXZ
xdata	ENDS
;	COMDAT xdata
xdata	SEGMENT
$ip2state$?qt_metatype_id@?$QMetaTypeIdQObject@PEAVwpointmass@@$07@@SAHXZ DD imagerel ?qt_metatype_id@?$QMetaTypeIdQObject@PEAVwpointmass@@$07@@SAHXZ+83
	DD	0ffffffffH
	DD	imagerel ?qt_metatype_id@?$QMetaTypeIdQObject@PEAVwpointmass@@$07@@SAHXZ+130
	DD	00H
	DD	imagerel ?qt_metatype_id@?$QMetaTypeIdQObject@PEAVwpointmass@@$07@@SAHXZ+221
	DD	0ffffffffH
xdata	ENDS
;	COMDAT xdata
xdata	SEGMENT
$stateUnwindMap$?qt_metatype_id@?$QMetaTypeIdQObject@PEAVwpointmass@@$07@@SAHXZ DD 0ffffffffH
	DD	imagerel ?dtor$0@?0??qt_metatype_id@?$QMetaTypeIdQObject@PEAVwpointmass@@$07@@SAHXZ@4HA
xdata	ENDS
;	COMDAT CONST
CONST	SEGMENT
$cppxdata$?qt_metatype_id@?$QMetaTypeIdQObject@PEAVwpointmass@@$07@@SAHXZ DD 019930522H
	DD	01H
	DD	imagerel $stateUnwindMap$?qt_metatype_id@?$QMetaTypeIdQObject@PEAVwpointmass@@$07@@SAHXZ
	DD	00H
	DD	00H
	DD	03H
	DD	imagerel $ip2state$?qt_metatype_id@?$QMetaTypeIdQObject@PEAVwpointmass@@$07@@SAHXZ
	DD	030H
	DD	00H
	DD	01H
CONST	ENDS
;	COMDAT xdata
xdata	SEGMENT
$unwind$?qt_metatype_id@?$QMetaTypeIdQObject@PEAVwpointmass@@$07@@SAHXZ DD 041411H
	DD	0c3414H
	DD	070027206H
	DD	imagerel __CxxFrameHandler3
	DD	imagerel $cppxdata$?qt_metatype_id@?$QMetaTypeIdQObject@PEAVwpointmass@@$07@@SAHXZ
xdata	ENDS
;	COMDAT xdata
xdata	SEGMENT
$ip2state$?qt_metatype_id@?$QMetaTypeId2@PEAVwsimulation@@@@SAHXZ DD imagerel ?qt_metatype_id@?$QMetaTypeId2@PEAVwsimulation@@@@SAHXZ+83
	DD	0ffffffffH
	DD	imagerel ?qt_metatype_id@?$QMetaTypeId2@PEAVwsimulation@@@@SAHXZ+130
	DD	00H
	DD	imagerel ?qt_metatype_id@?$QMetaTypeId2@PEAVwsimulation@@@@SAHXZ+221
	DD	0ffffffffH
xdata	ENDS
;	COMDAT xdata
xdata	SEGMENT
$stateUnwindMap$?qt_metatype_id@?$QMetaTypeId2@PEAVwsimulation@@@@SAHXZ DD 0ffffffffH
	DD	imagerel ?dtor$0@?0??qt_metatype_id@?$QMetaTypeId2@PEAVwsimulation@@@@SAHXZ@4HA
xdata	ENDS
;	COMDAT CONST
CONST	SEGMENT
$cppxdata$?qt_metatype_id@?$QMetaTypeId2@PEAVwsimulation@@@@SAHXZ DD 019930522H
	DD	01H
	DD	imagerel $stateUnwindMap$?qt_metatype_id@?$QMetaTypeId2@PEAVwsimulation@@@@SAHXZ
	DD	00H
	DD	00H
	DD	03H
	DD	imagerel $ip2state$?qt_metatype_id@?$QMetaTypeId2@PEAVwsimulation@@@@SAHXZ
	DD	030H
	DD	00H
	DD	01H
CONST	ENDS
;	COMDAT xdata
xdata	SEGMENT
$unwind$?qt_metatype_id@?$QMetaTypeId2@PEAVwsimulation@@@@SAHXZ DD 041411H
	DD	0c3414H
	DD	070027206H
	DD	imagerel __CxxFrameHandler3
	DD	imagerel $cppxdata$?qt_metatype_id@?$QMetaTypeId2@PEAVwsimulation@@@@SAHXZ
xdata	ENDS
;	COMDAT xdata
xdata	SEGMENT
$ip2state$?qt_metatype_id@?$QMetaTypeIdQObject@PEAVwsimulation@@$07@@SAHXZ DD imagerel ?qt_metatype_id@?$QMetaTypeIdQObject@PEAVwsimulation@@$07@@SAHXZ+83
	DD	0ffffffffH
	DD	imagerel ?qt_metatype_id@?$QMetaTypeIdQObject@PEAVwsimulation@@$07@@SAHXZ+130
	DD	00H
	DD	imagerel ?qt_metatype_id@?$QMetaTypeIdQObject@PEAVwsimulation@@$07@@SAHXZ+221
	DD	0ffffffffH
xdata	ENDS
;	COMDAT xdata
xdata	SEGMENT
$stateUnwindMap$?qt_metatype_id@?$QMetaTypeIdQObject@PEAVwsimulation@@$07@@SAHXZ DD 0ffffffffH
	DD	imagerel ?dtor$0@?0??qt_metatype_id@?$QMetaTypeIdQObject@PEAVwsimulation@@$07@@SAHXZ@4HA
xdata	ENDS
;	COMDAT CONST
CONST	SEGMENT
$cppxdata$?qt_metatype_id@?$QMetaTypeIdQObject@PEAVwsimulation@@$07@@SAHXZ DD 019930522H
	DD	01H
	DD	imagerel $stateUnwindMap$?qt_metatype_id@?$QMetaTypeIdQObject@PEAVwsimulation@@$07@@SAHXZ
	DD	00H
	DD	00H
	DD	03H
	DD	imagerel $ip2state$?qt_metatype_id@?$QMetaTypeIdQObject@PEAVwsimulation@@$07@@SAHXZ
	DD	030H
	DD	00H
	DD	01H
CONST	ENDS
;	COMDAT xdata
xdata	SEGMENT
$unwind$?qt_metatype_id@?$QMetaTypeIdQObject@PEAVwsimulation@@$07@@SAHXZ DD 041411H
	DD	0c3414H
	DD	070027206H
	DD	imagerel __CxxFrameHandler3
	DD	imagerel $cppxdata$?qt_metatype_id@?$QMetaTypeIdQObject@PEAVwsimulation@@$07@@SAHXZ
xdata	ENDS
;	COMDAT xdata
xdata	SEGMENT
$unwind$?definedResultWidget@xModelNavigator@@QEAAXPEAVwresult@@@Z DD 010901H
	DD	06209H
xdata	ENDS
;	COMDAT xdata
xdata	SEGMENT
$unwind$?definedPointMassWidget@xModelNavigator@@QEAAXPEAVwpointmass@@@Z DD 010901H
	DD	06209H
xdata	ENDS
;	COMDAT xdata
xdata	SEGMENT
$unwind$?definedSimulationWidget@xModelNavigator@@QEAAXPEAVwsimulation@@@Z DD 010901H
	DD	06209H
xdata	ENDS
;	COMDAT xdata
xdata	SEGMENT
$unwind$?qt_static_metacall@xModelNavigator@@CAXPEAVQObject@@W4Call@QMetaObject@@HPEAPEAX@Z DD 020601H
	DD	030027206H
xdata	ENDS
;	COMDAT xdata
xdata	SEGMENT
$unwind$?qt_metacall@xModelNavigator@@UEAAHW4Call@QMetaObject@@HPEAPEAX@Z DD 081401H
	DD	086414H
	DD	075414H
	DD	063414H
	DD	070103214H
xdata	ENDS
;	COMDAT xdata
xdata	SEGMENT
$unwind$?qt_metacall@wview@@UEAAHW4Call@QMetaObject@@HPEAPEAX@Z DD 081401H
	DD	086414H
	DD	075414H
	DD	063414H
	DD	070103214H
xdata	ENDS
;	COMDAT xdata
xdata	SEGMENT
$unwind$?qt_metacast@wview@@UEAAPEAXPEBD@Z DD 040a01H
	DD	06340aH
	DD	07006320aH
xdata	ENDS
CRT$XCU	SEGMENT
??staticMetaObject$initializer$@xModelNavigator@@2P6AXXZEA@@3P6AXXZEA DQ FLAT:??__E?staticMetaObject@xModelNavigator@@2UQMetaObject@@B@@YAXXZ ; ??staticMetaObject$initializer$@xModelNavigator@@2P6AXXZEA@@3P6AXXZEA
CRT$XCU	ENDS
; Function compile flags: /Ogtpy
;	COMDAT ?registerConverter@?$MetaTypeSmartPointerHelper@PEAVwsimulation@@X@QtPrivate@@SA_NH@Z
_TEXT	SEGMENT
__formal$ = 8
?registerConverter@?$MetaTypeSmartPointerHelper@PEAVwsimulation@@X@QtPrivate@@SA_NH@Z PROC ; QtPrivate::MetaTypeSmartPointerHelper<wsimulation *,void>::registerConverter, COMDAT
; File c:\qt\5.12.3\msvc2017_64\include\qtcore\qmetatype.h
; Line 1635
	xor	al, al
	ret	0
?registerConverter@?$MetaTypeSmartPointerHelper@PEAVwsimulation@@X@QtPrivate@@SA_NH@Z ENDP ; QtPrivate::MetaTypeSmartPointerHelper<wsimulation *,void>::registerConverter
_TEXT	ENDS
; Function compile flags: /Ogtpy
;	COMDAT ?registerConverter@?$IsPair@PEAVwsimulation@@@QtPrivate@@SA_NH@Z
_TEXT	SEGMENT
__formal$ = 8
?registerConverter@?$IsPair@PEAVwsimulation@@@QtPrivate@@SA_NH@Z PROC ; QtPrivate::IsPair<wsimulation *>::registerConverter, COMDAT
; File c:\qt\5.12.3\msvc2017_64\include\qtcore\qmetatype.h
; Line 1621
	xor	al, al
; Line 1622
	ret	0
?registerConverter@?$IsPair@PEAVwsimulation@@@QtPrivate@@SA_NH@Z ENDP ; QtPrivate::IsPair<wsimulation *>::registerConverter
_TEXT	ENDS
; Function compile flags: /Ogtpy
;	COMDAT ?registerConverter@?$AssociativeContainerConverterHelper@PEAVwsimulation@@$0A@@QtPrivate@@SA_NH@Z
_TEXT	SEGMENT
__formal$ = 8
?registerConverter@?$AssociativeContainerConverterHelper@PEAVwsimulation@@$0A@@QtPrivate@@SA_NH@Z PROC ; QtPrivate::AssociativeContainerConverterHelper<wsimulation *,0>::registerConverter, COMDAT
; File c:\qt\5.12.3\msvc2017_64\include\qtcore\qmetatype.h
; Line 1568
	xor	al, al
; Line 1569
	ret	0
?registerConverter@?$AssociativeContainerConverterHelper@PEAVwsimulation@@$0A@@QtPrivate@@SA_NH@Z ENDP ; QtPrivate::AssociativeContainerConverterHelper<wsimulation *,0>::registerConverter
_TEXT	ENDS
; Function compile flags: /Ogtpy
;	COMDAT ?registerConverter@?$SequentialContainerConverterHelper@PEAVwsimulation@@$0A@@QtPrivate@@SA_NH@Z
_TEXT	SEGMENT
__formal$ = 8
?registerConverter@?$SequentialContainerConverterHelper@PEAVwsimulation@@$0A@@QtPrivate@@SA_NH@Z PROC ; QtPrivate::SequentialContainerConverterHelper<wsimulation *,0>::registerConverter, COMDAT
; File c:\qt\5.12.3\msvc2017_64\include\qtcore\qmetatype.h
; Line 1545
	xor	al, al
; Line 1546
	ret	0
?registerConverter@?$SequentialContainerConverterHelper@PEAVwsimulation@@$0A@@QtPrivate@@SA_NH@Z ENDP ; QtPrivate::SequentialContainerConverterHelper<wsimulation *,0>::registerConverter
_TEXT	ENDS
; Function compile flags: /Ogtpy
;	COMDAT ?value@?$MetaObjectForType@PEAVwsimulation@@X@QtPrivate@@SAPEBUQMetaObject@@XZ
_TEXT	SEGMENT
?value@?$MetaObjectForType@PEAVwsimulation@@X@QtPrivate@@SAPEBUQMetaObject@@XZ PROC ; QtPrivate::MetaObjectForType<wsimulation *,void>::value, COMDAT
; File c:\qt\5.12.3\msvc2017_64\include\qtcore\qmetatype.h
; Line 1476
	lea	rax, OFFSET FLAT:?staticMetaObject@wsimulation@@2UQMetaObject@@B ; wsimulation::staticMetaObject
	ret	0
?value@?$MetaObjectForType@PEAVwsimulation@@X@QtPrivate@@SAPEBUQMetaObject@@XZ ENDP ; QtPrivate::MetaObjectForType<wsimulation *,void>::value
_TEXT	ENDS
; Function compile flags: /Ogtpy
;	COMDAT ?Construct@?$QMetaTypeFunctionHelper@PEAVwsimulation@@$00@QtMetaTypePrivate@@SAPEAXPEAXPEBX@Z
_TEXT	SEGMENT
where$ = 8
t$ = 16
?Construct@?$QMetaTypeFunctionHelper@PEAVwsimulation@@$00@QtMetaTypePrivate@@SAPEAXPEAXPEBX@Z PROC ; QtMetaTypePrivate::QMetaTypeFunctionHelper<wsimulation *,1>::Construct, COMDAT
; File c:\qt\5.12.3\msvc2017_64\include\qtcore\qmetatype.h
; Line 803
	test	rdx, rdx
	je	SHORT $LN2@Construct
; Line 804
	mov	rax, QWORD PTR [rdx]
	mov	QWORD PTR [rcx], rax
$LN2@Construct:
; Line 806
	mov	rax, rcx
	ret	0
?Construct@?$QMetaTypeFunctionHelper@PEAVwsimulation@@$00@QtMetaTypePrivate@@SAPEAXPEAXPEBX@Z ENDP ; QtMetaTypePrivate::QMetaTypeFunctionHelper<wsimulation *,1>::Construct
_TEXT	ENDS
; Function compile flags: /Ogtpy
;	COMDAT ?Destruct@?$QMetaTypeFunctionHelper@PEAVwsimulation@@$00@QtMetaTypePrivate@@SAXPEAX@Z
_TEXT	SEGMENT
t$ = 8
?Destruct@?$QMetaTypeFunctionHelper@PEAVwsimulation@@$00@QtMetaTypePrivate@@SAXPEAX@Z PROC ; QtMetaTypePrivate::QMetaTypeFunctionHelper<wsimulation *,1>::Destruct, COMDAT
; File c:\qt\5.12.3\msvc2017_64\include\qtcore\qmetatype.h
; Line 799
	ret	0
?Destruct@?$QMetaTypeFunctionHelper@PEAVwsimulation@@$00@QtMetaTypePrivate@@SAXPEAX@Z ENDP ; QtMetaTypePrivate::QMetaTypeFunctionHelper<wsimulation *,1>::Destruct
_TEXT	ENDS
; Function compile flags: /Ogtpy
;	COMDAT ?qt_metatype_id@?$QMetaTypeIdHelper@PEAVwsimulation@@$00@QtPrivate@@SAHXZ
_TEXT	SEGMENT
?qt_metatype_id@?$QMetaTypeIdHelper@PEAVwsimulation@@$00@QtPrivate@@SAHXZ PROC ; QtPrivate::QMetaTypeIdHelper<wsimulation *,1>::qt_metatype_id, COMDAT
; File c:\qt\5.12.3\msvc2017_64\include\qtcore\qmetatype.h
; Line 1662
	jmp	?qt_metatype_id@?$QMetaTypeIdQObject@PEAVwsimulation@@$07@@SAHXZ ; QMetaTypeIdQObject<wsimulation *,8>::qt_metatype_id
?qt_metatype_id@?$QMetaTypeIdHelper@PEAVwsimulation@@$00@QtPrivate@@SAHXZ ENDP ; QtPrivate::QMetaTypeIdHelper<wsimulation *,1>::qt_metatype_id
_TEXT	ENDS
; Function compile flags: /Ogtpy
;	COMDAT ?registerConverter@?$MetaTypeSmartPointerHelper@PEAVwpointmass@@X@QtPrivate@@SA_NH@Z
_TEXT	SEGMENT
__formal$ = 8
?registerConverter@?$MetaTypeSmartPointerHelper@PEAVwpointmass@@X@QtPrivate@@SA_NH@Z PROC ; QtPrivate::MetaTypeSmartPointerHelper<wpointmass *,void>::registerConverter, COMDAT
; File c:\qt\5.12.3\msvc2017_64\include\qtcore\qmetatype.h
; Line 1635
	xor	al, al
	ret	0
?registerConverter@?$MetaTypeSmartPointerHelper@PEAVwpointmass@@X@QtPrivate@@SA_NH@Z ENDP ; QtPrivate::MetaTypeSmartPointerHelper<wpointmass *,void>::registerConverter
_TEXT	ENDS
; Function compile flags: /Ogtpy
;	COMDAT ?registerConverter@?$IsPair@PEAVwpointmass@@@QtPrivate@@SA_NH@Z
_TEXT	SEGMENT
__formal$ = 8
?registerConverter@?$IsPair@PEAVwpointmass@@@QtPrivate@@SA_NH@Z PROC ; QtPrivate::IsPair<wpointmass *>::registerConverter, COMDAT
; File c:\qt\5.12.3\msvc2017_64\include\qtcore\qmetatype.h
; Line 1621
	xor	al, al
; Line 1622
	ret	0
?registerConverter@?$IsPair@PEAVwpointmass@@@QtPrivate@@SA_NH@Z ENDP ; QtPrivate::IsPair<wpointmass *>::registerConverter
_TEXT	ENDS
; Function compile flags: /Ogtpy
;	COMDAT ?registerConverter@?$AssociativeContainerConverterHelper@PEAVwpointmass@@$0A@@QtPrivate@@SA_NH@Z
_TEXT	SEGMENT
__formal$ = 8
?registerConverter@?$AssociativeContainerConverterHelper@PEAVwpointmass@@$0A@@QtPrivate@@SA_NH@Z PROC ; QtPrivate::AssociativeContainerConverterHelper<wpointmass *,0>::registerConverter, COMDAT
; File c:\qt\5.12.3\msvc2017_64\include\qtcore\qmetatype.h
; Line 1568
	xor	al, al
; Line 1569
	ret	0
?registerConverter@?$AssociativeContainerConverterHelper@PEAVwpointmass@@$0A@@QtPrivate@@SA_NH@Z ENDP ; QtPrivate::AssociativeContainerConverterHelper<wpointmass *,0>::registerConverter
_TEXT	ENDS
; Function compile flags: /Ogtpy
;	COMDAT ?registerConverter@?$SequentialContainerConverterHelper@PEAVwpointmass@@$0A@@QtPrivate@@SA_NH@Z
_TEXT	SEGMENT
__formal$ = 8
?registerConverter@?$SequentialContainerConverterHelper@PEAVwpointmass@@$0A@@QtPrivate@@SA_NH@Z PROC ; QtPrivate::SequentialContainerConverterHelper<wpointmass *,0>::registerConverter, COMDAT
; File c:\qt\5.12.3\msvc2017_64\include\qtcore\qmetatype.h
; Line 1545
	xor	al, al
; Line 1546
	ret	0
?registerConverter@?$SequentialContainerConverterHelper@PEAVwpointmass@@$0A@@QtPrivate@@SA_NH@Z ENDP ; QtPrivate::SequentialContainerConverterHelper<wpointmass *,0>::registerConverter
_TEXT	ENDS
; Function compile flags: /Ogtpy
;	COMDAT ?value@?$MetaObjectForType@PEAVwpointmass@@X@QtPrivate@@SAPEBUQMetaObject@@XZ
_TEXT	SEGMENT
?value@?$MetaObjectForType@PEAVwpointmass@@X@QtPrivate@@SAPEBUQMetaObject@@XZ PROC ; QtPrivate::MetaObjectForType<wpointmass *,void>::value, COMDAT
; File c:\qt\5.12.3\msvc2017_64\include\qtcore\qmetatype.h
; Line 1476
	lea	rax, OFFSET FLAT:?staticMetaObject@wpointmass@@2UQMetaObject@@B ; wpointmass::staticMetaObject
	ret	0
?value@?$MetaObjectForType@PEAVwpointmass@@X@QtPrivate@@SAPEBUQMetaObject@@XZ ENDP ; QtPrivate::MetaObjectForType<wpointmass *,void>::value
_TEXT	ENDS
; Function compile flags: /Ogtpy
;	COMDAT ?Construct@?$QMetaTypeFunctionHelper@PEAVwpointmass@@$00@QtMetaTypePrivate@@SAPEAXPEAXPEBX@Z
_TEXT	SEGMENT
where$ = 8
t$ = 16
?Construct@?$QMetaTypeFunctionHelper@PEAVwpointmass@@$00@QtMetaTypePrivate@@SAPEAXPEAXPEBX@Z PROC ; QtMetaTypePrivate::QMetaTypeFunctionHelper<wpointmass *,1>::Construct, COMDAT
; File c:\qt\5.12.3\msvc2017_64\include\qtcore\qmetatype.h
; Line 803
	test	rdx, rdx
	je	SHORT $LN2@Construct
; Line 804
	mov	rax, QWORD PTR [rdx]
	mov	QWORD PTR [rcx], rax
$LN2@Construct:
; Line 806
	mov	rax, rcx
	ret	0
?Construct@?$QMetaTypeFunctionHelper@PEAVwpointmass@@$00@QtMetaTypePrivate@@SAPEAXPEAXPEBX@Z ENDP ; QtMetaTypePrivate::QMetaTypeFunctionHelper<wpointmass *,1>::Construct
_TEXT	ENDS
; Function compile flags: /Ogtpy
;	COMDAT ?Destruct@?$QMetaTypeFunctionHelper@PEAVwpointmass@@$00@QtMetaTypePrivate@@SAXPEAX@Z
_TEXT	SEGMENT
t$ = 8
?Destruct@?$QMetaTypeFunctionHelper@PEAVwpointmass@@$00@QtMetaTypePrivate@@SAXPEAX@Z PROC ; QtMetaTypePrivate::QMetaTypeFunctionHelper<wpointmass *,1>::Destruct, COMDAT
; File c:\qt\5.12.3\msvc2017_64\include\qtcore\qmetatype.h
; Line 799
	ret	0
?Destruct@?$QMetaTypeFunctionHelper@PEAVwpointmass@@$00@QtMetaTypePrivate@@SAXPEAX@Z ENDP ; QtMetaTypePrivate::QMetaTypeFunctionHelper<wpointmass *,1>::Destruct
_TEXT	ENDS
; Function compile flags: /Ogtpy
;	COMDAT ?qt_metatype_id@?$QMetaTypeIdHelper@PEAVwpointmass@@$00@QtPrivate@@SAHXZ
_TEXT	SEGMENT
?qt_metatype_id@?$QMetaTypeIdHelper@PEAVwpointmass@@$00@QtPrivate@@SAHXZ PROC ; QtPrivate::QMetaTypeIdHelper<wpointmass *,1>::qt_metatype_id, COMDAT
; File c:\qt\5.12.3\msvc2017_64\include\qtcore\qmetatype.h
; Line 1662
	jmp	?qt_metatype_id@?$QMetaTypeIdQObject@PEAVwpointmass@@$07@@SAHXZ ; QMetaTypeIdQObject<wpointmass *,8>::qt_metatype_id
?qt_metatype_id@?$QMetaTypeIdHelper@PEAVwpointmass@@$00@QtPrivate@@SAHXZ ENDP ; QtPrivate::QMetaTypeIdHelper<wpointmass *,1>::qt_metatype_id
_TEXT	ENDS
; Function compile flags: /Ogtpy
;	COMDAT ?registerConverter@?$MetaTypeSmartPointerHelper@PEAVwresult@@X@QtPrivate@@SA_NH@Z
_TEXT	SEGMENT
__formal$ = 8
?registerConverter@?$MetaTypeSmartPointerHelper@PEAVwresult@@X@QtPrivate@@SA_NH@Z PROC ; QtPrivate::MetaTypeSmartPointerHelper<wresult *,void>::registerConverter, COMDAT
; File c:\qt\5.12.3\msvc2017_64\include\qtcore\qmetatype.h
; Line 1635
	xor	al, al
	ret	0
?registerConverter@?$MetaTypeSmartPointerHelper@PEAVwresult@@X@QtPrivate@@SA_NH@Z ENDP ; QtPrivate::MetaTypeSmartPointerHelper<wresult *,void>::registerConverter
_TEXT	ENDS
; Function compile flags: /Ogtpy
;	COMDAT ?registerConverter@?$IsPair@PEAVwresult@@@QtPrivate@@SA_NH@Z
_TEXT	SEGMENT
__formal$ = 8
?registerConverter@?$IsPair@PEAVwresult@@@QtPrivate@@SA_NH@Z PROC ; QtPrivate::IsPair<wresult *>::registerConverter, COMDAT
; File c:\qt\5.12.3\msvc2017_64\include\qtcore\qmetatype.h
; Line 1621
	xor	al, al
; Line 1622
	ret	0
?registerConverter@?$IsPair@PEAVwresult@@@QtPrivate@@SA_NH@Z ENDP ; QtPrivate::IsPair<wresult *>::registerConverter
_TEXT	ENDS
; Function compile flags: /Ogtpy
;	COMDAT ?registerConverter@?$AssociativeContainerConverterHelper@PEAVwresult@@$0A@@QtPrivate@@SA_NH@Z
_TEXT	SEGMENT
__formal$ = 8
?registerConverter@?$AssociativeContainerConverterHelper@PEAVwresult@@$0A@@QtPrivate@@SA_NH@Z PROC ; QtPrivate::AssociativeContainerConverterHelper<wresult *,0>::registerConverter, COMDAT
; File c:\qt\5.12.3\msvc2017_64\include\qtcore\qmetatype.h
; Line 1568
	xor	al, al
; Line 1569
	ret	0
?registerConverter@?$AssociativeContainerConverterHelper@PEAVwresult@@$0A@@QtPrivate@@SA_NH@Z ENDP ; QtPrivate::AssociativeContainerConverterHelper<wresult *,0>::registerConverter
_TEXT	ENDS
; Function compile flags: /Ogtpy
;	COMDAT ?registerConverter@?$SequentialContainerConverterHelper@PEAVwresult@@$0A@@QtPrivate@@SA_NH@Z
_TEXT	SEGMENT
__formal$ = 8
?registerConverter@?$SequentialContainerConverterHelper@PEAVwresult@@$0A@@QtPrivate@@SA_NH@Z PROC ; QtPrivate::SequentialContainerConverterHelper<wresult *,0>::registerConverter, COMDAT
; File c:\qt\5.12.3\msvc2017_64\include\qtcore\qmetatype.h
; Line 1545
	xor	al, al
; Line 1546
	ret	0
?registerConverter@?$SequentialContainerConverterHelper@PEAVwresult@@$0A@@QtPrivate@@SA_NH@Z ENDP ; QtPrivate::SequentialContainerConverterHelper<wresult *,0>::registerConverter
_TEXT	ENDS
; Function compile flags: /Ogtpy
;	COMDAT ?value@?$MetaObjectForType@PEAVwresult@@X@QtPrivate@@SAPEBUQMetaObject@@XZ
_TEXT	SEGMENT
?value@?$MetaObjectForType@PEAVwresult@@X@QtPrivate@@SAPEBUQMetaObject@@XZ PROC ; QtPrivate::MetaObjectForType<wresult *,void>::value, COMDAT
; File c:\qt\5.12.3\msvc2017_64\include\qtcore\qmetatype.h
; Line 1476
	lea	rax, OFFSET FLAT:?staticMetaObject@wresult@@2UQMetaObject@@B ; wresult::staticMetaObject
	ret	0
?value@?$MetaObjectForType@PEAVwresult@@X@QtPrivate@@SAPEBUQMetaObject@@XZ ENDP ; QtPrivate::MetaObjectForType<wresult *,void>::value
_TEXT	ENDS
; Function compile flags: /Ogtpy
;	COMDAT ?Construct@?$QMetaTypeFunctionHelper@PEAVwresult@@$00@QtMetaTypePrivate@@SAPEAXPEAXPEBX@Z
_TEXT	SEGMENT
where$ = 8
t$ = 16
?Construct@?$QMetaTypeFunctionHelper@PEAVwresult@@$00@QtMetaTypePrivate@@SAPEAXPEAXPEBX@Z PROC ; QtMetaTypePrivate::QMetaTypeFunctionHelper<wresult *,1>::Construct, COMDAT
; File c:\qt\5.12.3\msvc2017_64\include\qtcore\qmetatype.h
; Line 803
	test	rdx, rdx
	je	SHORT $LN2@Construct
; Line 804
	mov	rax, QWORD PTR [rdx]
	mov	QWORD PTR [rcx], rax
$LN2@Construct:
; Line 806
	mov	rax, rcx
	ret	0
?Construct@?$QMetaTypeFunctionHelper@PEAVwresult@@$00@QtMetaTypePrivate@@SAPEAXPEAXPEBX@Z ENDP ; QtMetaTypePrivate::QMetaTypeFunctionHelper<wresult *,1>::Construct
_TEXT	ENDS
; Function compile flags: /Ogtpy
;	COMDAT ?Destruct@?$QMetaTypeFunctionHelper@PEAVwresult@@$00@QtMetaTypePrivate@@SAXPEAX@Z
_TEXT	SEGMENT
t$ = 8
?Destruct@?$QMetaTypeFunctionHelper@PEAVwresult@@$00@QtMetaTypePrivate@@SAXPEAX@Z PROC ; QtMetaTypePrivate::QMetaTypeFunctionHelper<wresult *,1>::Destruct, COMDAT
; File c:\qt\5.12.3\msvc2017_64\include\qtcore\qmetatype.h
; Line 799
	ret	0
?Destruct@?$QMetaTypeFunctionHelper@PEAVwresult@@$00@QtMetaTypePrivate@@SAXPEAX@Z ENDP ; QtMetaTypePrivate::QMetaTypeFunctionHelper<wresult *,1>::Destruct
_TEXT	ENDS
; Function compile flags: /Ogtpy
;	COMDAT ?qt_metatype_id@?$QMetaTypeIdHelper@PEAVwresult@@$00@QtPrivate@@SAHXZ
_TEXT	SEGMENT
?qt_metatype_id@?$QMetaTypeIdHelper@PEAVwresult@@$00@QtPrivate@@SAHXZ PROC ; QtPrivate::QMetaTypeIdHelper<wresult *,1>::qt_metatype_id, COMDAT
; File c:\qt\5.12.3\msvc2017_64\include\qtcore\qmetatype.h
; Line 1662
	jmp	?qt_metatype_id@?$QMetaTypeIdQObject@PEAVwresult@@$07@@SAHXZ ; QMetaTypeIdQObject<wresult *,8>::qt_metatype_id
?qt_metatype_id@?$QMetaTypeIdHelper@PEAVwresult@@$00@QtPrivate@@SAHXZ ENDP ; QtPrivate::QMetaTypeIdHelper<wresult *,1>::qt_metatype_id
_TEXT	ENDS
; Function compile flags: /Ogtpy
;	COMDAT ??$qRegisterNormalizedMetaType@PEAVwsimulation@@@@YAHAEBVQByteArray@@PEAPEAVwsimulation@@W4DefinedType@?$MetaTypeDefinedHelper@PEAVwsimulation@@$00@QtPrivate@@@Z
_TEXT	SEGMENT
normalizedTypeName$ = 64
dummy$ = 72
defined$ = 80
??$qRegisterNormalizedMetaType@PEAVwsimulation@@@@YAHAEBVQByteArray@@PEAPEAVwsimulation@@W4DefinedType@?$MetaTypeDefinedHelper@PEAVwsimulation@@$00@QtPrivate@@@Z PROC ; qRegisterNormalizedMetaType<wsimulation *>, COMDAT
; File c:\qt\5.12.3\msvc2017_64\include\qtcore\qmetatype.h
; Line 1734
$LN32:
	mov	QWORD PTR [rsp+8], rbx
	push	rdi
	sub	rsp, 48					; 00000030H
	mov	edi, r8d
	mov	rbx, rcx
; Line 1738
	test	rdx, rdx
	jne	SHORT $LN2@qRegisterN
; Line 1662
	call	?qt_metatype_id@?$QMetaTypeIdQObject@PEAVwsimulation@@$07@@SAHXZ ; QMetaTypeIdQObject<wsimulation *,8>::qt_metatype_id
; Line 1739
	cmp	eax, -1
	je	SHORT $LN2@qRegisterN
; Line 1740
	mov	edx, eax
	mov	rcx, rbx
; Line 1762
	mov	rbx, QWORD PTR [rsp+64]
	add	rsp, 48					; 00000030H
	pop	rdi
; Line 1740
	rex_jmp	QWORD PTR __imp_?registerNormalizedTypedef@QMetaType@@SAHAEBVQByteArray@@H@Z
$LN2@qRegisterN:
; Line 1744
	test	edi, edi
; Line 1747
	lea	r8, OFFSET FLAT:?Construct@?$QMetaTypeFunctionHelper@PEAVwsimulation@@$00@QtMetaTypePrivate@@SAPEAXPEAXPEBX@Z ; QtMetaTypePrivate::QMetaTypeFunctionHelper<wsimulation *,1>::Construct
; File c:\qt\5.12.3\msvc2017_64\include\qtcore\qflags.h
; Line 122
	mov	eax, 12
; File c:\qt\5.12.3\msvc2017_64\include\qtcore\qmetatype.h
; Line 1747
	lea	rdx, OFFSET FLAT:?Destruct@?$QMetaTypeFunctionHelper@PEAVwsimulation@@$00@QtMetaTypePrivate@@SAXPEAX@Z ; QtMetaTypePrivate::QMetaTypeFunctionHelper<wsimulation *,1>::Destruct
	mov	ecx, 268				; 0000010cH
	mov	r9d, 8
	cmovne	eax, ecx
	lea	rcx, OFFSET FLAT:?staticMetaObject@wsimulation@@2UQMetaObject@@B ; wsimulation::staticMetaObject
	mov	QWORD PTR [rsp+40], rcx
	mov	rcx, rbx
	mov	DWORD PTR [rsp+32], eax
	call	QWORD PTR __imp_?registerNormalizedType@QMetaType@@SAHAEBVQByteArray@@P6AXPEAX@ZP6APEAX1PEBX@ZHV?$QFlags@W4TypeFlag@QMetaType@@@@PEBUQMetaObject@@@Z
; Line 1762
	mov	rbx, QWORD PTR [rsp+64]
	add	rsp, 48					; 00000030H
	pop	rdi
	ret	0
??$qRegisterNormalizedMetaType@PEAVwsimulation@@@@YAHAEBVQByteArray@@PEAPEAVwsimulation@@W4DefinedType@?$MetaTypeDefinedHelper@PEAVwsimulation@@$00@QtPrivate@@@Z ENDP ; qRegisterNormalizedMetaType<wsimulation *>
_TEXT	ENDS
; Function compile flags: /Ogtpy
;	COMDAT ??$qRegisterNormalizedMetaType@PEAVwpointmass@@@@YAHAEBVQByteArray@@PEAPEAVwpointmass@@W4DefinedType@?$MetaTypeDefinedHelper@PEAVwpointmass@@$00@QtPrivate@@@Z
_TEXT	SEGMENT
normalizedTypeName$ = 64
dummy$ = 72
defined$ = 80
??$qRegisterNormalizedMetaType@PEAVwpointmass@@@@YAHAEBVQByteArray@@PEAPEAVwpointmass@@W4DefinedType@?$MetaTypeDefinedHelper@PEAVwpointmass@@$00@QtPrivate@@@Z PROC ; qRegisterNormalizedMetaType<wpointmass *>, COMDAT
; File c:\qt\5.12.3\msvc2017_64\include\qtcore\qmetatype.h
; Line 1734
$LN32:
	mov	QWORD PTR [rsp+8], rbx
	push	rdi
	sub	rsp, 48					; 00000030H
	mov	edi, r8d
	mov	rbx, rcx
; Line 1738
	test	rdx, rdx
	jne	SHORT $LN2@qRegisterN
; Line 1662
	call	?qt_metatype_id@?$QMetaTypeIdQObject@PEAVwpointmass@@$07@@SAHXZ ; QMetaTypeIdQObject<wpointmass *,8>::qt_metatype_id
; Line 1739
	cmp	eax, -1
	je	SHORT $LN2@qRegisterN
; Line 1740
	mov	edx, eax
	mov	rcx, rbx
; Line 1762
	mov	rbx, QWORD PTR [rsp+64]
	add	rsp, 48					; 00000030H
	pop	rdi
; Line 1740
	rex_jmp	QWORD PTR __imp_?registerNormalizedTypedef@QMetaType@@SAHAEBVQByteArray@@H@Z
$LN2@qRegisterN:
; Line 1744
	test	edi, edi
; Line 1747
	lea	r8, OFFSET FLAT:?Construct@?$QMetaTypeFunctionHelper@PEAVwpointmass@@$00@QtMetaTypePrivate@@SAPEAXPEAXPEBX@Z ; QtMetaTypePrivate::QMetaTypeFunctionHelper<wpointmass *,1>::Construct
; File c:\qt\5.12.3\msvc2017_64\include\qtcore\qflags.h
; Line 122
	mov	eax, 12
; File c:\qt\5.12.3\msvc2017_64\include\qtcore\qmetatype.h
; Line 1747
	lea	rdx, OFFSET FLAT:?Destruct@?$QMetaTypeFunctionHelper@PEAVwpointmass@@$00@QtMetaTypePrivate@@SAXPEAX@Z ; QtMetaTypePrivate::QMetaTypeFunctionHelper<wpointmass *,1>::Destruct
	mov	ecx, 268				; 0000010cH
	mov	r9d, 8
	cmovne	eax, ecx
	lea	rcx, OFFSET FLAT:?staticMetaObject@wpointmass@@2UQMetaObject@@B ; wpointmass::staticMetaObject
	mov	QWORD PTR [rsp+40], rcx
	mov	rcx, rbx
	mov	DWORD PTR [rsp+32], eax
	call	QWORD PTR __imp_?registerNormalizedType@QMetaType@@SAHAEBVQByteArray@@P6AXPEAX@ZP6APEAX1PEBX@ZHV?$QFlags@W4TypeFlag@QMetaType@@@@PEBUQMetaObject@@@Z
; Line 1762
	mov	rbx, QWORD PTR [rsp+64]
	add	rsp, 48					; 00000030H
	pop	rdi
	ret	0
??$qRegisterNormalizedMetaType@PEAVwpointmass@@@@YAHAEBVQByteArray@@PEAPEAVwpointmass@@W4DefinedType@?$MetaTypeDefinedHelper@PEAVwpointmass@@$00@QtPrivate@@@Z ENDP ; qRegisterNormalizedMetaType<wpointmass *>
_TEXT	ENDS
; Function compile flags: /Ogtpy
;	COMDAT ??$qRegisterNormalizedMetaType@PEAVwresult@@@@YAHAEBVQByteArray@@PEAPEAVwresult@@W4DefinedType@?$MetaTypeDefinedHelper@PEAVwresult@@$00@QtPrivate@@@Z
_TEXT	SEGMENT
normalizedTypeName$ = 64
dummy$ = 72
defined$ = 80
??$qRegisterNormalizedMetaType@PEAVwresult@@@@YAHAEBVQByteArray@@PEAPEAVwresult@@W4DefinedType@?$MetaTypeDefinedHelper@PEAVwresult@@$00@QtPrivate@@@Z PROC ; qRegisterNormalizedMetaType<wresult *>, COMDAT
; File c:\qt\5.12.3\msvc2017_64\include\qtcore\qmetatype.h
; Line 1734
$LN32:
	mov	QWORD PTR [rsp+8], rbx
	push	rdi
	sub	rsp, 48					; 00000030H
	mov	edi, r8d
	mov	rbx, rcx
; Line 1738
	test	rdx, rdx
	jne	SHORT $LN2@qRegisterN
; Line 1662
	call	?qt_metatype_id@?$QMetaTypeIdQObject@PEAVwresult@@$07@@SAHXZ ; QMetaTypeIdQObject<wresult *,8>::qt_metatype_id
; Line 1739
	cmp	eax, -1
	je	SHORT $LN2@qRegisterN
; Line 1740
	mov	edx, eax
	mov	rcx, rbx
; Line 1762
	mov	rbx, QWORD PTR [rsp+64]
	add	rsp, 48					; 00000030H
	pop	rdi
; Line 1740
	rex_jmp	QWORD PTR __imp_?registerNormalizedTypedef@QMetaType@@SAHAEBVQByteArray@@H@Z
$LN2@qRegisterN:
; Line 1744
	test	edi, edi
; Line 1747
	lea	r8, OFFSET FLAT:?Construct@?$QMetaTypeFunctionHelper@PEAVwresult@@$00@QtMetaTypePrivate@@SAPEAXPEAXPEBX@Z ; QtMetaTypePrivate::QMetaTypeFunctionHelper<wresult *,1>::Construct
; File c:\qt\5.12.3\msvc2017_64\include\qtcore\qflags.h
; Line 122
	mov	eax, 12
; File c:\qt\5.12.3\msvc2017_64\include\qtcore\qmetatype.h
; Line 1747
	lea	rdx, OFFSET FLAT:?Destruct@?$QMetaTypeFunctionHelper@PEAVwresult@@$00@QtMetaTypePrivate@@SAXPEAX@Z ; QtMetaTypePrivate::QMetaTypeFunctionHelper<wresult *,1>::Destruct
	mov	ecx, 268				; 0000010cH
	mov	r9d, 8
	cmovne	eax, ecx
	lea	rcx, OFFSET FLAT:?staticMetaObject@wresult@@2UQMetaObject@@B ; wresult::staticMetaObject
	mov	QWORD PTR [rsp+40], rcx
	mov	rcx, rbx
	mov	DWORD PTR [rsp+32], eax
	call	QWORD PTR __imp_?registerNormalizedType@QMetaType@@SAHAEBVQByteArray@@P6AXPEAX@ZP6APEAX1PEBX@ZHV?$QFlags@W4TypeFlag@QMetaType@@@@PEBUQMetaObject@@@Z
; Line 1762
	mov	rbx, QWORD PTR [rsp+64]
	add	rsp, 48					; 00000030H
	pop	rdi
	ret	0
??$qRegisterNormalizedMetaType@PEAVwresult@@@@YAHAEBVQByteArray@@PEAPEAVwresult@@W4DefinedType@?$MetaTypeDefinedHelper@PEAVwresult@@$00@QtPrivate@@@Z ENDP ; qRegisterNormalizedMetaType<wresult *>
_TEXT	ENDS
; Function compile flags: /Ogtpy
;	COMDAT ?qt_metatype_id@?$QMetaTypeId2@PEAVwresult@@@@SAHXZ
_TEXT	SEGMENT
$T1 = 48
$T2 = 80
typeName$3 = 88
?qt_metatype_id@?$QMetaTypeId2@PEAVwresult@@@@SAHXZ PROC ; QMetaTypeId2<wresult *>::qt_metatype_id, COMDAT
; File c:\qt\5.12.3\msvc2017_64\include\qtcore\qmetatype.h
; Line 1662
$LN89:
	push	rdi
	sub	rsp, 64					; 00000040H
	mov	QWORD PTR $T1[rsp], -2
	mov	QWORD PTR [rsp+96], rbx
; Line 1829
	mov	ecx, DWORD PTR _tls_index
	mov	rax, QWORD PTR gs:88
	mov	edx, OFFSET FLAT:_Init_thread_epoch
	mov	rcx, QWORD PTR [rax+rcx*8]
	mov	eax, DWORD PTR [rdx+rcx]
	cmp	DWORD PTR ?$TSS0@?1??qt_metatype_id@?$QMetaTypeIdQObject@PEAVwresult@@$07@@SAHXZ@4HA, eax ; TSS0<`template-parameter-2',QMetaTypeIdQObject<wresult *,8>::t_metatype_id,int * const volatile,void,int, ?? &>
	jg	$LN87@qt_metatyp
$LN4@qt_metatyp:
; File c:\program files (x86)\microsoft visual studio\2017\community\vc\tools\msvc\14.16.27023\include\xatomic.h
; Line 1325
	mov	eax, DWORD PTR ?metatype_id@?1??qt_metatype_id@?$QMetaTypeIdQObject@PEAVwresult@@$07@@SAHXZ@4V?$QBasicAtomicInteger@H@@A ; `QMetaTypeIdQObject<wresult *,8>::qt_metatype_id'::`2'::metatype_id
; File c:\qt\5.12.3\msvc2017_64\include\qtcore\qmetatype.h
; Line 1830
	test	eax, eax
	jne	$LN3@qt_metatyp
; Line 1832
	lea	rdi, OFFSET FLAT:?staticMetaObject@wresult@@2UQMetaObject@@B ; wresult::staticMetaObject
	mov	rcx, rdi
	call	QWORD PTR __imp_?className@QMetaObject@@QEBAPEBDXZ
	mov	rbx, rax
; Line 1833
	lea	rcx, QWORD PTR typeName$3[rsp]
	call	QWORD PTR __imp_??0QByteArray@@QEAA@XZ
	npad	1
; Line 1834
	mov	rcx, -1
	npad	1
$LL85@qt_metatyp:
	lea	rcx, QWORD PTR [rcx+1]
	cmp	BYTE PTR [rbx+rcx], 0
	jne	SHORT $LL85@qt_metatyp
	lea	edx, DWORD PTR [rcx+1]
	lea	rcx, QWORD PTR typeName$3[rsp]
	call	QWORD PTR __imp_?reserve@QByteArray@@QEAAXH@Z
; Line 1835
	mov	rdx, rbx
	lea	rcx, QWORD PTR typeName$3[rsp]
	call	QWORD PTR __imp_?append@QByteArray@@QEAAAEAV1@PEBD@Z
	mov	rcx, rax
	mov	dl, 42					; 0000002aH
	call	QWORD PTR __imp_?append@QByteArray@@QEAAAEAV1@D@Z
; File c:\qt\5.12.3\msvc2017_64\include\qtcore\qflags.h
; Line 57
	mov	DWORD PTR $T2[rsp], 12
; File c:\qt\5.12.3\msvc2017_64\include\qtcore\qmetatype.h
; Line 1747
	mov	QWORD PTR [rsp+40], rdi
	mov	DWORD PTR [rsp+32], 268			; 0000010cH
	mov	r9d, 8
	lea	r8, OFFSET FLAT:?Construct@?$QMetaTypeFunctionHelper@PEAVwresult@@$00@QtMetaTypePrivate@@SAPEAXPEAXPEBX@Z ; QtMetaTypePrivate::QMetaTypeFunctionHelper<wresult *,1>::Construct
	lea	rdx, OFFSET FLAT:?Destruct@?$QMetaTypeFunctionHelper@PEAVwresult@@$00@QtMetaTypePrivate@@SAXPEAX@Z ; QtMetaTypePrivate::QMetaTypeFunctionHelper<wresult *,1>::Destruct
	lea	rcx, QWORD PTR typeName$3[rsp]
	call	QWORD PTR __imp_?registerNormalizedType@QMetaType@@SAHAEBVQByteArray@@P6AXPEAX@ZP6APEAX1PEBX@ZHV?$QFlags@W4TypeFlag@QMetaType@@@@PEBUQMetaObject@@@Z
	mov	ebx, eax
; File c:\program files (x86)\microsoft visual studio\2017\community\vc\tools\msvc\14.16.27023\include\xatomic.h
; Line 1270
	mov	DWORD PTR ?metatype_id@?1??qt_metatype_id@?$QMetaTypeIdQObject@PEAVwresult@@$07@@SAHXZ@4V?$QBasicAtomicInteger@H@@A, eax ; `QMetaTypeIdQObject<wresult *,8>::qt_metatype_id'::`2'::metatype_id
; File c:\qt\5.12.3\msvc2017_64\include\qtcore\qmetatype.h
; Line 1840
	lea	rcx, QWORD PTR typeName$3[rsp]
	call	QWORD PTR __imp_??1QByteArray@@QEAA@XZ
; Line 1662
	mov	eax, ebx
$LN3@qt_metatyp:
	mov	rbx, QWORD PTR [rsp+96]
	add	rsp, 64					; 00000040H
	pop	rdi
	ret	0
$LN87@qt_metatyp:
; Line 1829
	lea	rcx, OFFSET FLAT:?$TSS0@?1??qt_metatype_id@?$QMetaTypeIdQObject@PEAVwresult@@$07@@SAHXZ@4HA ; TSS0<`template-parameter-2',QMetaTypeIdQObject<wresult *,8>::t_metatype_id,int * const volatile,void,int, ?? &>
	call	_Init_thread_header
	cmp	DWORD PTR ?$TSS0@?1??qt_metatype_id@?$QMetaTypeIdQObject@PEAVwresult@@$07@@SAHXZ@4HA, -1 ; TSS0<`template-parameter-2',QMetaTypeIdQObject<wresult *,8>::t_metatype_id,int * const volatile,void,int, ?? &>
	jne	$LN4@qt_metatyp
; File c:\program files (x86)\microsoft visual studio\2017\community\vc\tools\msvc\14.16.27023\include\xxatomic
; Line 172
	mov	DWORD PTR ?metatype_id@?1??qt_metatype_id@?$QMetaTypeIdQObject@PEAVwresult@@$07@@SAHXZ@4V?$QBasicAtomicInteger@H@@A, 0 ; `QMetaTypeIdQObject<wresult *,8>::qt_metatype_id'::`2'::metatype_id
; File c:\qt\5.12.3\msvc2017_64\include\qtcore\qmetatype.h
; Line 1829
	lea	rcx, OFFSET FLAT:?$TSS0@?1??qt_metatype_id@?$QMetaTypeIdQObject@PEAVwresult@@$07@@SAHXZ@4HA ; TSS0<`template-parameter-2',QMetaTypeIdQObject<wresult *,8>::t_metatype_id,int * const volatile,void,int, ?? &>
	call	_Init_thread_footer
	jmp	$LN4@qt_metatyp
?qt_metatype_id@?$QMetaTypeId2@PEAVwresult@@@@SAHXZ ENDP ; QMetaTypeId2<wresult *>::qt_metatype_id
_TEXT	ENDS
;	COMDAT text$x
text$x	SEGMENT
$T1 = 48
$T2 = 80
typeName$3 = 88
?dtor$0@?0??qt_metatype_id@?$QMetaTypeId2@PEAVwresult@@@@SAHXZ@4HA PROC ; `QMetaTypeId2<wresult *>::qt_metatype_id'::`1'::dtor$0
	lea	rcx, QWORD PTR typeName$3[rdx]
	rex_jmp	QWORD PTR __imp_??1QByteArray@@QEAA@XZ
?dtor$0@?0??qt_metatype_id@?$QMetaTypeId2@PEAVwresult@@@@SAHXZ@4HA ENDP ; `QMetaTypeId2<wresult *>::qt_metatype_id'::`1'::dtor$0
text$x	ENDS
; Function compile flags: /Ogtpy
;	COMDAT text$x
text$x	SEGMENT
$T1 = 48
$T2 = 80
typeName$3 = 88
?dtor$0@?0??qt_metatype_id@?$QMetaTypeId2@PEAVwresult@@@@SAHXZ@4HA PROC ; `QMetaTypeId2<wresult *>::qt_metatype_id'::`1'::dtor$0
	lea	rcx, QWORD PTR typeName$3[rdx]
	rex_jmp	QWORD PTR __imp_??1QByteArray@@QEAA@XZ
?dtor$0@?0??qt_metatype_id@?$QMetaTypeId2@PEAVwresult@@@@SAHXZ@4HA ENDP ; `QMetaTypeId2<wresult *>::qt_metatype_id'::`1'::dtor$0
text$x	ENDS
; Function compile flags: /Ogtpy
;	COMDAT ?qt_metatype_id@?$QMetaTypeIdQObject@PEAVwresult@@$07@@SAHXZ
_TEXT	SEGMENT
$T1 = 48
$T2 = 80
typeName$ = 88
?qt_metatype_id@?$QMetaTypeIdQObject@PEAVwresult@@$07@@SAHXZ PROC ; QMetaTypeIdQObject<wresult *,8>::qt_metatype_id, COMDAT
; File c:\qt\5.12.3\msvc2017_64\include\qtcore\qmetatype.h
; Line 1828
$LN89:
	push	rdi
	sub	rsp, 64					; 00000040H
	mov	QWORD PTR $T1[rsp], -2
	mov	QWORD PTR [rsp+96], rbx
; Line 1829
	mov	ecx, DWORD PTR _tls_index
	mov	rax, QWORD PTR gs:88
	mov	edx, OFFSET FLAT:_Init_thread_epoch
	mov	rcx, QWORD PTR [rax+rcx*8]
	mov	eax, DWORD PTR [rdx+rcx]
	cmp	DWORD PTR ?$TSS0@?1??qt_metatype_id@?$QMetaTypeIdQObject@PEAVwresult@@$07@@SAHXZ@4HA, eax ; TSS0<`template-parameter-2',QMetaTypeIdQObject<wresult *,8>::t_metatype_id,int * const volatile,void,int, ?? &>
	jg	$LN87@qt_metatyp
$LN2@qt_metatyp:
; File c:\program files (x86)\microsoft visual studio\2017\community\vc\tools\msvc\14.16.27023\include\xatomic.h
; Line 1325
	mov	eax, DWORD PTR ?metatype_id@?1??qt_metatype_id@?$QMetaTypeIdQObject@PEAVwresult@@$07@@SAHXZ@4V?$QBasicAtomicInteger@H@@A ; `QMetaTypeIdQObject<wresult *,8>::qt_metatype_id'::`2'::metatype_id
; File c:\qt\5.12.3\msvc2017_64\include\qtcore\qmetatype.h
; Line 1830
	test	eax, eax
	jne	$LN1@qt_metatyp
; Line 1832
	lea	rdi, OFFSET FLAT:?staticMetaObject@wresult@@2UQMetaObject@@B ; wresult::staticMetaObject
	mov	rcx, rdi
	call	QWORD PTR __imp_?className@QMetaObject@@QEBAPEBDXZ
	mov	rbx, rax
; Line 1833
	lea	rcx, QWORD PTR typeName$[rsp]
	call	QWORD PTR __imp_??0QByteArray@@QEAA@XZ
	npad	1
; Line 1834
	mov	rcx, -1
	npad	1
$LL85@qt_metatyp:
	lea	rcx, QWORD PTR [rcx+1]
	cmp	BYTE PTR [rbx+rcx], 0
	jne	SHORT $LL85@qt_metatyp
	lea	edx, DWORD PTR [rcx+1]
	lea	rcx, QWORD PTR typeName$[rsp]
	call	QWORD PTR __imp_?reserve@QByteArray@@QEAAXH@Z
; Line 1835
	mov	rdx, rbx
	lea	rcx, QWORD PTR typeName$[rsp]
	call	QWORD PTR __imp_?append@QByteArray@@QEAAAEAV1@PEBD@Z
	mov	rcx, rax
	mov	dl, 42					; 0000002aH
	call	QWORD PTR __imp_?append@QByteArray@@QEAAAEAV1@D@Z
; File c:\qt\5.12.3\msvc2017_64\include\qtcore\qflags.h
; Line 57
	mov	DWORD PTR $T2[rsp], 12
; File c:\qt\5.12.3\msvc2017_64\include\qtcore\qmetatype.h
; Line 1747
	mov	QWORD PTR [rsp+40], rdi
	mov	DWORD PTR [rsp+32], 268			; 0000010cH
	mov	r9d, 8
	lea	r8, OFFSET FLAT:?Construct@?$QMetaTypeFunctionHelper@PEAVwresult@@$00@QtMetaTypePrivate@@SAPEAXPEAXPEBX@Z ; QtMetaTypePrivate::QMetaTypeFunctionHelper<wresult *,1>::Construct
	lea	rdx, OFFSET FLAT:?Destruct@?$QMetaTypeFunctionHelper@PEAVwresult@@$00@QtMetaTypePrivate@@SAXPEAX@Z ; QtMetaTypePrivate::QMetaTypeFunctionHelper<wresult *,1>::Destruct
	lea	rcx, QWORD PTR typeName$[rsp]
	call	QWORD PTR __imp_?registerNormalizedType@QMetaType@@SAHAEBVQByteArray@@P6AXPEAX@ZP6APEAX1PEBX@ZHV?$QFlags@W4TypeFlag@QMetaType@@@@PEBUQMetaObject@@@Z
	mov	ebx, eax
; File c:\program files (x86)\microsoft visual studio\2017\community\vc\tools\msvc\14.16.27023\include\xatomic.h
; Line 1270
	mov	DWORD PTR ?metatype_id@?1??qt_metatype_id@?$QMetaTypeIdQObject@PEAVwresult@@$07@@SAHXZ@4V?$QBasicAtomicInteger@H@@A, eax ; `QMetaTypeIdQObject<wresult *,8>::qt_metatype_id'::`2'::metatype_id
; File c:\qt\5.12.3\msvc2017_64\include\qtcore\qmetatype.h
; Line 1840
	lea	rcx, QWORD PTR typeName$[rsp]
	call	QWORD PTR __imp_??1QByteArray@@QEAA@XZ
	mov	eax, ebx
$LN1@qt_metatyp:
; Line 1841
	mov	rbx, QWORD PTR [rsp+96]
	add	rsp, 64					; 00000040H
	pop	rdi
	ret	0
$LN87@qt_metatyp:
; Line 1829
	lea	rcx, OFFSET FLAT:?$TSS0@?1??qt_metatype_id@?$QMetaTypeIdQObject@PEAVwresult@@$07@@SAHXZ@4HA ; TSS0<`template-parameter-2',QMetaTypeIdQObject<wresult *,8>::t_metatype_id,int * const volatile,void,int, ?? &>
	call	_Init_thread_header
	cmp	DWORD PTR ?$TSS0@?1??qt_metatype_id@?$QMetaTypeIdQObject@PEAVwresult@@$07@@SAHXZ@4HA, -1 ; TSS0<`template-parameter-2',QMetaTypeIdQObject<wresult *,8>::t_metatype_id,int * const volatile,void,int, ?? &>
	jne	$LN2@qt_metatyp
; File c:\program files (x86)\microsoft visual studio\2017\community\vc\tools\msvc\14.16.27023\include\xxatomic
; Line 172
	mov	DWORD PTR ?metatype_id@?1??qt_metatype_id@?$QMetaTypeIdQObject@PEAVwresult@@$07@@SAHXZ@4V?$QBasicAtomicInteger@H@@A, 0 ; `QMetaTypeIdQObject<wresult *,8>::qt_metatype_id'::`2'::metatype_id
; File c:\qt\5.12.3\msvc2017_64\include\qtcore\qmetatype.h
; Line 1829
	lea	rcx, OFFSET FLAT:?$TSS0@?1??qt_metatype_id@?$QMetaTypeIdQObject@PEAVwresult@@$07@@SAHXZ@4HA ; TSS0<`template-parameter-2',QMetaTypeIdQObject<wresult *,8>::t_metatype_id,int * const volatile,void,int, ?? &>
	call	_Init_thread_footer
	jmp	$LN2@qt_metatyp
?qt_metatype_id@?$QMetaTypeIdQObject@PEAVwresult@@$07@@SAHXZ ENDP ; QMetaTypeIdQObject<wresult *,8>::qt_metatype_id
_TEXT	ENDS
;	COMDAT text$x
text$x	SEGMENT
$T1 = 48
$T2 = 80
typeName$ = 88
?dtor$0@?0??qt_metatype_id@?$QMetaTypeIdQObject@PEAVwresult@@$07@@SAHXZ@4HA PROC ; `QMetaTypeIdQObject<wresult *,8>::qt_metatype_id'::`1'::dtor$0
	lea	rcx, QWORD PTR typeName$[rdx]
	rex_jmp	QWORD PTR __imp_??1QByteArray@@QEAA@XZ
?dtor$0@?0??qt_metatype_id@?$QMetaTypeIdQObject@PEAVwresult@@$07@@SAHXZ@4HA ENDP ; `QMetaTypeIdQObject<wresult *,8>::qt_metatype_id'::`1'::dtor$0
text$x	ENDS
; Function compile flags: /Ogtpy
;	COMDAT text$x
text$x	SEGMENT
$T1 = 48
$T2 = 80
typeName$ = 88
?dtor$0@?0??qt_metatype_id@?$QMetaTypeIdQObject@PEAVwresult@@$07@@SAHXZ@4HA PROC ; `QMetaTypeIdQObject<wresult *,8>::qt_metatype_id'::`1'::dtor$0
	lea	rcx, QWORD PTR typeName$[rdx]
	rex_jmp	QWORD PTR __imp_??1QByteArray@@QEAA@XZ
?dtor$0@?0??qt_metatype_id@?$QMetaTypeIdQObject@PEAVwresult@@$07@@SAHXZ@4HA ENDP ; `QMetaTypeIdQObject<wresult *,8>::qt_metatype_id'::`1'::dtor$0
text$x	ENDS
; Function compile flags: /Ogtpy
;	COMDAT ?qt_metatype_id@?$QMetaTypeId2@PEAVwpointmass@@@@SAHXZ
_TEXT	SEGMENT
$T1 = 48
$T2 = 80
typeName$3 = 88
?qt_metatype_id@?$QMetaTypeId2@PEAVwpointmass@@@@SAHXZ PROC ; QMetaTypeId2<wpointmass *>::qt_metatype_id, COMDAT
; File c:\qt\5.12.3\msvc2017_64\include\qtcore\qmetatype.h
; Line 1662
$LN89:
	push	rdi
	sub	rsp, 64					; 00000040H
	mov	QWORD PTR $T1[rsp], -2
	mov	QWORD PTR [rsp+96], rbx
; Line 1829
	mov	ecx, DWORD PTR _tls_index
	mov	rax, QWORD PTR gs:88
	mov	edx, OFFSET FLAT:_Init_thread_epoch
	mov	rcx, QWORD PTR [rax+rcx*8]
	mov	eax, DWORD PTR [rdx+rcx]
	cmp	DWORD PTR ?$TSS0@?1??qt_metatype_id@?$QMetaTypeIdQObject@PEAVwpointmass@@$07@@SAHXZ@4HA, eax ; TSS0<`template-parameter-2',QMetaTypeIdQObject<wpointmass *,8>::t_metatype_id,int * const volatile,void,int, ?? &>
	jg	$LN87@qt_metatyp
$LN4@qt_metatyp:
; File c:\program files (x86)\microsoft visual studio\2017\community\vc\tools\msvc\14.16.27023\include\xatomic.h
; Line 1325
	mov	eax, DWORD PTR ?metatype_id@?1??qt_metatype_id@?$QMetaTypeIdQObject@PEAVwpointmass@@$07@@SAHXZ@4V?$QBasicAtomicInteger@H@@A ; `QMetaTypeIdQObject<wpointmass *,8>::qt_metatype_id'::`2'::metatype_id
; File c:\qt\5.12.3\msvc2017_64\include\qtcore\qmetatype.h
; Line 1830
	test	eax, eax
	jne	$LN3@qt_metatyp
; Line 1832
	lea	rdi, OFFSET FLAT:?staticMetaObject@wpointmass@@2UQMetaObject@@B ; wpointmass::staticMetaObject
	mov	rcx, rdi
	call	QWORD PTR __imp_?className@QMetaObject@@QEBAPEBDXZ
	mov	rbx, rax
; Line 1833
	lea	rcx, QWORD PTR typeName$3[rsp]
	call	QWORD PTR __imp_??0QByteArray@@QEAA@XZ
	npad	1
; Line 1834
	mov	rcx, -1
	npad	1
$LL85@qt_metatyp:
	lea	rcx, QWORD PTR [rcx+1]
	cmp	BYTE PTR [rbx+rcx], 0
	jne	SHORT $LL85@qt_metatyp
	lea	edx, DWORD PTR [rcx+1]
	lea	rcx, QWORD PTR typeName$3[rsp]
	call	QWORD PTR __imp_?reserve@QByteArray@@QEAAXH@Z
; Line 1835
	mov	rdx, rbx
	lea	rcx, QWORD PTR typeName$3[rsp]
	call	QWORD PTR __imp_?append@QByteArray@@QEAAAEAV1@PEBD@Z
	mov	rcx, rax
	mov	dl, 42					; 0000002aH
	call	QWORD PTR __imp_?append@QByteArray@@QEAAAEAV1@D@Z
; File c:\qt\5.12.3\msvc2017_64\include\qtcore\qflags.h
; Line 57
	mov	DWORD PTR $T2[rsp], 12
; File c:\qt\5.12.3\msvc2017_64\include\qtcore\qmetatype.h
; Line 1747
	mov	QWORD PTR [rsp+40], rdi
	mov	DWORD PTR [rsp+32], 268			; 0000010cH
	mov	r9d, 8
	lea	r8, OFFSET FLAT:?Construct@?$QMetaTypeFunctionHelper@PEAVwpointmass@@$00@QtMetaTypePrivate@@SAPEAXPEAXPEBX@Z ; QtMetaTypePrivate::QMetaTypeFunctionHelper<wpointmass *,1>::Construct
	lea	rdx, OFFSET FLAT:?Destruct@?$QMetaTypeFunctionHelper@PEAVwpointmass@@$00@QtMetaTypePrivate@@SAXPEAX@Z ; QtMetaTypePrivate::QMetaTypeFunctionHelper<wpointmass *,1>::Destruct
	lea	rcx, QWORD PTR typeName$3[rsp]
	call	QWORD PTR __imp_?registerNormalizedType@QMetaType@@SAHAEBVQByteArray@@P6AXPEAX@ZP6APEAX1PEBX@ZHV?$QFlags@W4TypeFlag@QMetaType@@@@PEBUQMetaObject@@@Z
	mov	ebx, eax
; File c:\program files (x86)\microsoft visual studio\2017\community\vc\tools\msvc\14.16.27023\include\xatomic.h
; Line 1270
	mov	DWORD PTR ?metatype_id@?1??qt_metatype_id@?$QMetaTypeIdQObject@PEAVwpointmass@@$07@@SAHXZ@4V?$QBasicAtomicInteger@H@@A, eax ; `QMetaTypeIdQObject<wpointmass *,8>::qt_metatype_id'::`2'::metatype_id
; File c:\qt\5.12.3\msvc2017_64\include\qtcore\qmetatype.h
; Line 1840
	lea	rcx, QWORD PTR typeName$3[rsp]
	call	QWORD PTR __imp_??1QByteArray@@QEAA@XZ
; Line 1662
	mov	eax, ebx
$LN3@qt_metatyp:
	mov	rbx, QWORD PTR [rsp+96]
	add	rsp, 64					; 00000040H
	pop	rdi
	ret	0
$LN87@qt_metatyp:
; Line 1829
	lea	rcx, OFFSET FLAT:?$TSS0@?1??qt_metatype_id@?$QMetaTypeIdQObject@PEAVwpointmass@@$07@@SAHXZ@4HA ; TSS0<`template-parameter-2',QMetaTypeIdQObject<wpointmass *,8>::t_metatype_id,int * const volatile,void,int, ?? &>
	call	_Init_thread_header
	cmp	DWORD PTR ?$TSS0@?1??qt_metatype_id@?$QMetaTypeIdQObject@PEAVwpointmass@@$07@@SAHXZ@4HA, -1 ; TSS0<`template-parameter-2',QMetaTypeIdQObject<wpointmass *,8>::t_metatype_id,int * const volatile,void,int, ?? &>
	jne	$LN4@qt_metatyp
; File c:\program files (x86)\microsoft visual studio\2017\community\vc\tools\msvc\14.16.27023\include\xxatomic
; Line 172
	mov	DWORD PTR ?metatype_id@?1??qt_metatype_id@?$QMetaTypeIdQObject@PEAVwpointmass@@$07@@SAHXZ@4V?$QBasicAtomicInteger@H@@A, 0 ; `QMetaTypeIdQObject<wpointmass *,8>::qt_metatype_id'::`2'::metatype_id
; File c:\qt\5.12.3\msvc2017_64\include\qtcore\qmetatype.h
; Line 1829
	lea	rcx, OFFSET FLAT:?$TSS0@?1??qt_metatype_id@?$QMetaTypeIdQObject@PEAVwpointmass@@$07@@SAHXZ@4HA ; TSS0<`template-parameter-2',QMetaTypeIdQObject<wpointmass *,8>::t_metatype_id,int * const volatile,void,int, ?? &>
	call	_Init_thread_footer
	jmp	$LN4@qt_metatyp
?qt_metatype_id@?$QMetaTypeId2@PEAVwpointmass@@@@SAHXZ ENDP ; QMetaTypeId2<wpointmass *>::qt_metatype_id
_TEXT	ENDS
;	COMDAT text$x
text$x	SEGMENT
$T1 = 48
$T2 = 80
typeName$3 = 88
?dtor$0@?0??qt_metatype_id@?$QMetaTypeId2@PEAVwpointmass@@@@SAHXZ@4HA PROC ; `QMetaTypeId2<wpointmass *>::qt_metatype_id'::`1'::dtor$0
	lea	rcx, QWORD PTR typeName$3[rdx]
	rex_jmp	QWORD PTR __imp_??1QByteArray@@QEAA@XZ
?dtor$0@?0??qt_metatype_id@?$QMetaTypeId2@PEAVwpointmass@@@@SAHXZ@4HA ENDP ; `QMetaTypeId2<wpointmass *>::qt_metatype_id'::`1'::dtor$0
text$x	ENDS
; Function compile flags: /Ogtpy
;	COMDAT text$x
text$x	SEGMENT
$T1 = 48
$T2 = 80
typeName$3 = 88
?dtor$0@?0??qt_metatype_id@?$QMetaTypeId2@PEAVwpointmass@@@@SAHXZ@4HA PROC ; `QMetaTypeId2<wpointmass *>::qt_metatype_id'::`1'::dtor$0
	lea	rcx, QWORD PTR typeName$3[rdx]
	rex_jmp	QWORD PTR __imp_??1QByteArray@@QEAA@XZ
?dtor$0@?0??qt_metatype_id@?$QMetaTypeId2@PEAVwpointmass@@@@SAHXZ@4HA ENDP ; `QMetaTypeId2<wpointmass *>::qt_metatype_id'::`1'::dtor$0
text$x	ENDS
; Function compile flags: /Ogtpy
;	COMDAT ?qt_metatype_id@?$QMetaTypeIdQObject@PEAVwpointmass@@$07@@SAHXZ
_TEXT	SEGMENT
$T1 = 48
$T2 = 80
typeName$ = 88
?qt_metatype_id@?$QMetaTypeIdQObject@PEAVwpointmass@@$07@@SAHXZ PROC ; QMetaTypeIdQObject<wpointmass *,8>::qt_metatype_id, COMDAT
; File c:\qt\5.12.3\msvc2017_64\include\qtcore\qmetatype.h
; Line 1828
$LN89:
	push	rdi
	sub	rsp, 64					; 00000040H
	mov	QWORD PTR $T1[rsp], -2
	mov	QWORD PTR [rsp+96], rbx
; Line 1829
	mov	ecx, DWORD PTR _tls_index
	mov	rax, QWORD PTR gs:88
	mov	edx, OFFSET FLAT:_Init_thread_epoch
	mov	rcx, QWORD PTR [rax+rcx*8]
	mov	eax, DWORD PTR [rdx+rcx]
	cmp	DWORD PTR ?$TSS0@?1??qt_metatype_id@?$QMetaTypeIdQObject@PEAVwpointmass@@$07@@SAHXZ@4HA, eax ; TSS0<`template-parameter-2',QMetaTypeIdQObject<wpointmass *,8>::t_metatype_id,int * const volatile,void,int, ?? &>
	jg	$LN87@qt_metatyp
$LN2@qt_metatyp:
; File c:\program files (x86)\microsoft visual studio\2017\community\vc\tools\msvc\14.16.27023\include\xatomic.h
; Line 1325
	mov	eax, DWORD PTR ?metatype_id@?1??qt_metatype_id@?$QMetaTypeIdQObject@PEAVwpointmass@@$07@@SAHXZ@4V?$QBasicAtomicInteger@H@@A ; `QMetaTypeIdQObject<wpointmass *,8>::qt_metatype_id'::`2'::metatype_id
; File c:\qt\5.12.3\msvc2017_64\include\qtcore\qmetatype.h
; Line 1830
	test	eax, eax
	jne	$LN1@qt_metatyp
; Line 1832
	lea	rdi, OFFSET FLAT:?staticMetaObject@wpointmass@@2UQMetaObject@@B ; wpointmass::staticMetaObject
	mov	rcx, rdi
	call	QWORD PTR __imp_?className@QMetaObject@@QEBAPEBDXZ
	mov	rbx, rax
; Line 1833
	lea	rcx, QWORD PTR typeName$[rsp]
	call	QWORD PTR __imp_??0QByteArray@@QEAA@XZ
	npad	1
; Line 1834
	mov	rcx, -1
	npad	1
$LL85@qt_metatyp:
	lea	rcx, QWORD PTR [rcx+1]
	cmp	BYTE PTR [rbx+rcx], 0
	jne	SHORT $LL85@qt_metatyp
	lea	edx, DWORD PTR [rcx+1]
	lea	rcx, QWORD PTR typeName$[rsp]
	call	QWORD PTR __imp_?reserve@QByteArray@@QEAAXH@Z
; Line 1835
	mov	rdx, rbx
	lea	rcx, QWORD PTR typeName$[rsp]
	call	QWORD PTR __imp_?append@QByteArray@@QEAAAEAV1@PEBD@Z
	mov	rcx, rax
	mov	dl, 42					; 0000002aH
	call	QWORD PTR __imp_?append@QByteArray@@QEAAAEAV1@D@Z
; File c:\qt\5.12.3\msvc2017_64\include\qtcore\qflags.h
; Line 57
	mov	DWORD PTR $T2[rsp], 12
; File c:\qt\5.12.3\msvc2017_64\include\qtcore\qmetatype.h
; Line 1747
	mov	QWORD PTR [rsp+40], rdi
	mov	DWORD PTR [rsp+32], 268			; 0000010cH
	mov	r9d, 8
	lea	r8, OFFSET FLAT:?Construct@?$QMetaTypeFunctionHelper@PEAVwpointmass@@$00@QtMetaTypePrivate@@SAPEAXPEAXPEBX@Z ; QtMetaTypePrivate::QMetaTypeFunctionHelper<wpointmass *,1>::Construct
	lea	rdx, OFFSET FLAT:?Destruct@?$QMetaTypeFunctionHelper@PEAVwpointmass@@$00@QtMetaTypePrivate@@SAXPEAX@Z ; QtMetaTypePrivate::QMetaTypeFunctionHelper<wpointmass *,1>::Destruct
	lea	rcx, QWORD PTR typeName$[rsp]
	call	QWORD PTR __imp_?registerNormalizedType@QMetaType@@SAHAEBVQByteArray@@P6AXPEAX@ZP6APEAX1PEBX@ZHV?$QFlags@W4TypeFlag@QMetaType@@@@PEBUQMetaObject@@@Z
	mov	ebx, eax
; File c:\program files (x86)\microsoft visual studio\2017\community\vc\tools\msvc\14.16.27023\include\xatomic.h
; Line 1270
	mov	DWORD PTR ?metatype_id@?1??qt_metatype_id@?$QMetaTypeIdQObject@PEAVwpointmass@@$07@@SAHXZ@4V?$QBasicAtomicInteger@H@@A, eax ; `QMetaTypeIdQObject<wpointmass *,8>::qt_metatype_id'::`2'::metatype_id
; File c:\qt\5.12.3\msvc2017_64\include\qtcore\qmetatype.h
; Line 1840
	lea	rcx, QWORD PTR typeName$[rsp]
	call	QWORD PTR __imp_??1QByteArray@@QEAA@XZ
	mov	eax, ebx
$LN1@qt_metatyp:
; Line 1841
	mov	rbx, QWORD PTR [rsp+96]
	add	rsp, 64					; 00000040H
	pop	rdi
	ret	0
$LN87@qt_metatyp:
; Line 1829
	lea	rcx, OFFSET FLAT:?$TSS0@?1??qt_metatype_id@?$QMetaTypeIdQObject@PEAVwpointmass@@$07@@SAHXZ@4HA ; TSS0<`template-parameter-2',QMetaTypeIdQObject<wpointmass *,8>::t_metatype_id,int * const volatile,void,int, ?? &>
	call	_Init_thread_header
	cmp	DWORD PTR ?$TSS0@?1??qt_metatype_id@?$QMetaTypeIdQObject@PEAVwpointmass@@$07@@SAHXZ@4HA, -1 ; TSS0<`template-parameter-2',QMetaTypeIdQObject<wpointmass *,8>::t_metatype_id,int * const volatile,void,int, ?? &>
	jne	$LN2@qt_metatyp
; File c:\program files (x86)\microsoft visual studio\2017\community\vc\tools\msvc\14.16.27023\include\xxatomic
; Line 172
	mov	DWORD PTR ?metatype_id@?1??qt_metatype_id@?$QMetaTypeIdQObject@PEAVwpointmass@@$07@@SAHXZ@4V?$QBasicAtomicInteger@H@@A, 0 ; `QMetaTypeIdQObject<wpointmass *,8>::qt_metatype_id'::`2'::metatype_id
; File c:\qt\5.12.3\msvc2017_64\include\qtcore\qmetatype.h
; Line 1829
	lea	rcx, OFFSET FLAT:?$TSS0@?1??qt_metatype_id@?$QMetaTypeIdQObject@PEAVwpointmass@@$07@@SAHXZ@4HA ; TSS0<`template-parameter-2',QMetaTypeIdQObject<wpointmass *,8>::t_metatype_id,int * const volatile,void,int, ?? &>
	call	_Init_thread_footer
	jmp	$LN2@qt_metatyp
?qt_metatype_id@?$QMetaTypeIdQObject@PEAVwpointmass@@$07@@SAHXZ ENDP ; QMetaTypeIdQObject<wpointmass *,8>::qt_metatype_id
_TEXT	ENDS
;	COMDAT text$x
text$x	SEGMENT
$T1 = 48
$T2 = 80
typeName$ = 88
?dtor$0@?0??qt_metatype_id@?$QMetaTypeIdQObject@PEAVwpointmass@@$07@@SAHXZ@4HA PROC ; `QMetaTypeIdQObject<wpointmass *,8>::qt_metatype_id'::`1'::dtor$0
	lea	rcx, QWORD PTR typeName$[rdx]
	rex_jmp	QWORD PTR __imp_??1QByteArray@@QEAA@XZ
?dtor$0@?0??qt_metatype_id@?$QMetaTypeIdQObject@PEAVwpointmass@@$07@@SAHXZ@4HA ENDP ; `QMetaTypeIdQObject<wpointmass *,8>::qt_metatype_id'::`1'::dtor$0
text$x	ENDS
; Function compile flags: /Ogtpy
;	COMDAT text$x
text$x	SEGMENT
$T1 = 48
$T2 = 80
typeName$ = 88
?dtor$0@?0??qt_metatype_id@?$QMetaTypeIdQObject@PEAVwpointmass@@$07@@SAHXZ@4HA PROC ; `QMetaTypeIdQObject<wpointmass *,8>::qt_metatype_id'::`1'::dtor$0
	lea	rcx, QWORD PTR typeName$[rdx]
	rex_jmp	QWORD PTR __imp_??1QByteArray@@QEAA@XZ
?dtor$0@?0??qt_metatype_id@?$QMetaTypeIdQObject@PEAVwpointmass@@$07@@SAHXZ@4HA ENDP ; `QMetaTypeIdQObject<wpointmass *,8>::qt_metatype_id'::`1'::dtor$0
text$x	ENDS
; Function compile flags: /Ogtpy
;	COMDAT ?qt_metatype_id@?$QMetaTypeId2@PEAVwsimulation@@@@SAHXZ
_TEXT	SEGMENT
$T1 = 48
$T2 = 80
typeName$3 = 88
?qt_metatype_id@?$QMetaTypeId2@PEAVwsimulation@@@@SAHXZ PROC ; QMetaTypeId2<wsimulation *>::qt_metatype_id, COMDAT
; File c:\qt\5.12.3\msvc2017_64\include\qtcore\qmetatype.h
; Line 1662
$LN89:
	push	rdi
	sub	rsp, 64					; 00000040H
	mov	QWORD PTR $T1[rsp], -2
	mov	QWORD PTR [rsp+96], rbx
; Line 1829
	mov	ecx, DWORD PTR _tls_index
	mov	rax, QWORD PTR gs:88
	mov	edx, OFFSET FLAT:_Init_thread_epoch
	mov	rcx, QWORD PTR [rax+rcx*8]
	mov	eax, DWORD PTR [rdx+rcx]
	cmp	DWORD PTR ?$TSS0@?1??qt_metatype_id@?$QMetaTypeIdQObject@PEAVwsimulation@@$07@@SAHXZ@4HA, eax ; TSS0<`template-parameter-2',QMetaTypeIdQObject<wsimulation *,8>::t_metatype_id,int * const volatile,void,int, ?? &>
	jg	$LN87@qt_metatyp
$LN4@qt_metatyp:
; File c:\program files (x86)\microsoft visual studio\2017\community\vc\tools\msvc\14.16.27023\include\xatomic.h
; Line 1325
	mov	eax, DWORD PTR ?metatype_id@?1??qt_metatype_id@?$QMetaTypeIdQObject@PEAVwsimulation@@$07@@SAHXZ@4V?$QBasicAtomicInteger@H@@A ; `QMetaTypeIdQObject<wsimulation *,8>::qt_metatype_id'::`2'::metatype_id
; File c:\qt\5.12.3\msvc2017_64\include\qtcore\qmetatype.h
; Line 1830
	test	eax, eax
	jne	$LN3@qt_metatyp
; Line 1832
	lea	rdi, OFFSET FLAT:?staticMetaObject@wsimulation@@2UQMetaObject@@B ; wsimulation::staticMetaObject
	mov	rcx, rdi
	call	QWORD PTR __imp_?className@QMetaObject@@QEBAPEBDXZ
	mov	rbx, rax
; Line 1833
	lea	rcx, QWORD PTR typeName$3[rsp]
	call	QWORD PTR __imp_??0QByteArray@@QEAA@XZ
	npad	1
; Line 1834
	mov	rcx, -1
	npad	1
$LL85@qt_metatyp:
	lea	rcx, QWORD PTR [rcx+1]
	cmp	BYTE PTR [rbx+rcx], 0
	jne	SHORT $LL85@qt_metatyp
	lea	edx, DWORD PTR [rcx+1]
	lea	rcx, QWORD PTR typeName$3[rsp]
	call	QWORD PTR __imp_?reserve@QByteArray@@QEAAXH@Z
; Line 1835
	mov	rdx, rbx
	lea	rcx, QWORD PTR typeName$3[rsp]
	call	QWORD PTR __imp_?append@QByteArray@@QEAAAEAV1@PEBD@Z
	mov	rcx, rax
	mov	dl, 42					; 0000002aH
	call	QWORD PTR __imp_?append@QByteArray@@QEAAAEAV1@D@Z
; File c:\qt\5.12.3\msvc2017_64\include\qtcore\qflags.h
; Line 57
	mov	DWORD PTR $T2[rsp], 12
; File c:\qt\5.12.3\msvc2017_64\include\qtcore\qmetatype.h
; Line 1747
	mov	QWORD PTR [rsp+40], rdi
	mov	DWORD PTR [rsp+32], 268			; 0000010cH
	mov	r9d, 8
	lea	r8, OFFSET FLAT:?Construct@?$QMetaTypeFunctionHelper@PEAVwsimulation@@$00@QtMetaTypePrivate@@SAPEAXPEAXPEBX@Z ; QtMetaTypePrivate::QMetaTypeFunctionHelper<wsimulation *,1>::Construct
	lea	rdx, OFFSET FLAT:?Destruct@?$QMetaTypeFunctionHelper@PEAVwsimulation@@$00@QtMetaTypePrivate@@SAXPEAX@Z ; QtMetaTypePrivate::QMetaTypeFunctionHelper<wsimulation *,1>::Destruct
	lea	rcx, QWORD PTR typeName$3[rsp]
	call	QWORD PTR __imp_?registerNormalizedType@QMetaType@@SAHAEBVQByteArray@@P6AXPEAX@ZP6APEAX1PEBX@ZHV?$QFlags@W4TypeFlag@QMetaType@@@@PEBUQMetaObject@@@Z
	mov	ebx, eax
; File c:\program files (x86)\microsoft visual studio\2017\community\vc\tools\msvc\14.16.27023\include\xatomic.h
; Line 1270
	mov	DWORD PTR ?metatype_id@?1??qt_metatype_id@?$QMetaTypeIdQObject@PEAVwsimulation@@$07@@SAHXZ@4V?$QBasicAtomicInteger@H@@A, eax ; `QMetaTypeIdQObject<wsimulation *,8>::qt_metatype_id'::`2'::metatype_id
; File c:\qt\5.12.3\msvc2017_64\include\qtcore\qmetatype.h
; Line 1840
	lea	rcx, QWORD PTR typeName$3[rsp]
	call	QWORD PTR __imp_??1QByteArray@@QEAA@XZ
; Line 1662
	mov	eax, ebx
$LN3@qt_metatyp:
	mov	rbx, QWORD PTR [rsp+96]
	add	rsp, 64					; 00000040H
	pop	rdi
	ret	0
$LN87@qt_metatyp:
; Line 1829
	lea	rcx, OFFSET FLAT:?$TSS0@?1??qt_metatype_id@?$QMetaTypeIdQObject@PEAVwsimulation@@$07@@SAHXZ@4HA ; TSS0<`template-parameter-2',QMetaTypeIdQObject<wsimulation *,8>::t_metatype_id,int * const volatile,void,int, ?? &>
	call	_Init_thread_header
	cmp	DWORD PTR ?$TSS0@?1??qt_metatype_id@?$QMetaTypeIdQObject@PEAVwsimulation@@$07@@SAHXZ@4HA, -1 ; TSS0<`template-parameter-2',QMetaTypeIdQObject<wsimulation *,8>::t_metatype_id,int * const volatile,void,int, ?? &>
	jne	$LN4@qt_metatyp
; File c:\program files (x86)\microsoft visual studio\2017\community\vc\tools\msvc\14.16.27023\include\xxatomic
; Line 172
	mov	DWORD PTR ?metatype_id@?1??qt_metatype_id@?$QMetaTypeIdQObject@PEAVwsimulation@@$07@@SAHXZ@4V?$QBasicAtomicInteger@H@@A, 0 ; `QMetaTypeIdQObject<wsimulation *,8>::qt_metatype_id'::`2'::metatype_id
; File c:\qt\5.12.3\msvc2017_64\include\qtcore\qmetatype.h
; Line 1829
	lea	rcx, OFFSET FLAT:?$TSS0@?1??qt_metatype_id@?$QMetaTypeIdQObject@PEAVwsimulation@@$07@@SAHXZ@4HA ; TSS0<`template-parameter-2',QMetaTypeIdQObject<wsimulation *,8>::t_metatype_id,int * const volatile,void,int, ?? &>
	call	_Init_thread_footer
	jmp	$LN4@qt_metatyp
?qt_metatype_id@?$QMetaTypeId2@PEAVwsimulation@@@@SAHXZ ENDP ; QMetaTypeId2<wsimulation *>::qt_metatype_id
_TEXT	ENDS
;	COMDAT text$x
text$x	SEGMENT
$T1 = 48
$T2 = 80
typeName$3 = 88
?dtor$0@?0??qt_metatype_id@?$QMetaTypeId2@PEAVwsimulation@@@@SAHXZ@4HA PROC ; `QMetaTypeId2<wsimulation *>::qt_metatype_id'::`1'::dtor$0
	lea	rcx, QWORD PTR typeName$3[rdx]
	rex_jmp	QWORD PTR __imp_??1QByteArray@@QEAA@XZ
?dtor$0@?0??qt_metatype_id@?$QMetaTypeId2@PEAVwsimulation@@@@SAHXZ@4HA ENDP ; `QMetaTypeId2<wsimulation *>::qt_metatype_id'::`1'::dtor$0
text$x	ENDS
; Function compile flags: /Ogtpy
;	COMDAT text$x
text$x	SEGMENT
$T1 = 48
$T2 = 80
typeName$3 = 88
?dtor$0@?0??qt_metatype_id@?$QMetaTypeId2@PEAVwsimulation@@@@SAHXZ@4HA PROC ; `QMetaTypeId2<wsimulation *>::qt_metatype_id'::`1'::dtor$0
	lea	rcx, QWORD PTR typeName$3[rdx]
	rex_jmp	QWORD PTR __imp_??1QByteArray@@QEAA@XZ
?dtor$0@?0??qt_metatype_id@?$QMetaTypeId2@PEAVwsimulation@@@@SAHXZ@4HA ENDP ; `QMetaTypeId2<wsimulation *>::qt_metatype_id'::`1'::dtor$0
text$x	ENDS
; Function compile flags: /Ogtpy
;	COMDAT ?qt_metatype_id@?$QMetaTypeIdQObject@PEAVwsimulation@@$07@@SAHXZ
_TEXT	SEGMENT
$T1 = 48
$T2 = 80
typeName$ = 88
?qt_metatype_id@?$QMetaTypeIdQObject@PEAVwsimulation@@$07@@SAHXZ PROC ; QMetaTypeIdQObject<wsimulation *,8>::qt_metatype_id, COMDAT
; File c:\qt\5.12.3\msvc2017_64\include\qtcore\qmetatype.h
; Line 1828
$LN89:
	push	rdi
	sub	rsp, 64					; 00000040H
	mov	QWORD PTR $T1[rsp], -2
	mov	QWORD PTR [rsp+96], rbx
; Line 1829
	mov	ecx, DWORD PTR _tls_index
	mov	rax, QWORD PTR gs:88
	mov	edx, OFFSET FLAT:_Init_thread_epoch
	mov	rcx, QWORD PTR [rax+rcx*8]
	mov	eax, DWORD PTR [rdx+rcx]
	cmp	DWORD PTR ?$TSS0@?1??qt_metatype_id@?$QMetaTypeIdQObject@PEAVwsimulation@@$07@@SAHXZ@4HA, eax ; TSS0<`template-parameter-2',QMetaTypeIdQObject<wsimulation *,8>::t_metatype_id,int * const volatile,void,int, ?? &>
	jg	$LN87@qt_metatyp
$LN2@qt_metatyp:
; File c:\program files (x86)\microsoft visual studio\2017\community\vc\tools\msvc\14.16.27023\include\xatomic.h
; Line 1325
	mov	eax, DWORD PTR ?metatype_id@?1??qt_metatype_id@?$QMetaTypeIdQObject@PEAVwsimulation@@$07@@SAHXZ@4V?$QBasicAtomicInteger@H@@A ; `QMetaTypeIdQObject<wsimulation *,8>::qt_metatype_id'::`2'::metatype_id
; File c:\qt\5.12.3\msvc2017_64\include\qtcore\qmetatype.h
; Line 1830
	test	eax, eax
	jne	$LN1@qt_metatyp
; Line 1832
	lea	rdi, OFFSET FLAT:?staticMetaObject@wsimulation@@2UQMetaObject@@B ; wsimulation::staticMetaObject
	mov	rcx, rdi
	call	QWORD PTR __imp_?className@QMetaObject@@QEBAPEBDXZ
	mov	rbx, rax
; Line 1833
	lea	rcx, QWORD PTR typeName$[rsp]
	call	QWORD PTR __imp_??0QByteArray@@QEAA@XZ
	npad	1
; Line 1834
	mov	rcx, -1
	npad	1
$LL85@qt_metatyp:
	lea	rcx, QWORD PTR [rcx+1]
	cmp	BYTE PTR [rbx+rcx], 0
	jne	SHORT $LL85@qt_metatyp
	lea	edx, DWORD PTR [rcx+1]
	lea	rcx, QWORD PTR typeName$[rsp]
	call	QWORD PTR __imp_?reserve@QByteArray@@QEAAXH@Z
; Line 1835
	mov	rdx, rbx
	lea	rcx, QWORD PTR typeName$[rsp]
	call	QWORD PTR __imp_?append@QByteArray@@QEAAAEAV1@PEBD@Z
	mov	rcx, rax
	mov	dl, 42					; 0000002aH
	call	QWORD PTR __imp_?append@QByteArray@@QEAAAEAV1@D@Z
; File c:\qt\5.12.3\msvc2017_64\include\qtcore\qflags.h
; Line 57
	mov	DWORD PTR $T2[rsp], 12
; File c:\qt\5.12.3\msvc2017_64\include\qtcore\qmetatype.h
; Line 1747
	mov	QWORD PTR [rsp+40], rdi
	mov	DWORD PTR [rsp+32], 268			; 0000010cH
	mov	r9d, 8
	lea	r8, OFFSET FLAT:?Construct@?$QMetaTypeFunctionHelper@PEAVwsimulation@@$00@QtMetaTypePrivate@@SAPEAXPEAXPEBX@Z ; QtMetaTypePrivate::QMetaTypeFunctionHelper<wsimulation *,1>::Construct
	lea	rdx, OFFSET FLAT:?Destruct@?$QMetaTypeFunctionHelper@PEAVwsimulation@@$00@QtMetaTypePrivate@@SAXPEAX@Z ; QtMetaTypePrivate::QMetaTypeFunctionHelper<wsimulation *,1>::Destruct
	lea	rcx, QWORD PTR typeName$[rsp]
	call	QWORD PTR __imp_?registerNormalizedType@QMetaType@@SAHAEBVQByteArray@@P6AXPEAX@ZP6APEAX1PEBX@ZHV?$QFlags@W4TypeFlag@QMetaType@@@@PEBUQMetaObject@@@Z
	mov	ebx, eax
; File c:\program files (x86)\microsoft visual studio\2017\community\vc\tools\msvc\14.16.27023\include\xatomic.h
; Line 1270
	mov	DWORD PTR ?metatype_id@?1??qt_metatype_id@?$QMetaTypeIdQObject@PEAVwsimulation@@$07@@SAHXZ@4V?$QBasicAtomicInteger@H@@A, eax ; `QMetaTypeIdQObject<wsimulation *,8>::qt_metatype_id'::`2'::metatype_id
; File c:\qt\5.12.3\msvc2017_64\include\qtcore\qmetatype.h
; Line 1840
	lea	rcx, QWORD PTR typeName$[rsp]
	call	QWORD PTR __imp_??1QByteArray@@QEAA@XZ
	mov	eax, ebx
$LN1@qt_metatyp:
; Line 1841
	mov	rbx, QWORD PTR [rsp+96]
	add	rsp, 64					; 00000040H
	pop	rdi
	ret	0
$LN87@qt_metatyp:
; Line 1829
	lea	rcx, OFFSET FLAT:?$TSS0@?1??qt_metatype_id@?$QMetaTypeIdQObject@PEAVwsimulation@@$07@@SAHXZ@4HA ; TSS0<`template-parameter-2',QMetaTypeIdQObject<wsimulation *,8>::t_metatype_id,int * const volatile,void,int, ?? &>
	call	_Init_thread_header
	cmp	DWORD PTR ?$TSS0@?1??qt_metatype_id@?$QMetaTypeIdQObject@PEAVwsimulation@@$07@@SAHXZ@4HA, -1 ; TSS0<`template-parameter-2',QMetaTypeIdQObject<wsimulation *,8>::t_metatype_id,int * const volatile,void,int, ?? &>
	jne	$LN2@qt_metatyp
; File c:\program files (x86)\microsoft visual studio\2017\community\vc\tools\msvc\14.16.27023\include\xxatomic
; Line 172
	mov	DWORD PTR ?metatype_id@?1??qt_metatype_id@?$QMetaTypeIdQObject@PEAVwsimulation@@$07@@SAHXZ@4V?$QBasicAtomicInteger@H@@A, 0 ; `QMetaTypeIdQObject<wsimulation *,8>::qt_metatype_id'::`2'::metatype_id
; File c:\qt\5.12.3\msvc2017_64\include\qtcore\qmetatype.h
; Line 1829
	lea	rcx, OFFSET FLAT:?$TSS0@?1??qt_metatype_id@?$QMetaTypeIdQObject@PEAVwsimulation@@$07@@SAHXZ@4HA ; TSS0<`template-parameter-2',QMetaTypeIdQObject<wsimulation *,8>::t_metatype_id,int * const volatile,void,int, ?? &>
	call	_Init_thread_footer
	jmp	$LN2@qt_metatyp
?qt_metatype_id@?$QMetaTypeIdQObject@PEAVwsimulation@@$07@@SAHXZ ENDP ; QMetaTypeIdQObject<wsimulation *,8>::qt_metatype_id
_TEXT	ENDS
;	COMDAT text$x
text$x	SEGMENT
$T1 = 48
$T2 = 80
typeName$ = 88
?dtor$0@?0??qt_metatype_id@?$QMetaTypeIdQObject@PEAVwsimulation@@$07@@SAHXZ@4HA PROC ; `QMetaTypeIdQObject<wsimulation *,8>::qt_metatype_id'::`1'::dtor$0
	lea	rcx, QWORD PTR typeName$[rdx]
	rex_jmp	QWORD PTR __imp_??1QByteArray@@QEAA@XZ
?dtor$0@?0??qt_metatype_id@?$QMetaTypeIdQObject@PEAVwsimulation@@$07@@SAHXZ@4HA ENDP ; `QMetaTypeIdQObject<wsimulation *,8>::qt_metatype_id'::`1'::dtor$0
text$x	ENDS
; Function compile flags: /Ogtpy
;	COMDAT text$x
text$x	SEGMENT
$T1 = 48
$T2 = 80
typeName$ = 88
?dtor$0@?0??qt_metatype_id@?$QMetaTypeIdQObject@PEAVwsimulation@@$07@@SAHXZ@4HA PROC ; `QMetaTypeIdQObject<wsimulation *,8>::qt_metatype_id'::`1'::dtor$0
	lea	rcx, QWORD PTR typeName$[rdx]
	rex_jmp	QWORD PTR __imp_??1QByteArray@@QEAA@XZ
?dtor$0@?0??qt_metatype_id@?$QMetaTypeIdQObject@PEAVwsimulation@@$07@@SAHXZ@4HA ENDP ; `QMetaTypeIdQObject<wsimulation *,8>::qt_metatype_id'::`1'::dtor$0
text$x	ENDS
; Function compile flags: /Ogtpy
;	COMDAT ??$qMetaTypeId@PEAVwresult@@@@YAHXZ
_TEXT	SEGMENT
??$qMetaTypeId@PEAVwresult@@@@YAHXZ PROC		; qMetaTypeId<wresult *>, COMDAT
; File c:\qt\5.12.3\msvc2017_64\include\qtcore\qmetatype.h
; Line 1798
	jmp	?qt_metatype_id@?$QMetaTypeId2@PEAVwresult@@@@SAHXZ ; QMetaTypeId2<wresult *>::qt_metatype_id
??$qMetaTypeId@PEAVwresult@@@@YAHXZ ENDP		; qMetaTypeId<wresult *>
_TEXT	ENDS
; Function compile flags: /Ogtpy
;	COMDAT ??$qMetaTypeId@PEAVwpointmass@@@@YAHXZ
_TEXT	SEGMENT
??$qMetaTypeId@PEAVwpointmass@@@@YAHXZ PROC		; qMetaTypeId<wpointmass *>, COMDAT
; File c:\qt\5.12.3\msvc2017_64\include\qtcore\qmetatype.h
; Line 1798
	jmp	?qt_metatype_id@?$QMetaTypeId2@PEAVwpointmass@@@@SAHXZ ; QMetaTypeId2<wpointmass *>::qt_metatype_id
??$qMetaTypeId@PEAVwpointmass@@@@YAHXZ ENDP		; qMetaTypeId<wpointmass *>
_TEXT	ENDS
; Function compile flags: /Ogtpy
;	COMDAT ??$qMetaTypeId@PEAVwsimulation@@@@YAHXZ
_TEXT	SEGMENT
??$qMetaTypeId@PEAVwsimulation@@@@YAHXZ PROC		; qMetaTypeId<wsimulation *>, COMDAT
; File c:\qt\5.12.3\msvc2017_64\include\qtcore\qmetatype.h
; Line 1798
	jmp	?qt_metatype_id@?$QMetaTypeId2@PEAVwsimulation@@@@SAHXZ ; QMetaTypeId2<wsimulation *>::qt_metatype_id
??$qMetaTypeId@PEAVwsimulation@@@@YAHXZ ENDP		; qMetaTypeId<wsimulation *>
_TEXT	ENDS
; Function compile flags: /Ogtpy
;	COMDAT ??$loadAcquire@H@?$QAtomicOps@H@@SAHAEBU?$atomic@H@std@@@Z
_TEXT	SEGMENT
_q_value$ = 8
??$loadAcquire@H@?$QAtomicOps@H@@SAHAEBU?$atomic@H@std@@@Z PROC ; QAtomicOps<int>::loadAcquire<int>, COMDAT
; File c:\qt\5.12.3\msvc2017_64\include\qtcore\qatomic_cxx11.h
; File c:\program files (x86)\microsoft visual studio\2017\community\vc\tools\msvc\14.16.27023\include\xatomic.h
; Line 1325
	mov	eax, DWORD PTR [rcx]
; File c:\qt\5.12.3\msvc2017_64\include\qtcore\qatomic_cxx11.h
; Line 240
	ret	0
??$loadAcquire@H@?$QAtomicOps@H@@SAHAEBU?$atomic@H@std@@@Z ENDP ; QAtomicOps<int>::loadAcquire<int>
_TEXT	ENDS
; Function compile flags: /Ogtpy
;	COMDAT ??$storeRelease@H@?$QAtomicOps@H@@SAXAEAU?$atomic@H@std@@H@Z
_TEXT	SEGMENT
_q_value$ = 8
newValue$ = 16
??$storeRelease@H@?$QAtomicOps@H@@SAXAEAU?$atomic@H@std@@H@Z PROC ; QAtomicOps<int>::storeRelease<int>, COMDAT
; File c:\qt\5.12.3\msvc2017_64\include\qtcore\qatomic_cxx11.h
; File c:\program files (x86)\microsoft visual studio\2017\community\vc\tools\msvc\14.16.27023\include\xatomic.h
; Line 1270
	mov	DWORD PTR [rcx], edx
; File c:\qt\5.12.3\msvc2017_64\include\qtcore\qatomic_cxx11.h
; Line 258
	ret	0
??$storeRelease@H@?$QAtomicOps@H@@SAXAEAU?$atomic@H@std@@H@Z ENDP ; QAtomicOps<int>::storeRelease<int>
_TEXT	ENDS
; Function compile flags: /Ogtpy
;	COMDAT ??__E?staticMetaObject@xModelNavigator@@2UQMetaObject@@B@@YAXXZ
text$di	SEGMENT
??__E?staticMetaObject@xModelNavigator@@2UQMetaObject@@B@@YAXXZ PROC ; `dynamic initializer for 'xModelNavigator::staticMetaObject'', COMDAT
; File c:\xdynamics\xdynamics_gui\generatedfiles\release\moc_xmodelnavigator.cpp
; Line 274
	mov	rax, QWORD PTR __imp_?staticMetaObject@QDockWidget@@2UQMetaObject@@B
	mov	QWORD PTR ?staticMetaObject@xModelNavigator@@2UQMetaObject@@B, rax
; Line 279
	ret	0
??__E?staticMetaObject@xModelNavigator@@2UQMetaObject@@B@@YAXXZ ENDP ; `dynamic initializer for 'xModelNavigator::staticMetaObject''
text$di	ENDS
; Function compile flags: /Ogtpy
;	COMDAT ??$qRegisterMetaType@PEAVwresult@@@@YAHXZ
_TEXT	SEGMENT
??$qRegisterMetaType@PEAVwresult@@@@YAHXZ PROC		; qRegisterMetaType<wresult *>, COMDAT
; File c:\qt\5.12.3\msvc2017_64\include\qtcore\qmetatype.h
; Line 1798
	jmp	?qt_metatype_id@?$QMetaTypeId2@PEAVwresult@@@@SAHXZ ; QMetaTypeId2<wresult *>::qt_metatype_id
??$qRegisterMetaType@PEAVwresult@@@@YAHXZ ENDP		; qRegisterMetaType<wresult *>
_TEXT	ENDS
; Function compile flags: /Ogtpy
;	COMDAT ??$qRegisterMetaType@PEAVwpointmass@@@@YAHXZ
_TEXT	SEGMENT
??$qRegisterMetaType@PEAVwpointmass@@@@YAHXZ PROC	; qRegisterMetaType<wpointmass *>, COMDAT
; File c:\qt\5.12.3\msvc2017_64\include\qtcore\qmetatype.h
; Line 1798
	jmp	?qt_metatype_id@?$QMetaTypeId2@PEAVwpointmass@@@@SAHXZ ; QMetaTypeId2<wpointmass *>::qt_metatype_id
??$qRegisterMetaType@PEAVwpointmass@@@@YAHXZ ENDP	; qRegisterMetaType<wpointmass *>
_TEXT	ENDS
; Function compile flags: /Ogtpy
;	COMDAT ??$qRegisterMetaType@PEAVwsimulation@@@@YAHXZ
_TEXT	SEGMENT
??$qRegisterMetaType@PEAVwsimulation@@@@YAHXZ PROC	; qRegisterMetaType<wsimulation *>, COMDAT
; File c:\qt\5.12.3\msvc2017_64\include\qtcore\qmetatype.h
; Line 1798
	jmp	?qt_metatype_id@?$QMetaTypeId2@PEAVwsimulation@@@@SAHXZ ; QMetaTypeId2<wsimulation *>::qt_metatype_id
??$qRegisterMetaType@PEAVwsimulation@@@@YAHXZ ENDP	; qRegisterMetaType<wsimulation *>
_TEXT	ENDS
; Function compile flags: /Ogtpy
;	COMDAT ??__E?staticMetaObject@wview@@2UQMetaObject@@B@@YAXXZ
text$di	SEGMENT
??__E?staticMetaObject@wview@@2UQMetaObject@@B@@YAXXZ PROC ; `dynamic initializer for 'wview::staticMetaObject'', COMDAT
; File c:\xdynamics\xdynamics_gui\generatedfiles\release\moc_xmodelnavigator.cpp
; Line 96
	mov	rax, QWORD PTR __imp_?staticMetaObject@QWidget@@2UQMetaObject@@B
	mov	QWORD PTR ?staticMetaObject@wview@@2UQMetaObject@@B, rax
; Line 101
	ret	0
??__E?staticMetaObject@wview@@2UQMetaObject@@B@@YAXXZ ENDP ; `dynamic initializer for 'wview::staticMetaObject''
text$di	ENDS
; Function compile flags: /Ogtpy
;	COMDAT ?InitializeWidgetStatement@xModelNavigator@@QEAAXXZ
_TEXT	SEGMENT
this$ = 8
?InitializeWidgetStatement@xModelNavigator@@QEAAXXZ PROC ; xModelNavigator::InitializeWidgetStatement, COMDAT
; File c:\xdynamics\xdynamics_gui\generatedfiles\release\moc_xmodelnavigator.cpp
; Line 337
	xor	r9d, r9d
	lea	rdx, OFFSET FLAT:?staticMetaObject@xModelNavigator@@2UQMetaObject@@B ; xModelNavigator::staticMetaObject
	lea	r8d, QWORD PTR [r9+3]
	rex_jmp	QWORD PTR __imp_?activate@QMetaObject@@SAXPEAVQObject@@PEBU1@HPEAPEAX@Z
?InitializeWidgetStatement@xModelNavigator@@QEAAXXZ ENDP ; xModelNavigator::InitializeWidgetStatement
_TEXT	ENDS
; Function compile flags: /Ogtpy
;	COMDAT ?definedResultWidget@xModelNavigator@@QEAAXPEAVwresult@@@Z
_TEXT	SEGMENT
_a$ = 32
this$ = 64
_t1$ = 72
?definedResultWidget@xModelNavigator@@QEAAXPEAVwresult@@@Z PROC ; xModelNavigator::definedResultWidget, COMDAT
; File c:\xdynamics\xdynamics_gui\generatedfiles\release\moc_xmodelnavigator.cpp
; Line 329
$LN4:
	mov	QWORD PTR [rsp+16], rdx
	sub	rsp, 56					; 00000038H
; Line 330
	lea	rax, QWORD PTR _t1$[rsp]
	mov	QWORD PTR _a$[rsp], 0
; Line 331
	lea	r9, QWORD PTR _a$[rsp]
	mov	QWORD PTR _a$[rsp+8], rax
	mov	r8d, 2
	lea	rdx, OFFSET FLAT:?staticMetaObject@xModelNavigator@@2UQMetaObject@@B ; xModelNavigator::staticMetaObject
	call	QWORD PTR __imp_?activate@QMetaObject@@SAXPEAVQObject@@PEBU1@HPEAPEAX@Z
; Line 332
	add	rsp, 56					; 00000038H
	ret	0
?definedResultWidget@xModelNavigator@@QEAAXPEAVwresult@@@Z ENDP ; xModelNavigator::definedResultWidget
_TEXT	ENDS
; Function compile flags: /Ogtpy
;	COMDAT ?definedPointMassWidget@xModelNavigator@@QEAAXPEAVwpointmass@@@Z
_TEXT	SEGMENT
_a$ = 32
this$ = 64
_t1$ = 72
?definedPointMassWidget@xModelNavigator@@QEAAXPEAVwpointmass@@@Z PROC ; xModelNavigator::definedPointMassWidget, COMDAT
; File c:\xdynamics\xdynamics_gui\generatedfiles\release\moc_xmodelnavigator.cpp
; Line 322
$LN4:
	mov	QWORD PTR [rsp+16], rdx
	sub	rsp, 56					; 00000038H
; Line 323
	lea	rax, QWORD PTR _t1$[rsp]
	mov	QWORD PTR _a$[rsp], 0
; Line 324
	lea	r9, QWORD PTR _a$[rsp]
	mov	QWORD PTR _a$[rsp+8], rax
	mov	r8d, 1
	lea	rdx, OFFSET FLAT:?staticMetaObject@xModelNavigator@@2UQMetaObject@@B ; xModelNavigator::staticMetaObject
	call	QWORD PTR __imp_?activate@QMetaObject@@SAXPEAVQObject@@PEBU1@HPEAPEAX@Z
; Line 325
	add	rsp, 56					; 00000038H
	ret	0
?definedPointMassWidget@xModelNavigator@@QEAAXPEAVwpointmass@@@Z ENDP ; xModelNavigator::definedPointMassWidget
_TEXT	ENDS
; Function compile flags: /Ogtpy
;	COMDAT ?definedSimulationWidget@xModelNavigator@@QEAAXPEAVwsimulation@@@Z
_TEXT	SEGMENT
_a$ = 32
this$ = 64
_t1$ = 72
?definedSimulationWidget@xModelNavigator@@QEAAXPEAVwsimulation@@@Z PROC ; xModelNavigator::definedSimulationWidget, COMDAT
; File c:\xdynamics\xdynamics_gui\generatedfiles\release\moc_xmodelnavigator.cpp
; Line 315
$LN4:
	mov	QWORD PTR [rsp+16], rdx
	sub	rsp, 56					; 00000038H
; Line 316
	lea	rax, QWORD PTR _t1$[rsp]
	mov	QWORD PTR _a$[rsp], 0
; Line 317
	lea	r9, QWORD PTR _a$[rsp]
	mov	QWORD PTR _a$[rsp+8], rax
	xor	r8d, r8d
	lea	rdx, OFFSET FLAT:?staticMetaObject@xModelNavigator@@2UQMetaObject@@B ; xModelNavigator::staticMetaObject
	call	QWORD PTR __imp_?activate@QMetaObject@@SAXPEAVQObject@@PEBU1@HPEAPEAX@Z
; Line 318
	add	rsp, 56					; 00000038H
	ret	0
?definedSimulationWidget@xModelNavigator@@QEAAXPEAVwsimulation@@@Z ENDP ; xModelNavigator::definedSimulationWidget
_TEXT	ENDS
; Function compile flags: /Ogtpy
;	COMDAT ?qt_static_metacall@xModelNavigator@@CAXPEAVQObject@@W4Call@QMetaObject@@HPEAPEAX@Z
_TEXT	SEGMENT
_t1$ = 32
_a$1 = 40
_o$ = 80
_c$ = 88
_id$ = 96
_a$ = 104
?qt_static_metacall@xModelNavigator@@CAXPEAVQObject@@W4Call@QMetaObject@@HPEAPEAX@Z PROC ; xModelNavigator::qt_static_metacall, COMDAT
; File c:\xdynamics\xdynamics_gui\generatedfiles\release\moc_xmodelnavigator.cpp
; Line 203
$LN81:
	push	rbx
	sub	rsp, 64					; 00000040H
	mov	rbx, r9
	mov	r10, rcx
; Line 204
	test	edx, edx
	jne	$LN12@qt_static_
; Line 207
	test	r8d, r8d
	je	SHORT $LN14@qt_static_
	sub	r8d, 1
	je	SHORT $LN15@qt_static_
	sub	r8d, 1
	je	SHORT $LN16@qt_static_
	sub	r8d, 1
	je	SHORT $LN17@qt_static_
	cmp	r8d, 1
	jne	$LN36@qt_static_
; Line 212
	mov	rax, QWORD PTR [r9+16]
	mov	rdx, QWORD PTR [r9+8]
	mov	r8d, DWORD PTR [rax]
	mov	rdx, QWORD PTR [rdx]
; Line 271
	add	rsp, 64					; 00000040H
	pop	rbx
; Line 212
	jmp	?clickAction@xModelNavigator@@AEAAXPEAVQTreeWidgetItem@@H@Z ; xModelNavigator::clickAction
$LN17@qt_static_:
; Line 337
	xor	r9d, r9d
	lea	rdx, OFFSET FLAT:?staticMetaObject@xModelNavigator@@2UQMetaObject@@B ; xModelNavigator::staticMetaObject
	lea	r8d, QWORD PTR [r9+3]
; Line 271
	add	rsp, 64					; 00000040H
	pop	rbx
; Line 337
	rex_jmp	QWORD PTR __imp_?activate@QMetaObject@@SAXPEAVQObject@@PEBU1@HPEAPEAX@Z
$LN16@qt_static_:
; Line 210
	mov	rdx, QWORD PTR [r9+8]
	mov	rdx, QWORD PTR [rdx]
; Line 271
	add	rsp, 64					; 00000040H
	pop	rbx
; Line 210
	jmp	?definedResultWidget@xModelNavigator@@QEAAXPEAVwresult@@@Z ; xModelNavigator::definedResultWidget
$LN15@qt_static_:
; Line 209
	mov	rdx, QWORD PTR [r9+8]
	mov	rdx, QWORD PTR [rdx]
; Line 271
	add	rsp, 64					; 00000040H
	pop	rbx
; Line 209
	jmp	?definedPointMassWidget@xModelNavigator@@QEAAXPEAVwpointmass@@@Z ; xModelNavigator::definedPointMassWidget
$LN14@qt_static_:
; Line 208
	mov	rax, QWORD PTR [r9+8]
; Line 317
	lea	rdx, OFFSET FLAT:?staticMetaObject@xModelNavigator@@2UQMetaObject@@B ; xModelNavigator::staticMetaObject
	lea	r9, QWORD PTR _a$1[rsp]
	mov	QWORD PTR _a$1[rsp], 0
	xor	r8d, r8d
; Line 208
	mov	rcx, QWORD PTR [rax]
; Line 316
	lea	rax, QWORD PTR _t1$[rsp]
; Line 208
	mov	QWORD PTR _t1$[rsp], rcx
; Line 317
	mov	rcx, r10
	mov	QWORD PTR _a$1[rsp+8], rax
	call	QWORD PTR __imp_?activate@QMetaObject@@SAXPEAVQObject@@PEBU1@HPEAPEAX@Z
; Line 271
	add	rsp, 64					; 00000040H
	pop	rbx
	ret	0
$LN12@qt_static_:
; Line 215
	cmp	edx, 12
	jne	SHORT $LN20@qt_static_
; Line 216
	test	r8d, r8d
	je	SHORT $LN23@qt_static_
	sub	r8d, 1
	je	SHORT $LN26@qt_static_
	cmp	r8d, 1
	jne	SHORT $LN79@qt_static_
; Line 233
	mov	rax, QWORD PTR [r9+8]
	cmp	DWORD PTR [rax], 0
	jne	SHORT $LN79@qt_static_
; File c:\qt\5.12.3\msvc2017_64\include\qtcore\qmetatype.h
; Line 1798
	call	?qt_metatype_id@?$QMetaTypeId2@PEAVwresult@@@@SAHXZ ; QMetaTypeId2<wresult *>::qt_metatype_id
; File c:\xdynamics\xdynamics_gui\generatedfiles\release\moc_xmodelnavigator.cpp
; Line 236
	mov	rcx, QWORD PTR [rbx]
	mov	DWORD PTR [rcx], eax
; Line 271
	add	rsp, 64					; 00000040H
	pop	rbx
	ret	0
$LN26@qt_static_:
; Line 226
	mov	rax, QWORD PTR [r9+8]
	cmp	DWORD PTR [rax], 0
	je	SHORT $LN28@qt_static_
$LN79@qt_static_:
; Line 271
	mov	rax, QWORD PTR [r9]
	mov	DWORD PTR [rax], -1
	add	rsp, 64					; 00000040H
	pop	rbx
	ret	0
$LN28@qt_static_:
; File c:\qt\5.12.3\msvc2017_64\include\qtcore\qmetatype.h
; Line 1798
	call	?qt_metatype_id@?$QMetaTypeId2@PEAVwpointmass@@@@SAHXZ ; QMetaTypeId2<wpointmass *>::qt_metatype_id
; File c:\xdynamics\xdynamics_gui\generatedfiles\release\moc_xmodelnavigator.cpp
; Line 229
	mov	rcx, QWORD PTR [rbx]
	mov	DWORD PTR [rcx], eax
; Line 271
	add	rsp, 64					; 00000040H
	pop	rbx
	ret	0
$LN23@qt_static_:
; Line 219
	mov	rax, QWORD PTR [r9+8]
	cmp	DWORD PTR [rax], 0
	jne	SHORT $LN79@qt_static_
; File c:\qt\5.12.3\msvc2017_64\include\qtcore\qmetatype.h
; Line 1798
	call	?qt_metatype_id@?$QMetaTypeId2@PEAVwsimulation@@@@SAHXZ ; QMetaTypeId2<wsimulation *>::qt_metatype_id
; File c:\xdynamics\xdynamics_gui\generatedfiles\release\moc_xmodelnavigator.cpp
; Line 222
	mov	rcx, QWORD PTR [rbx]
	mov	DWORD PTR [rcx], eax
; Line 271
	add	rsp, 64					; 00000040H
	pop	rbx
	ret	0
$LN20@qt_static_:
; Line 240
	cmp	edx, 10
	jne	$LN36@qt_static_
; Line 244
	mov	rcx, QWORD PTR [r9+8]
	lea	r8, OFFSET FLAT:?definedSimulationWidget@xModelNavigator@@QEAAXPEAVwsimulation@@@Z ; xModelNavigator::definedSimulationWidget
	mov	rdx, QWORD PTR [r9]
	mov	rax, QWORD PTR [rcx]
	cmp	rax, r8
	jne	SHORT $LN33@qt_static_
	test	rax, rax
	je	SHORT $LN72@qt_static_
	cmp	DWORD PTR [rcx+8], 0
	jne	SHORT $LN33@qt_static_
$LN72@qt_static_:
; Line 245
	mov	DWORD PTR [rdx], 0
; Line 271
	add	rsp, 64					; 00000040H
	pop	rbx
	ret	0
$LN33@qt_static_:
; Line 251
	lea	r8, OFFSET FLAT:?definedPointMassWidget@xModelNavigator@@QEAAXPEAVwpointmass@@@Z ; xModelNavigator::definedPointMassWidget
	cmp	rax, r8
	jne	SHORT $LN34@qt_static_
	test	rax, rax
	je	SHORT $LN73@qt_static_
	cmp	DWORD PTR [rcx+8], 0
	jne	SHORT $LN34@qt_static_
$LN73@qt_static_:
; Line 252
	mov	DWORD PTR [rdx], 1
; Line 271
	add	rsp, 64					; 00000040H
	pop	rbx
	ret	0
$LN34@qt_static_:
; Line 258
	lea	r8, OFFSET FLAT:?definedResultWidget@xModelNavigator@@QEAAXPEAVwresult@@@Z ; xModelNavigator::definedResultWidget
	cmp	rax, r8
	jne	SHORT $LN35@qt_static_
	test	rax, rax
	je	SHORT $LN74@qt_static_
	cmp	DWORD PTR [rcx+8], 0
	jne	SHORT $LN35@qt_static_
$LN74@qt_static_:
; Line 259
	mov	DWORD PTR [rdx], 2
; Line 271
	add	rsp, 64					; 00000040H
	pop	rbx
	ret	0
$LN35@qt_static_:
; Line 265
	lea	r8, OFFSET FLAT:?InitializeWidgetStatement@xModelNavigator@@QEAAXXZ ; xModelNavigator::InitializeWidgetStatement
	cmp	rax, r8
	jne	SHORT $LN36@qt_static_
	test	rax, rax
	je	SHORT $LN75@qt_static_
	cmp	DWORD PTR [rcx+8], 0
	jne	SHORT $LN36@qt_static_
$LN75@qt_static_:
; Line 266
	mov	DWORD PTR [rdx], 3
$LN36@qt_static_:
; Line 271
	add	rsp, 64					; 00000040H
	pop	rbx
	ret	0
?qt_static_metacall@xModelNavigator@@CAXPEAVQObject@@W4Call@QMetaObject@@HPEAPEAX@Z ENDP ; xModelNavigator::qt_static_metacall
_TEXT	ENDS
; Function compile flags: /Ogtpy
;	COMDAT ?qt_metacall@xModelNavigator@@UEAAHW4Call@QMetaObject@@HPEAPEAX@Z
_TEXT	SEGMENT
this$ = 48
_c$ = 56
_id$ = 64
_a$ = 72
?qt_metacall@xModelNavigator@@UEAAHW4Call@QMetaObject@@HPEAPEAX@Z PROC ; xModelNavigator::qt_metacall, COMDAT
; File c:\xdynamics\xdynamics_gui\generatedfiles\release\moc_xmodelnavigator.cpp
; Line 297
$LN11:
	mov	QWORD PTR [rsp+8], rbx
	mov	QWORD PTR [rsp+16], rbp
	mov	QWORD PTR [rsp+24], rsi
	push	rdi
	sub	rsp, 32					; 00000020H
	mov	rsi, r9
	mov	edi, edx
	mov	rbp, rcx
; Line 298
	call	QWORD PTR __imp_?qt_metacall@QDockWidget@@UEAAHW4Call@QMetaObject@@HPEAPEAX@Z
	mov	ebx, eax
; Line 299
	test	eax, eax
	js	SHORT $LN1@qt_metacal
; Line 301
	test	edi, edi
	jne	SHORT $LN3@qt_metacal
; Line 302
	cmp	eax, 5
	jge	SHORT $LN7@qt_metacal
; Line 303
	xor	edx, edx
; Line 304
	jmp	SHORT $LN9@qt_metacal
$LN3@qt_metacal:
; Line 305
	cmp	edi, 12
	jne	SHORT $LN6@qt_metacal
; Line 306
	cmp	ebx, 5
	jge	SHORT $LN7@qt_metacal
; Line 307
	mov	edx, edi
$LN9@qt_metacal:
; Line 310
	mov	r9, rsi
	mov	r8d, ebx
	mov	rcx, rbp
	call	?qt_static_metacall@xModelNavigator@@CAXPEAVQObject@@W4Call@QMetaObject@@HPEAPEAX@Z ; xModelNavigator::qt_static_metacall
$LN7@qt_metacal:
	sub	ebx, 5
$LN6@qt_metacal:
	mov	eax, ebx
$LN1@qt_metacal:
; Line 311
	mov	rbx, QWORD PTR [rsp+48]
	mov	rbp, QWORD PTR [rsp+56]
	mov	rsi, QWORD PTR [rsp+64]
	add	rsp, 32					; 00000020H
	pop	rdi
	ret	0
?qt_metacall@xModelNavigator@@UEAAHW4Call@QMetaObject@@HPEAPEAX@Z ENDP ; xModelNavigator::qt_metacall
_TEXT	ENDS
; Function compile flags: /Ogtpy
;	COMDAT ?qt_metacast@xModelNavigator@@UEAAPEAXPEBD@Z
_TEXT	SEGMENT
this$ = 8
_clname$ = 16
?qt_metacast@xModelNavigator@@UEAAPEAXPEBD@Z PROC	; xModelNavigator::qt_metacast, COMDAT
; File c:\xdynamics\xdynamics_gui\generatedfiles\release\moc_xmodelnavigator.cpp
; Line 289
	mov	r9, rdx
	mov	r10, rcx
; Line 290
	test	rdx, rdx
	jne	SHORT $LN2@qt_metacas
	xor	eax, eax
; Line 294
	ret	0
$LN2@qt_metacas:
; Line 291
	lea	r8, OFFSET FLAT:?qt_meta_stringdata_xModelNavigator@@3Uqt_meta_stringdata_xModelNavigator_t@@B+264
	mov	rax, r9
	sub	r8, r9
	npad	5
$LL5@qt_metacas:
	movzx	edx, BYTE PTR [rax]
	movzx	ecx, BYTE PTR [rax+r8]
	sub	edx, ecx
	jne	SHORT $LN6@qt_metacas
	inc	rax
	test	ecx, ecx
	jne	SHORT $LL5@qt_metacas
$LN6@qt_metacas:
	test	edx, edx
	jne	SHORT $LN3@qt_metacas
; Line 292
	mov	rax, r10
; Line 294
	ret	0
$LN3@qt_metacas:
; Line 293
	mov	rdx, r9
	mov	rcx, r10
	rex_jmp	QWORD PTR __imp_?qt_metacast@QDockWidget@@UEAAPEAXPEBD@Z
?qt_metacast@xModelNavigator@@UEAAPEAXPEBD@Z ENDP	; xModelNavigator::qt_metacast
_TEXT	ENDS
; Function compile flags: /Ogtpy
;	COMDAT ?metaObject@xModelNavigator@@UEBAPEBUQMetaObject@@XZ
_TEXT	SEGMENT
this$ = 8
?metaObject@xModelNavigator@@UEBAPEBUQMetaObject@@XZ PROC ; xModelNavigator::metaObject, COMDAT
; File c:\xdynamics\xdynamics_gui\generatedfiles\release\moc_xmodelnavigator.cpp
; Line 285
	mov	rcx, QWORD PTR [rcx+8]
	cmp	QWORD PTR [rcx+40], 0
	je	SHORT $LN3@metaObject
	rex_jmp	QWORD PTR __imp_?dynamicMetaObject@QObjectData@@QEBAPEAUQMetaObject@@XZ
$LN3@metaObject:
	lea	rax, OFFSET FLAT:?staticMetaObject@xModelNavigator@@2UQMetaObject@@B ; xModelNavigator::staticMetaObject
; Line 286
	ret	0
?metaObject@xModelNavigator@@UEBAPEBUQMetaObject@@XZ ENDP ; xModelNavigator::metaObject
_TEXT	ENDS
; Function compile flags: /Ogtpy
;	COMDAT ?qt_static_metacall@wview@@CAXPEAVQObject@@W4Call@QMetaObject@@HPEAPEAX@Z
_TEXT	SEGMENT
_o$ = 8
_c$ = 16
_id$ = 24
_a$ = 32
?qt_static_metacall@wview@@CAXPEAVQObject@@W4Call@QMetaObject@@HPEAPEAX@Z PROC ; wview::qt_static_metacall, COMDAT
; File c:\xdynamics\xdynamics_gui\generatedfiles\release\moc_xmodelnavigator.cpp
; Line 81
	test	edx, edx
	jne	SHORT $LN10@qt_static_
; Line 84
	test	r8d, r8d
	je	SHORT $LN5@qt_static_
	sub	r8d, 1
	je	SHORT $LN6@qt_static_
	sub	r8d, 1
	je	SHORT $LN7@qt_static_
	sub	r8d, 1
	je	SHORT $LN8@qt_static_
	cmp	r8d, 1
	jne	SHORT $LN10@qt_static_
; Line 89
	mov	rax, QWORD PTR [r9+8]
	mov	edx, DWORD PTR [rax]
	jmp	?changeBlueColor@wview@@AEAAXH@Z	; wview::changeBlueColor
$LN8@qt_static_:
; Line 88
	mov	rax, QWORD PTR [r9+8]
	mov	edx, DWORD PTR [rax]
	jmp	?changeGreenColor@wview@@AEAAXH@Z	; wview::changeGreenColor
$LN7@qt_static_:
; Line 87
	mov	rax, QWORD PTR [r9+8]
	mov	edx, DWORD PTR [rax]
	jmp	?changeRedColor@wview@@AEAAXH@Z		; wview::changeRedColor
$LN6@qt_static_:
; Line 86
	jmp	?colorPalette@wview@@AEAAXXZ		; wview::colorPalette
$LN5@qt_static_:
; Line 85
	mov	rax, QWORD PTR [r9+8]
	mov	edx, DWORD PTR [rax]
	jmp	?changeTransparency@wview@@AEAAXH@Z	; wview::changeTransparency
$LN10@qt_static_:
; Line 93
	ret	0
?qt_static_metacall@wview@@CAXPEAVQObject@@W4Call@QMetaObject@@HPEAPEAX@Z ENDP ; wview::qt_static_metacall
_TEXT	ENDS
; Function compile flags: /Ogtpy
;	COMDAT ?qt_metacall@wview@@UEAAHW4Call@QMetaObject@@HPEAPEAX@Z
_TEXT	SEGMENT
this$ = 48
_c$ = 56
_id$ = 64
_a$ = 72
?qt_metacall@wview@@UEAAHW4Call@QMetaObject@@HPEAPEAX@Z PROC ; wview::qt_metacall, COMDAT
; File c:\xdynamics\xdynamics_gui\generatedfiles\release\moc_xmodelnavigator.cpp
; Line 121
$LN10:
	mov	QWORD PTR [rsp+8], rbx
	mov	QWORD PTR [rsp+16], rbp
	mov	QWORD PTR [rsp+24], rsi
	push	rdi
	sub	rsp, 32					; 00000020H
	mov	rsi, r9
	mov	edi, edx
	mov	rbp, rcx
; Line 122
	call	QWORD PTR __imp_?qt_metacall@QWidget@@UEAAHW4Call@QMetaObject@@HPEAPEAX@Z
	mov	ebx, eax
; Line 123
	test	eax, eax
	js	SHORT $LN1@qt_metacal
; Line 125
	test	edi, edi
	jne	SHORT $LN3@qt_metacal
; Line 126
	cmp	eax, 5
	jge	SHORT $LN7@qt_metacal
; Line 127
	mov	r9, rsi
	mov	r8d, eax
	xor	edx, edx
	mov	rcx, rbp
	call	?qt_static_metacall@wview@@CAXPEAVQObject@@W4Call@QMetaObject@@HPEAPEAX@Z ; wview::qt_static_metacall
; Line 128
	jmp	SHORT $LN7@qt_metacal
$LN3@qt_metacal:
; Line 129
	cmp	edi, 12
	jne	SHORT $LN6@qt_metacal
; Line 130
	cmp	ebx, 5
	jge	SHORT $LN7@qt_metacal
; Line 131
	mov	rax, QWORD PTR [rsi]
	mov	DWORD PTR [rax], -1
$LN7@qt_metacal:
; Line 134
	sub	ebx, 5
$LN6@qt_metacal:
	mov	eax, ebx
$LN1@qt_metacal:
; Line 135
	mov	rbx, QWORD PTR [rsp+48]
	mov	rbp, QWORD PTR [rsp+56]
	mov	rsi, QWORD PTR [rsp+64]
	add	rsp, 32					; 00000020H
	pop	rdi
	ret	0
?qt_metacall@wview@@UEAAHW4Call@QMetaObject@@HPEAPEAX@Z ENDP ; wview::qt_metacall
_TEXT	ENDS
; Function compile flags: /Ogtpy
;	COMDAT ?qt_metacast@wview@@UEAAPEAXPEBD@Z
_TEXT	SEGMENT
this$ = 48
_clname$ = 56
?qt_metacast@wview@@UEAAPEAXPEBD@Z PROC			; wview::qt_metacast, COMDAT
; File c:\xdynamics\xdynamics_gui\generatedfiles\release\moc_xmodelnavigator.cpp
; Line 111
$LN11:
	mov	QWORD PTR [rsp+8], rbx
	push	rdi
	sub	rsp, 32					; 00000020H
	mov	rdi, rdx
	mov	rbx, rcx
; Line 112
	test	rdx, rdx
	jne	SHORT $LN2@qt_metacas
	xor	eax, eax
; Line 118
	mov	rbx, QWORD PTR [rsp+48]
	add	rsp, 32					; 00000020H
	pop	rdi
	ret	0
$LN2@qt_metacas:
; Line 113
	lea	r8, OFFSET FLAT:?qt_meta_stringdata_wview@@3Uqt_meta_stringdata_wview_t@@B+168
	mov	rax, rdi
	sub	r8, rdi
	npad	1
$LL8@qt_metacas:
	movzx	edx, BYTE PTR [rax]
	movzx	ecx, BYTE PTR [rax+r8]
	sub	edx, ecx
	jne	SHORT $LN9@qt_metacas
	inc	rax
	test	ecx, ecx
	jne	SHORT $LL8@qt_metacas
$LN9@qt_metacas:
	test	edx, edx
	jne	SHORT $LN3@qt_metacas
; Line 114
	mov	rax, rbx
; Line 118
	mov	rbx, QWORD PTR [rsp+48]
	add	rsp, 32					; 00000020H
	pop	rdi
	ret	0
$LN3@qt_metacas:
; Line 115
	lea	rdx, OFFSET FLAT:??_C@_09KDGPCOLG@Ui?3?3wview@
	mov	rcx, rdi
	call	strcmp
	test	eax, eax
	jne	SHORT $LN4@qt_metacas
; Line 116
	xor	ecx, ecx
	lea	rax, QWORD PTR [rbx+48]
	test	rbx, rbx
	cmove	rax, rcx
; Line 118
	mov	rbx, QWORD PTR [rsp+48]
	add	rsp, 32					; 00000020H
	pop	rdi
	ret	0
$LN4@qt_metacas:
; Line 117
	mov	rdx, rdi
	mov	rcx, rbx
; Line 118
	mov	rbx, QWORD PTR [rsp+48]
	add	rsp, 32					; 00000020H
	pop	rdi
; Line 117
	rex_jmp	QWORD PTR __imp_?qt_metacast@QWidget@@UEAAPEAXPEBD@Z
?qt_metacast@wview@@UEAAPEAXPEBD@Z ENDP			; wview::qt_metacast
_TEXT	ENDS
; Function compile flags: /Ogtpy
;	COMDAT ?metaObject@wview@@UEBAPEBUQMetaObject@@XZ
_TEXT	SEGMENT
this$ = 8
?metaObject@wview@@UEBAPEBUQMetaObject@@XZ PROC		; wview::metaObject, COMDAT
; File c:\xdynamics\xdynamics_gui\generatedfiles\release\moc_xmodelnavigator.cpp
; Line 107
	mov	rcx, QWORD PTR [rcx+8]
	cmp	QWORD PTR [rcx+40], 0
	je	SHORT $LN3@metaObject
	rex_jmp	QWORD PTR __imp_?dynamicMetaObject@QObjectData@@QEBAPEAUQMetaObject@@XZ
$LN3@metaObject:
	lea	rax, OFFSET FLAT:?staticMetaObject@wview@@2UQMetaObject@@B ; wview::staticMetaObject
; Line 108
	ret	0
?metaObject@wview@@UEBAPEBUQMetaObject@@XZ ENDP		; wview::metaObject
_TEXT	ENDS
; Function compile flags: /Ogtpy
;	COMDAT ??C?$QScopedPointer@VQObjectData@@U?$QScopedPointerDeleter@VQObjectData@@@@@@QEBAPEAVQObjectData@@XZ
_TEXT	SEGMENT
this$ = 8
??C?$QScopedPointer@VQObjectData@@U?$QScopedPointerDeleter@VQObjectData@@@@@@QEBAPEAVQObjectData@@XZ PROC ; QScopedPointer<QObjectData,QScopedPointerDeleter<QObjectData> >::operator->, COMDAT
; File c:\qt\5.12.3\msvc2017_64\include\qtcore\qscopedpointer.h
; Line 118
	mov	rax, QWORD PTR [rcx]
; Line 119
	ret	0
??C?$QScopedPointer@VQObjectData@@U?$QScopedPointerDeleter@VQObjectData@@@@@@QEBAPEAVQObjectData@@XZ ENDP ; QScopedPointer<QObjectData,QScopedPointerDeleter<QObjectData> >::operator->
_TEXT	ENDS
; Function compile flags: /Ogtpy
;	COMDAT ??_5?$QFlags@W4TypeFlag@QMetaType@@@@QEAAAEAV0@W4TypeFlag@QMetaType@@@Z
_TEXT	SEGMENT
this$ = 8
other$ = 16
??_5?$QFlags@W4TypeFlag@QMetaType@@@@QEAAAEAV0@W4TypeFlag@QMetaType@@@Z PROC ; QFlags<enum QMetaType::TypeFlag>::operator|=, COMDAT
; File c:\qt\5.12.3\msvc2017_64\include\qtcore\qflags.h
; Line 133
	or	DWORD PTR [rcx], edx
	mov	rax, rcx
	ret	0
??_5?$QFlags@W4TypeFlag@QMetaType@@@@QEAAAEAV0@W4TypeFlag@QMetaType@@@Z ENDP ; QFlags<enum QMetaType::TypeFlag>::operator|=
_TEXT	ENDS
; Function compile flags: /Ogtpy
;	COMDAT ??0?$QFlags@W4TypeFlag@QMetaType@@@@QEAA@VQFlag@@@Z
_TEXT	SEGMENT
this$ = 8
flag$ = 16
??0?$QFlags@W4TypeFlag@QMetaType@@@@QEAA@VQFlag@@@Z PROC ; QFlags<enum QMetaType::TypeFlag>::QFlags<enum QMetaType::TypeFlag>, COMDAT
; File c:\qt\5.12.3\msvc2017_64\include\qtcore\qflags.h
; Line 122
	mov	DWORD PTR [rcx], edx
	mov	rax, rcx
	ret	0
??0?$QFlags@W4TypeFlag@QMetaType@@@@QEAA@VQFlag@@@Z ENDP ; QFlags<enum QMetaType::TypeFlag>::QFlags<enum QMetaType::TypeFlag>
_TEXT	ENDS
; Function compile flags: /Ogtpy
;	COMDAT ??0?$QBasicAtomicInteger@H@@QEAA@H@Z
_TEXT	SEGMENT
this$ = 8
value$ = 16
??0?$QBasicAtomicInteger@H@@QEAA@H@Z PROC		; QBasicAtomicInteger<int>::QBasicAtomicInteger<int>, COMDAT
; File c:\qt\5.12.3\msvc2017_64\include\qtcore\qbasicatomic.h
; File c:\program files (x86)\microsoft visual studio\2017\community\vc\tools\msvc\14.16.27023\include\xxatomic
; Line 172
	mov	DWORD PTR [rcx], edx
; File c:\qt\5.12.3\msvc2017_64\include\qtcore\qbasicatomic.h
; Line 221
	mov	rax, rcx
	ret	0
??0?$QBasicAtomicInteger@H@@QEAA@H@Z ENDP		; QBasicAtomicInteger<int>::QBasicAtomicInteger<int>
_TEXT	ENDS
; Function compile flags: /Ogtpy
;	COMDAT ?storeRelease@?$QBasicAtomicInteger@H@@QEAAXH@Z
_TEXT	SEGMENT
this$ = 8
newValue$ = 16
?storeRelease@?$QBasicAtomicInteger@H@@QEAAXH@Z PROC	; QBasicAtomicInteger<int>::storeRelease, COMDAT
; File c:\qt\5.12.3\msvc2017_64\include\qtcore\qbasicatomic.h
; File c:\program files (x86)\microsoft visual studio\2017\community\vc\tools\msvc\14.16.27023\include\xatomic.h
; Line 1270
	mov	DWORD PTR [rcx], edx
; File c:\qt\5.12.3\msvc2017_64\include\qtcore\qbasicatomic.h
; Line 107
	ret	0
?storeRelease@?$QBasicAtomicInteger@H@@QEAAXH@Z ENDP	; QBasicAtomicInteger<int>::storeRelease
_TEXT	ENDS
; Function compile flags: /Ogtpy
;	COMDAT ?loadAcquire@?$QBasicAtomicInteger@H@@QEBAHXZ
_TEXT	SEGMENT
this$ = 8
?loadAcquire@?$QBasicAtomicInteger@H@@QEBAHXZ PROC	; QBasicAtomicInteger<int>::loadAcquire, COMDAT
; File c:\qt\5.12.3\msvc2017_64\include\qtcore\qbasicatomic.h
; File c:\program files (x86)\microsoft visual studio\2017\community\vc\tools\msvc\14.16.27023\include\xatomic.h
; Line 1325
	mov	eax, DWORD PTR [rcx]
; File c:\qt\5.12.3\msvc2017_64\include\qtcore\qbasicatomic.h
; Line 106
	ret	0
?loadAcquire@?$QBasicAtomicInteger@H@@QEBAHXZ ENDP	; QBasicAtomicInteger<int>::loadAcquire
_TEXT	ENDS
; Function compile flags: /Ogtpy
;	COMDAT ?atomic_load_explicit@std@@YAHPEBU_Atomic_int@1@W4memory_order@1@@Z
_TEXT	SEGMENT
_Atom$ = 8
_Order$ = 16
?atomic_load_explicit@std@@YAHPEBU_Atomic_int@1@W4memory_order@1@@Z PROC ; std::atomic_load_explicit, COMDAT
; File c:\program files (x86)\microsoft visual studio\2017\community\vc\tools\msvc\14.16.27023\include\xxatomic
; File c:\program files (x86)\microsoft visual studio\2017\community\vc\tools\msvc\14.16.27023\include\xatomic.h
; Line 1357
	test	edx, edx
	je	SHORT $LN6@atomic_loa
	jle	SHORT $LN9@atomic_loa
	cmp	edx, 2
	jle	SHORT $LN7@atomic_loa
	cmp	edx, 5
	jne	SHORT $LN9@atomic_loa
$LN7@atomic_loa:
; File c:\program files (x86)\microsoft visual studio\2017\community\vc\tools\msvc\14.16.27023\include\xxatomic
; Line 496
	mov	eax, DWORD PTR [rcx]
	ret	0
$LN9@atomic_loa:
; Line 495
	xor	eax, eax
; Line 496
	ret	0
$LN6@atomic_loa:
; File c:\program files (x86)\microsoft visual studio\2017\community\vc\tools\msvc\14.16.27023\include\xatomic.h
; Line 1360
	mov	eax, DWORD PTR [rcx]
; File c:\program files (x86)\microsoft visual studio\2017\community\vc\tools\msvc\14.16.27023\include\xxatomic
; Line 496
	ret	0
?atomic_load_explicit@std@@YAHPEBU_Atomic_int@1@W4memory_order@1@@Z ENDP ; std::atomic_load_explicit
_TEXT	ENDS
; Function compile flags: /Ogtpy
;	COMDAT ?atomic_store_explicit@std@@YAXPEAU_Atomic_int@1@HW4memory_order@1@@Z
_TEXT	SEGMENT
_Atom$ = 8
_Value$ = 16
_Order$ = 24
?atomic_store_explicit@std@@YAXPEAU_Atomic_int@1@HW4memory_order@1@@Z PROC ; std::atomic_store_explicit, COMDAT
; File c:\program files (x86)\microsoft visual studio\2017\community\vc\tools\msvc\14.16.27023\include\xxatomic
; File c:\program files (x86)\microsoft visual studio\2017\community\vc\tools\msvc\14.16.27023\include\xatomic.h
; Line 1291
	test	r8d, r8d
	je	SHORT $LN6@atomic_sto
	cmp	r8d, 3
	je	SHORT $LN6@atomic_sto
	cmp	r8d, 5
	jne	SHORT $LN9@atomic_sto
; Line 1284
	xchg	DWORD PTR [rcx], edx
; File c:\program files (x86)\microsoft visual studio\2017\community\vc\tools\msvc\14.16.27023\include\xxatomic
; Line 475
	ret	0
$LN6@atomic_sto:
	mov	DWORD PTR [rcx], edx
$LN9@atomic_sto:
	ret	0
?atomic_store_explicit@std@@YAXPEAU_Atomic_int@1@HW4memory_order@1@@Z ENDP ; std::atomic_store_explicit
_TEXT	ENDS
; Function compile flags: /Ogtpy
;	COMDAT ??0?$atomic@H@std@@QEAA@H@Z
_TEXT	SEGMENT
this$ = 8
_Val$ = 16
??0?$atomic@H@std@@QEAA@H@Z PROC			; std::atomic<int>::atomic<int>, COMDAT
; File c:\program files (x86)\microsoft visual studio\2017\community\vc\tools\msvc\14.16.27023\include\xxatomic
; Line 172
	mov	DWORD PTR [rcx], edx
; Line 173
	mov	rax, rcx
	ret	0
??0?$atomic@H@std@@QEAA@H@Z ENDP			; std::atomic<int>::atomic<int>
_TEXT	ENDS
; Function compile flags: /Ogtpy
;	COMDAT ?load@_Atomic_int@std@@QEBAHW4memory_order@2@@Z
_TEXT	SEGMENT
this$ = 8
_Order$ = 16
?load@_Atomic_int@std@@QEBAHW4memory_order@2@@Z PROC	; std::_Atomic_int::load, COMDAT
; File c:\program files (x86)\microsoft visual studio\2017\community\vc\tools\msvc\14.16.27023\include\xxatomic
; File c:\program files (x86)\microsoft visual studio\2017\community\vc\tools\msvc\14.16.27023\include\xatomic.h
; Line 1357
	test	edx, edx
	je	SHORT $LN8@load
	jle	SHORT $LN11@load
	cmp	edx, 2
	jle	SHORT $LN9@load
	cmp	edx, 5
	jne	SHORT $LN11@load
$LN9@load:
; File c:\program files (x86)\microsoft visual studio\2017\community\vc\tools\msvc\14.16.27023\include\xxatomic
; Line 630
	mov	eax, DWORD PTR [rcx]
	ret	0
$LN11@load:
; Line 629
	xor	eax, eax
; Line 630
	ret	0
$LN8@load:
; File c:\program files (x86)\microsoft visual studio\2017\community\vc\tools\msvc\14.16.27023\include\xatomic.h
; Line 1360
	mov	eax, DWORD PTR [rcx]
; File c:\program files (x86)\microsoft visual studio\2017\community\vc\tools\msvc\14.16.27023\include\xxatomic
; Line 630
	ret	0
?load@_Atomic_int@std@@QEBAHW4memory_order@2@@Z ENDP	; std::_Atomic_int::load
_TEXT	ENDS
; Function compile flags: /Ogtpy
;	COMDAT ?store@_Atomic_int@std@@QEAAXHW4memory_order@2@@Z
_TEXT	SEGMENT
this$ = 8
_Value$ = 16
_Order$ = 24
?store@_Atomic_int@std@@QEAAXHW4memory_order@2@@Z PROC	; std::_Atomic_int::store, COMDAT
; File c:\program files (x86)\microsoft visual studio\2017\community\vc\tools\msvc\14.16.27023\include\xxatomic
; File c:\program files (x86)\microsoft visual studio\2017\community\vc\tools\msvc\14.16.27023\include\xatomic.h
; Line 1291
	test	r8d, r8d
	je	SHORT $LN8@store
	cmp	r8d, 3
	je	SHORT $LN8@store
	cmp	r8d, 5
	jne	SHORT $LN11@store
; Line 1284
	xchg	DWORD PTR [rcx], edx
; File c:\program files (x86)\microsoft visual studio\2017\community\vc\tools\msvc\14.16.27023\include\xxatomic
; Line 620
	ret	0
$LN8@store:
	mov	DWORD PTR [rcx], edx
$LN11@store:
	ret	0
?store@_Atomic_int@std@@QEAAXHW4memory_order@2@@Z ENDP	; std::_Atomic_int::store
_TEXT	ENDS
; Function compile flags: /Ogtpy
;	COMDAT ?_Atomic_load_4@std@@YAKPECKW4memory_order@1@@Z
_TEXT	SEGMENT
_Tgt$ = 8
_Order$ = 16
?_Atomic_load_4@std@@YAKPECKW4memory_order@1@@Z PROC	; std::_Atomic_load_4, COMDAT
; File c:\program files (x86)\microsoft visual studio\2017\community\vc\tools\msvc\14.16.27023\include\xatomic.h
; Line 1357
	test	edx, edx
	je	SHORT $LN4@Atomic_loa
	jle	SHORT $LN7@Atomic_loa
	cmp	edx, 2
	jle	SHORT $LN5@Atomic_loa
	cmp	edx, 5
	jne	SHORT $LN7@Atomic_loa
$LN5@Atomic_loa:
; Line 1375
	mov	eax, DWORD PTR [rcx]
	ret	0
$LN7@Atomic_loa:
; Line 1373
	xor	eax, eax
; Line 1375
	ret	0
$LN4@Atomic_loa:
; Line 1341
	mov	eax, DWORD PTR [rcx]
; Line 1375
	ret	0
?_Atomic_load_4@std@@YAKPECKW4memory_order@1@@Z ENDP	; std::_Atomic_load_4
_TEXT	ENDS
; Function compile flags: /Ogtpy
;	COMDAT ?_Load_acquire_4@std@@YAKPECK@Z
_TEXT	SEGMENT
_Tgt$ = 8
?_Load_acquire_4@std@@YAKPECK@Z PROC			; std::_Load_acquire_4, COMDAT
; File c:\program files (x86)\microsoft visual studio\2017\community\vc\tools\msvc\14.16.27023\include\xatomic.h
; Line 1325
	mov	eax, DWORD PTR [rcx]
; Line 1352
	ret	0
?_Load_acquire_4@std@@YAKPECK@Z ENDP			; std::_Load_acquire_4
_TEXT	ENDS
; Function compile flags: /Ogtpy
;	COMDAT ?_Load_relaxed_4@std@@YAKPECK@Z
_TEXT	SEGMENT
_Tgt$ = 8
?_Load_relaxed_4@std@@YAKPECK@Z PROC			; std::_Load_relaxed_4, COMDAT
; File c:\program files (x86)\microsoft visual studio\2017\community\vc\tools\msvc\14.16.27023\include\xatomic.h
; Line 1341
	mov	eax, DWORD PTR [rcx]
; Line 1345
	ret	0
?_Load_relaxed_4@std@@YAKPECK@Z ENDP			; std::_Load_relaxed_4
_TEXT	ENDS
; Function compile flags: /Ogtpy
;	COMDAT ?_Load_seq_cst_4@std@@YAKPECK@Z
_TEXT	SEGMENT
_Tgt$ = 8
?_Load_seq_cst_4@std@@YAKPECK@Z PROC			; std::_Load_seq_cst_4, COMDAT
; File c:\program files (x86)\microsoft visual studio\2017\community\vc\tools\msvc\14.16.27023\include\xatomic.h
; Line 1325
	mov	eax, DWORD PTR [rcx]
; Line 1330
	ret	0
?_Load_seq_cst_4@std@@YAKPECK@Z ENDP			; std::_Load_seq_cst_4
_TEXT	ENDS
; Function compile flags: /Ogtpy
;	COMDAT ?_Atomic_store_4@std@@YAXPECKKW4memory_order@1@@Z
_TEXT	SEGMENT
_Tgt$ = 8
_Value$ = 16
_Order$ = 24
?_Atomic_store_4@std@@YAXPECKKW4memory_order@1@@Z PROC	; std::_Atomic_store_4, COMDAT
; File c:\program files (x86)\microsoft visual studio\2017\community\vc\tools\msvc\14.16.27023\include\xatomic.h
; Line 1291
	test	r8d, r8d
	je	SHORT $LN4@Atomic_sto
	cmp	r8d, 3
	je	SHORT $LN5@Atomic_sto
	cmp	r8d, 5
	jne	SHORT $LN7@Atomic_sto
; Line 1284
	xchg	DWORD PTR [rcx], edx
; Line 1312
	ret	0
$LN5@Atomic_sto:
$LN4@Atomic_sto:
	mov	DWORD PTR [rcx], edx
$LN7@Atomic_sto:
	ret	0
?_Atomic_store_4@std@@YAXPECKKW4memory_order@1@@Z ENDP	; std::_Atomic_store_4
_TEXT	ENDS
; Function compile flags: /Ogtpy
;	COMDAT ?_Store_seq_cst_4@std@@YAXPECKK@Z
_TEXT	SEGMENT
_Tgt$ = 8
_Value$ = 16
?_Store_seq_cst_4@std@@YAXPECKK@Z PROC			; std::_Store_seq_cst_4, COMDAT
; File c:\program files (x86)\microsoft visual studio\2017\community\vc\tools\msvc\14.16.27023\include\xatomic.h
; Line 1284
	xchg	DWORD PTR [rcx], edx
; Line 1286
	ret	0
?_Store_seq_cst_4@std@@YAXPECKK@Z ENDP			; std::_Store_seq_cst_4
_TEXT	ENDS
; Function compile flags: /Ogtpy
;	COMDAT ?_Store_release_4@std@@YAXPECKK@Z
_TEXT	SEGMENT
_Tgt$ = 8
_Value$ = 16
?_Store_release_4@std@@YAXPECKK@Z PROC			; std::_Store_release_4, COMDAT
; File c:\program files (x86)\microsoft visual studio\2017\community\vc\tools\msvc\14.16.27023\include\xatomic.h
; Line 1270
	mov	DWORD PTR [rcx], edx
; Line 1272
	ret	0
?_Store_release_4@std@@YAXPECKK@Z ENDP			; std::_Store_release_4
_TEXT	ENDS
; Function compile flags: /Ogtpy
;	COMDAT ?_Store_relaxed_4@std@@YAXPECKK@Z
_TEXT	SEGMENT
_Tgt$ = 8
_Value$ = 16
?_Store_relaxed_4@std@@YAXPECKK@Z PROC			; std::_Store_relaxed_4, COMDAT
; File c:\program files (x86)\microsoft visual studio\2017\community\vc\tools\msvc\14.16.27023\include\xatomic.h
; Line 1257
	mov	DWORD PTR [rcx], edx
; Line 1259
	ret	0
?_Store_relaxed_4@std@@YAXPECKK@Z ENDP			; std::_Store_relaxed_4
_TEXT	ENDS
; Function compile flags: /Ogtpy
;	COMDAT ??BQFlag@@QEBAHXZ
_TEXT	SEGMENT
this$ = 8
??BQFlag@@QEBAHXZ PROC					; QFlag::operator int, COMDAT
; File c:\qt\5.12.3\msvc2017_64\include\qtcore\qflags.h
; Line 58
	mov	eax, DWORD PTR [rcx]
	ret	0
??BQFlag@@QEBAHXZ ENDP					; QFlag::operator int
_TEXT	ENDS
; Function compile flags: /Ogtpy
;	COMDAT ??0QFlag@@QEAA@H@Z
_TEXT	SEGMENT
this$ = 8
value$ = 16
??0QFlag@@QEAA@H@Z PROC					; QFlag::QFlag, COMDAT
; File c:\qt\5.12.3\msvc2017_64\include\qtcore\qflags.h
; Line 57
	mov	DWORD PTR [rcx], edx
	mov	rax, rcx
	ret	0
??0QFlag@@QEAA@H@Z ENDP					; QFlag::QFlag
_TEXT	ENDS
; Function compile flags: /Ogtpy
;	COMDAT ??2@YAPEAX_KPEAX@Z
_TEXT	SEGMENT
_Size$ = 8
_Where$ = 16
??2@YAPEAX_KPEAX@Z PROC					; operator new, COMDAT
; File c:\program files (x86)\microsoft visual studio\2017\community\vc\tools\msvc\14.16.27023\include\vcruntime_new.h
; Line 187
	mov	rax, rdx
; Line 188
	ret	0
??2@YAPEAX_KPEAX@Z ENDP					; operator new
_TEXT	ENDS
END
