; Listing generated by Microsoft (R) Optimizing Compiler Version 19.16.27034.0 

include listing.inc

INCLUDELIB MSVCRT
INCLUDELIB OLDNAMES

EXTRN	__imp_?staticMetaObject@QThread@@2UQMetaObject@@B:BYTE
CONST	SEGMENT
?qt_meta_stringdata_xResultCallThread@@3Uqt_meta_stringdata_xResultCallThread_t@@B DD 0ffffffffH ; qt_meta_stringdata_xResultCallThread
	DD	011H
	DD	00H
	ORG $+4
	DQ	0000000000000060H
	DD	0ffffffffH
	DD	012H
	DD	00H
	ORG $+4
	DQ	000000000000005aH
	DD	0ffffffffH
	DD	00H
	DD	00H
	ORG $+4
	DQ	0000000000000055H
	DD	0ffffffffH
	DD	019H
	DD	00H
	ORG $+4
	DQ	000000000000003eH
	DB	078H
	DB	052H
	DB	065H
	DB	073H
	DB	075H
	DB	06cH
	DB	074H
	DB	043H
	DB	061H
	DB	06cH
	DB	06cH
	DB	054H
	DB	068H
	DB	072H
	DB	065H
	DB	061H
	DB	064H
	DB	00H
	DB	072H
	DB	065H
	DB	073H
	DB	075H
	DB	06cH
	DB	074H
	DB	05fH
	DB	063H
	DB	061H
	DB	06cH
	DB	06cH
	DB	05fH
	DB	066H
	DB	069H
	DB	06eH
	DB	069H
	DB	073H
	DB	068H
	DB	00H
	DB	00H
	DB	072H
	DB	065H
	DB	073H
	DB	075H
	DB	06cH
	DB	074H
	DB	05fH
	DB	063H
	DB	061H
	DB	06cH
	DB	06cH
	DB	05fH
	DB	073H
	DB	065H
	DB	06eH
	DB	064H
	DB	05fH
	DB	070H
	DB	072H
	DB	06fH
	DB	067H
	DB	072H
	DB	065H
	DB	073H
	DB	073H
	DB	00H
?qt_meta_data_xResultCallThread@@3QBIB DD 08H		; qt_meta_data_xResultCallThread
	DD	00H
	DD	00H
	DD	00H
	DD	02H
	DD	0eH
	DD	00H
	DD	00H
	DD	00H
	DD	00H
	DD	00H
	DD	00H
	DD	00H
	DD	02H
	DD	01H
	DD	00H
	DD	018H
	DD	02H
	DD	06H
	DD	03H
	DD	02H
	DD	019H
	DD	02H
	DD	06H
	DD	02bH
	DD	02bH
	DD	02H
	DD	0aH
	DD	02H
	DD	02H
	DD	00H
CONST	ENDS
PUBLIC	?metaObject@xResultCallThread@@UEBAPEBUQMetaObject@@XZ ; xResultCallThread::metaObject
PUBLIC	?qt_metacast@xResultCallThread@@UEAAPEAXPEBD@Z	; xResultCallThread::qt_metacast
PUBLIC	?qt_metacall@xResultCallThread@@UEAAHW4Call@QMetaObject@@HPEAPEAX@Z ; xResultCallThread::qt_metacall
PUBLIC	?qt_static_metacall@xResultCallThread@@CAXPEAVQObject@@W4Call@QMetaObject@@HPEAPEAX@Z ; xResultCallThread::qt_static_metacall
PUBLIC	?result_call_finish@xResultCallThread@@QEAAXXZ	; xResultCallThread::result_call_finish
PUBLIC	?result_call_send_progress@xResultCallThread@@QEAAXHVQString@@@Z ; xResultCallThread::result_call_send_progress
PUBLIC	?staticMetaObject@xResultCallThread@@2UQMetaObject@@B ; xResultCallThread::staticMetaObject
EXTRN	__imp_?activate@QMetaObject@@SAXPEAVQObject@@PEBU1@HPEAPEAX@Z:PROC
EXTRN	__imp_??0QString@@QEAA@AEBV0@@Z:PROC
EXTRN	__imp_??1QString@@QEAA@XZ:PROC
EXTRN	__imp_?dynamicMetaObject@QObjectData@@QEBAPEAUQMetaObject@@XZ:PROC
EXTRN	__imp_?qt_metacast@QThread@@UEAAPEAXPEBD@Z:PROC
EXTRN	__imp_?qt_metacall@QThread@@UEAAHW4Call@QMetaObject@@HPEAPEAX@Z:PROC
EXTRN	__GSHandlerCheck_EH:PROC
EXTRN	__security_check_cookie:PROC
EXTRN	__security_cookie:QWORD
;	COMDAT pdata
pdata	SEGMENT
$pdata$?qt_metacall@xResultCallThread@@UEAAHW4Call@QMetaObject@@HPEAPEAX@Z DD imagerel $LN10
	DD	imagerel $LN10+112
	DD	imagerel $unwind$?qt_metacall@xResultCallThread@@UEAAHW4Call@QMetaObject@@HPEAPEAX@Z
pdata	ENDS
;	COMDAT pdata
pdata	SEGMENT
$pdata$?qt_static_metacall@xResultCallThread@@CAXPEAVQObject@@W4Call@QMetaObject@@HPEAPEAX@Z DD imagerel $LN18
	DD	imagerel $LN18+181
	DD	imagerel $unwind$?qt_static_metacall@xResultCallThread@@CAXPEAVQObject@@W4Call@QMetaObject@@HPEAPEAX@Z
pdata	ENDS
;	COMDAT pdata
pdata	SEGMENT
$pdata$?result_call_send_progress@xResultCallThread@@QEAAXHVQString@@@Z DD imagerel $LN6
	DD	imagerel $LN6+114
	DD	imagerel $unwind$?result_call_send_progress@xResultCallThread@@QEAAXHVQString@@@Z
pdata	ENDS
CRT$XCU	SEGMENT
??staticMetaObject$initializer$@xResultCallThread@@2P6AXXZEA@@3P6AXXZEA DQ FLAT:??__E?staticMetaObject@xResultCallThread@@2UQMetaObject@@B@@YAXXZ ; ??staticMetaObject$initializer$@xResultCallThread@@2P6AXXZEA@@3P6AXXZEA
CRT$XCU	ENDS
_DATA	SEGMENT
?staticMetaObject@xResultCallThread@@2UQMetaObject@@B DB 8 DUP(00H) ; xResultCallThread::staticMetaObject
	DQ	FLAT:?qt_meta_stringdata_xResultCallThread@@3Uqt_meta_stringdata_xResultCallThread_t@@B
	DQ	FLAT:?qt_meta_data_xResultCallThread@@3QBIB
	DQ	FLAT:?qt_static_metacall@xResultCallThread@@CAXPEAVQObject@@W4Call@QMetaObject@@HPEAPEAX@Z
	DQ	0000000000000000H
	DQ	0000000000000000H
_DATA	ENDS
;	COMDAT xdata
xdata	SEGMENT
$ip2state$?result_call_send_progress@xResultCallThread@@QEAAXHVQString@@@Z DD imagerel ?result_call_send_progress@xResultCallThread@@QEAAXHVQString@@@Z+79
	DD	00H
	DD	imagerel ?result_call_send_progress@xResultCallThread@@QEAAXHVQString@@@Z+103
	DD	0ffffffffH
xdata	ENDS
;	COMDAT xdata
xdata	SEGMENT
$stateUnwindMap$?result_call_send_progress@xResultCallThread@@QEAAXHVQString@@@Z DD 0ffffffffH
	DD	imagerel ?dtor$0@?0??result_call_send_progress@xResultCallThread@@QEAAXHVQString@@@Z@4HA
xdata	ENDS
;	COMDAT CONST
CONST	SEGMENT
$cppxdata$?result_call_send_progress@xResultCallThread@@QEAAXHVQString@@@Z DD 019930522H
	DD	01H
	DD	imagerel $stateUnwindMap$?result_call_send_progress@xResultCallThread@@QEAAXHVQString@@@Z
	DD	00H
	DD	00H
	DD	02H
	DD	imagerel $ip2state$?result_call_send_progress@xResultCallThread@@QEAAXHVQString@@@Z
	DD	028H
	DD	00H
	DD	01H
CONST	ENDS
;	COMDAT xdata
xdata	SEGMENT
$unwind$?result_call_send_progress@xResultCallThread@@QEAAXHVQString@@@Z DD 021f19H
	DD	03004b208H
	DD	imagerel __GSHandlerCheck_EH
	DD	imagerel $cppxdata$?result_call_send_progress@xResultCallThread@@QEAAXHVQString@@@Z
	DD	052H
xdata	ENDS
;	COMDAT xdata
xdata	SEGMENT
$unwind$?qt_static_metacall@xResultCallThread@@CAXPEAVQObject@@W4Call@QMetaObject@@HPEAPEAX@Z DD 040a01H
	DD	08340aH
	DD	07006520aH
xdata	ENDS
;	COMDAT xdata
xdata	SEGMENT
$unwind$?qt_metacall@xResultCallThread@@UEAAHW4Call@QMetaObject@@HPEAPEAX@Z DD 081401H
	DD	086414H
	DD	075414H
	DD	063414H
	DD	070103214H
xdata	ENDS
; Function compile flags: /Ogtpy
;	COMDAT ??__E?staticMetaObject@xResultCallThread@@2UQMetaObject@@B@@YAXXZ
text$di	SEGMENT
??__E?staticMetaObject@xResultCallThread@@2UQMetaObject@@B@@YAXXZ PROC ; `dynamic initializer for 'xResultCallThread::staticMetaObject'', COMDAT
; File c:\xdynamics\xdynamics_gui\generatedfiles\release\moc_xresultcallthread.cpp
; Line 99
	mov	rax, QWORD PTR __imp_?staticMetaObject@QThread@@2UQMetaObject@@B
	mov	QWORD PTR ?staticMetaObject@xResultCallThread@@2UQMetaObject@@B, rax
; Line 104
	ret	0
??__E?staticMetaObject@xResultCallThread@@2UQMetaObject@@B@@YAXXZ ENDP ; `dynamic initializer for 'xResultCallThread::staticMetaObject''
text$di	ENDS
; Function compile flags: /Ogtpy
;	COMDAT ?result_call_send_progress@xResultCallThread@@QEAAXHVQString@@@Z
_TEXT	SEGMENT
_t1$GSCopy$ = 32
_t2$GSCopy$ = 48
__$ArrayPad$ = 80
this$ = 112
_t1$ = 120
_t2$ = 128
?result_call_send_progress@xResultCallThread@@QEAAXHVQString@@@Z PROC ; xResultCallThread::result_call_send_progress, COMDAT
; File c:\xdynamics\xdynamics_gui\generatedfiles\release\moc_xresultcallthread.cpp
; Line 146
$LN6:
	mov	r11, rsp
	push	rbx
	sub	rsp, 96					; 00000060H
	mov	QWORD PTR [r11-64], -2
	mov	rax, QWORD PTR __security_cookie
	xor	rax, rsp
	mov	QWORD PTR __$ArrayPad$[rsp], rax
	mov	rbx, r8
	mov	DWORD PTR _t1$GSCopy$[rsp], edx
	mov	QWORD PTR [r11-56], rbx
; Line 147
	mov	QWORD PTR [r11-48], 0
	lea	rax, QWORD PTR [r11-72]
	mov	QWORD PTR [r11-40], rax
	mov	QWORD PTR [r11-32], rbx
; Line 148
	lea	r9, QWORD PTR [r11-48]
	mov	r8d, 1
	lea	rdx, OFFSET FLAT:?staticMetaObject@xResultCallThread@@2UQMetaObject@@B ; xResultCallThread::staticMetaObject
	call	QWORD PTR __imp_?activate@QMetaObject@@SAXPEAVQObject@@PEBU1@HPEAPEAX@Z
	npad	1
; Line 149
	mov	rcx, rbx
	call	QWORD PTR __imp_??1QString@@QEAA@XZ
	mov	rcx, QWORD PTR __$ArrayPad$[rsp]
	xor	rcx, rsp
	call	__security_check_cookie
	add	rsp, 96					; 00000060H
	pop	rbx
	ret	0
?result_call_send_progress@xResultCallThread@@QEAAXHVQString@@@Z ENDP ; xResultCallThread::result_call_send_progress
_TEXT	ENDS
;	COMDAT text$x
text$x	SEGMENT
_t1$GSCopy$ = 32
_t2$GSCopy$ = 48
__$ArrayPad$ = 80
this$ = 112
_t1$ = 120
_t2$ = 128
?dtor$0@?0??result_call_send_progress@xResultCallThread@@QEAAXHVQString@@@Z@4HA PROC ; `xResultCallThread::result_call_send_progress'::`1'::dtor$0
	mov	rcx, QWORD PTR _t2$GSCopy$[rdx]
	rex_jmp	QWORD PTR __imp_??1QString@@QEAA@XZ
?dtor$0@?0??result_call_send_progress@xResultCallThread@@QEAAXHVQString@@@Z@4HA ENDP ; `xResultCallThread::result_call_send_progress'::`1'::dtor$0
text$x	ENDS
; Function compile flags: /Ogtpy
;	COMDAT text$x
text$x	SEGMENT
_t1$GSCopy$ = 32
_t2$GSCopy$ = 48
__$ArrayPad$ = 80
this$ = 112
_t1$ = 120
_t2$ = 128
?dtor$0@?0??result_call_send_progress@xResultCallThread@@QEAAXHVQString@@@Z@4HA PROC ; `xResultCallThread::result_call_send_progress'::`1'::dtor$0
	mov	rcx, QWORD PTR _t2$GSCopy$[rdx]
	rex_jmp	QWORD PTR __imp_??1QString@@QEAA@XZ
?dtor$0@?0??result_call_send_progress@xResultCallThread@@QEAAXHVQString@@@Z@4HA ENDP ; `xResultCallThread::result_call_send_progress'::`1'::dtor$0
text$x	ENDS
; Function compile flags: /Ogtpy
;	COMDAT ?result_call_finish@xResultCallThread@@QEAAXXZ
_TEXT	SEGMENT
this$ = 8
?result_call_finish@xResultCallThread@@QEAAXXZ PROC	; xResultCallThread::result_call_finish, COMDAT
; File c:\xdynamics\xdynamics_gui\generatedfiles\release\moc_xresultcallthread.cpp
; Line 141
	xor	r9d, r9d
	lea	rdx, OFFSET FLAT:?staticMetaObject@xResultCallThread@@2UQMetaObject@@B ; xResultCallThread::staticMetaObject
	xor	r8d, r8d
	rex_jmp	QWORD PTR __imp_?activate@QMetaObject@@SAXPEAVQObject@@PEBU1@HPEAPEAX@Z
?result_call_finish@xResultCallThread@@QEAAXXZ ENDP	; xResultCallThread::result_call_finish
_TEXT	ENDS
; Function compile flags: /Ogtpy
;	COMDAT ?qt_static_metacall@xResultCallThread@@CAXPEAVQObject@@W4Call@QMetaObject@@HPEAPEAX@Z
_TEXT	SEGMENT
$T1 = 32
_o$ = 64
_c$ = 72
_id$ = 80
_a$ = 88
?qt_static_metacall@xResultCallThread@@CAXPEAVQObject@@W4Call@QMetaObject@@HPEAPEAX@Z PROC ; xResultCallThread::qt_static_metacall, COMDAT
; File c:\xdynamics\xdynamics_gui\generatedfiles\release\moc_xresultcallthread.cpp
; Line 70
$LN18:
	mov	QWORD PTR [rsp+8], rbx
	push	rdi
	sub	rsp, 48					; 00000030H
	mov	rbx, r9
	mov	rdi, rcx
; Line 71
	test	edx, edx
	jne	SHORT $LN4@qt_static_
; Line 74
	test	r8d, r8d
	je	SHORT $LN6@qt_static_
	cmp	r8d, 1
	jne	$LN11@qt_static_
; Line 76
	mov	rdx, QWORD PTR [r9+16]
	lea	rcx, QWORD PTR $T1[rsp]
	call	QWORD PTR __imp_??0QString@@QEAA@AEBV0@@Z
	mov	rcx, QWORD PTR [rbx+8]
	mov	r8, rax
	mov	edx, DWORD PTR [rcx]
	mov	rcx, rdi
	call	?result_call_send_progress@xResultCallThread@@QEAAXHVQString@@@Z ; xResultCallThread::result_call_send_progress
; Line 96
	mov	rbx, QWORD PTR [rsp+64]
	add	rsp, 48					; 00000030H
	pop	rdi
	ret	0
$LN6@qt_static_:
; Line 141
	xor	r9d, r9d
	lea	rdx, OFFSET FLAT:?staticMetaObject@xResultCallThread@@2UQMetaObject@@B ; xResultCallThread::staticMetaObject
	xor	r8d, r8d
; Line 96
	mov	rbx, QWORD PTR [rsp+64]
	add	rsp, 48					; 00000030H
	pop	rdi
; Line 141
	rex_jmp	QWORD PTR __imp_?activate@QMetaObject@@SAXPEAVQObject@@PEBU1@HPEAPEAX@Z
$LN4@qt_static_:
; Line 79
	cmp	edx, 10
	jne	SHORT $LN11@qt_static_
; Line 83
	mov	rax, QWORD PTR [r9+8]
	mov	rcx, QWORD PTR [r9]
	mov	rdx, QWORD PTR [rax]
	lea	rax, OFFSET FLAT:?result_call_finish@xResultCallThread@@QEAAXXZ ; xResultCallThread::result_call_finish
	cmp	rdx, rax
	jne	SHORT $LN10@qt_static_
; Line 84
	mov	DWORD PTR [rcx], 0
; Line 96
	mov	rbx, QWORD PTR [rsp+64]
	add	rsp, 48					; 00000030H
	pop	rdi
	ret	0
$LN10@qt_static_:
; Line 90
	lea	rax, OFFSET FLAT:?result_call_send_progress@xResultCallThread@@QEAAXHVQString@@@Z ; xResultCallThread::result_call_send_progress
	cmp	rdx, rax
	jne	SHORT $LN11@qt_static_
; Line 91
	mov	DWORD PTR [rcx], 1
$LN11@qt_static_:
; Line 96
	mov	rbx, QWORD PTR [rsp+64]
	add	rsp, 48					; 00000030H
	pop	rdi
	ret	0
?qt_static_metacall@xResultCallThread@@CAXPEAVQObject@@W4Call@QMetaObject@@HPEAPEAX@Z ENDP ; xResultCallThread::qt_static_metacall
_TEXT	ENDS
; Function compile flags: /Ogtpy
;	COMDAT ?qt_metacall@xResultCallThread@@UEAAHW4Call@QMetaObject@@HPEAPEAX@Z
_TEXT	SEGMENT
this$ = 48
_c$ = 56
_id$ = 64
_a$ = 72
?qt_metacall@xResultCallThread@@UEAAHW4Call@QMetaObject@@HPEAPEAX@Z PROC ; xResultCallThread::qt_metacall, COMDAT
; File c:\xdynamics\xdynamics_gui\generatedfiles\release\moc_xresultcallthread.cpp
; Line 122
$LN10:
	mov	QWORD PTR [rsp+8], rbx
	mov	QWORD PTR [rsp+16], rbp
	mov	QWORD PTR [rsp+24], rsi
	push	rdi
	sub	rsp, 32					; 00000020H
	mov	rsi, r9
	mov	edi, edx
	mov	rbp, rcx
; Line 123
	call	QWORD PTR __imp_?qt_metacall@QThread@@UEAAHW4Call@QMetaObject@@HPEAPEAX@Z
	mov	ebx, eax
; Line 124
	test	eax, eax
	js	SHORT $LN1@qt_metacal
; Line 126
	test	edi, edi
	jne	SHORT $LN3@qt_metacal
; Line 127
	cmp	eax, 2
	jge	SHORT $LN7@qt_metacal
; Line 128
	mov	r9, rsi
	mov	r8d, eax
	xor	edx, edx
	mov	rcx, rbp
	call	?qt_static_metacall@xResultCallThread@@CAXPEAVQObject@@W4Call@QMetaObject@@HPEAPEAX@Z ; xResultCallThread::qt_static_metacall
; Line 129
	jmp	SHORT $LN7@qt_metacal
$LN3@qt_metacal:
; Line 130
	cmp	edi, 12
	jne	SHORT $LN6@qt_metacal
; Line 131
	cmp	ebx, 2
	jge	SHORT $LN7@qt_metacal
; Line 132
	mov	rax, QWORD PTR [rsi]
	mov	DWORD PTR [rax], -1
$LN7@qt_metacal:
; Line 135
	sub	ebx, 2
$LN6@qt_metacal:
	mov	eax, ebx
$LN1@qt_metacal:
; Line 136
	mov	rbx, QWORD PTR [rsp+48]
	mov	rbp, QWORD PTR [rsp+56]
	mov	rsi, QWORD PTR [rsp+64]
	add	rsp, 32					; 00000020H
	pop	rdi
	ret	0
?qt_metacall@xResultCallThread@@UEAAHW4Call@QMetaObject@@HPEAPEAX@Z ENDP ; xResultCallThread::qt_metacall
_TEXT	ENDS
; Function compile flags: /Ogtpy
;	COMDAT ?qt_metacast@xResultCallThread@@UEAAPEAXPEBD@Z
_TEXT	SEGMENT
this$ = 8
_clname$ = 16
?qt_metacast@xResultCallThread@@UEAAPEAXPEBD@Z PROC	; xResultCallThread::qt_metacast, COMDAT
; File c:\xdynamics\xdynamics_gui\generatedfiles\release\moc_xresultcallthread.cpp
; Line 114
	mov	r9, rdx
	mov	r10, rcx
; Line 115
	test	rdx, rdx
	jne	SHORT $LN2@qt_metacas
	xor	eax, eax
; Line 119
	ret	0
$LN2@qt_metacas:
; Line 116
	lea	r8, OFFSET FLAT:?qt_meta_stringdata_xResultCallThread@@3Uqt_meta_stringdata_xResultCallThread_t@@B+96
	mov	rax, r9
	sub	r8, r9
	npad	5
$LL5@qt_metacas:
	movzx	edx, BYTE PTR [rax]
	movzx	ecx, BYTE PTR [rax+r8]
	sub	edx, ecx
	jne	SHORT $LN6@qt_metacas
	inc	rax
	test	ecx, ecx
	jne	SHORT $LL5@qt_metacas
$LN6@qt_metacas:
	test	edx, edx
	jne	SHORT $LN3@qt_metacas
; Line 117
	mov	rax, r10
; Line 119
	ret	0
$LN3@qt_metacas:
; Line 118
	mov	rdx, r9
	mov	rcx, r10
	rex_jmp	QWORD PTR __imp_?qt_metacast@QThread@@UEAAPEAXPEBD@Z
?qt_metacast@xResultCallThread@@UEAAPEAXPEBD@Z ENDP	; xResultCallThread::qt_metacast
_TEXT	ENDS
; Function compile flags: /Ogtpy
;	COMDAT ?metaObject@xResultCallThread@@UEBAPEBUQMetaObject@@XZ
_TEXT	SEGMENT
this$ = 8
?metaObject@xResultCallThread@@UEBAPEBUQMetaObject@@XZ PROC ; xResultCallThread::metaObject, COMDAT
; File c:\xdynamics\xdynamics_gui\generatedfiles\release\moc_xresultcallthread.cpp
; Line 110
	mov	rcx, QWORD PTR [rcx+8]
	cmp	QWORD PTR [rcx+40], 0
	je	SHORT $LN3@metaObject
	rex_jmp	QWORD PTR __imp_?dynamicMetaObject@QObjectData@@QEBAPEAUQMetaObject@@XZ
$LN3@metaObject:
	lea	rax, OFFSET FLAT:?staticMetaObject@xResultCallThread@@2UQMetaObject@@B ; xResultCallThread::staticMetaObject
; Line 111
	ret	0
?metaObject@xResultCallThread@@UEBAPEBUQMetaObject@@XZ ENDP ; xResultCallThread::metaObject
_TEXT	ENDS
; Function compile flags: /Ogtpy
;	COMDAT ??C?$QScopedPointer@VQObjectData@@U?$QScopedPointerDeleter@VQObjectData@@@@@@QEBAPEAVQObjectData@@XZ
_TEXT	SEGMENT
this$ = 8
??C?$QScopedPointer@VQObjectData@@U?$QScopedPointerDeleter@VQObjectData@@@@@@QEBAPEAVQObjectData@@XZ PROC ; QScopedPointer<QObjectData,QScopedPointerDeleter<QObjectData> >::operator->, COMDAT
; File c:\qt\5.12.3\msvc2017_64\include\qtcore\qscopedpointer.h
; Line 118
	mov	rax, QWORD PTR [rcx]
; Line 119
	ret	0
??C?$QScopedPointer@VQObjectData@@U?$QScopedPointerDeleter@VQObjectData@@@@@@QEBAPEAVQObjectData@@XZ ENDP ; QScopedPointer<QObjectData,QScopedPointerDeleter<QObjectData> >::operator->
_TEXT	ENDS
END
