; Listing generated by Microsoft (R) Optimizing Compiler Version 19.16.27034.0 

include listing.inc

INCLUDELIB MSVCRT
INCLUDELIB OLDNAMES

EXTRN	__imp_?staticMetaObject@QWidget@@2UQMetaObject@@B:BYTE
CONST	SEGMENT
?qt_meta_stringdata_wpointmass@@3Uqt_meta_stringdata_wpointmass_t@@B DD 0ffffffffH ; qt_meta_stringdata_wpointmass
	DD	0aH
	DD	00H
	ORG $+4
	DQ	00000000000000a8H
	DD	0ffffffffH
	DD	01aH
	DD	00H
	ORG $+4
	DQ	000000000000009bH
	DD	0ffffffffH
	DD	00H
	DD	00H
	ORG $+4
	DQ	000000000000009eH
	DD	0ffffffffH
	DD	011H
	DD	00H
	ORG $+4
	DQ	0000000000000087H
	DD	0ffffffffH
	DD	0bH
	DD	00H
	ORG $+4
	DQ	0000000000000081H
	DD	0ffffffffH
	DD	03H
	DD	00H
	ORG $+4
	DQ	0000000000000075H
	DD	0ffffffffH
	DD	015H
	DD	00H
	ORG $+4
	DQ	0000000000000061H
	DB	077H
	DB	070H
	DB	06fH
	DB	069H
	DB	06eH
	DB	074H
	DB	06dH
	DB	061H
	DB	073H
	DB	073H
	DB	00H
	DB	063H
	DB	06cH
	DB	069H
	DB	063H
	DB	06bH
	DB	045H
	DB	06eH
	DB	061H
	DB	062H
	DB	06cH
	DB	065H
	DB	043H
	DB	06fH
	DB	06eH
	DB	06eH
	DB	065H
	DB	063H
	DB	074H
	DB	047H
	DB	065H
	DB	06fH
	DB	06dH
	DB	065H
	DB	074H
	DB	072H
	DB	079H
	DB	00H
	DB	00H
	DB	055H
	DB	070H
	DB	064H
	DB	061H
	DB	074H
	DB	065H
	DB	049H
	DB	06eH
	DB	066H
	DB	06fH
	DB	072H
	DB	06dH
	DB	061H
	DB	074H
	DB	069H
	DB	06fH
	DB	06eH
	DB	00H
	DB	078H
	DB	050H
	DB	06fH
	DB	069H
	DB	06eH
	DB	074H
	DB	04dH
	DB	061H
	DB	073H
	DB	073H
	DB	02aH
	DB	00H
	DB	078H
	DB	070H
	DB	06dH
	DB	00H
	DB	045H
	DB	06eH
	DB	061H
	DB	062H
	DB	06cH
	DB	065H
	DB	043H
	DB	06fH
	DB	06eH
	DB	06eH
	DB	065H
	DB	063H
	DB	074H
	DB	047H
	DB	065H
	DB	06fH
	DB	06dH
	DB	065H
	DB	074H
	DB	072H
	DB	079H
	DB	00H
	ORG $+1
	ORG $+8
?qt_meta_data_wpointmass@@3QBIB DD 08H			; qt_meta_data_wpointmass
	DD	00H
	DD	00H
	DD	00H
	DD	03H
	DD	0eH
	DD	00H
	DD	00H
	DD	00H
	DD	00H
	DD	00H
	DD	00H
	DD	00H
	DD	01H
	DD	01H
	DD	01H
	DD	01dH
	DD	02H
	DD	06H
	DD	03H
	DD	01H
	DD	020H
	DD	02H
	DD	0aH
	DD	06H
	DD	00H
	DD	023H
	DD	02H
	DD	08H
	DD	02bH
	DD	01H
	DD	02H
	DD	02bH
	DD	080000004H
	DD	05H
	DD	02bH
	DD	00H
CONST	ENDS
PUBLIC	?metaObject@wpointmass@@UEBAPEBUQMetaObject@@XZ	; wpointmass::metaObject
PUBLIC	?qt_metacast@wpointmass@@UEAAPEAXPEBD@Z		; wpointmass::qt_metacast
PUBLIC	?qt_metacall@wpointmass@@UEAAHW4Call@QMetaObject@@HPEAPEAX@Z ; wpointmass::qt_metacall
PUBLIC	?qt_static_metacall@wpointmass@@CAXPEAVQObject@@W4Call@QMetaObject@@HPEAPEAX@Z ; wpointmass::qt_static_metacall
PUBLIC	?clickEnableConnectGeometry@wpointmass@@QEAAX_N@Z ; wpointmass::clickEnableConnectGeometry
PUBLIC	?staticMetaObject@wpointmass@@2UQMetaObject@@B	; wpointmass::staticMetaObject
PUBLIC	??_C@_0P@OCAIBDGA@Ui?3?3wpointmass@		; `string'
EXTRN	__imp_?activate@QMetaObject@@SAXPEAVQObject@@PEBU1@HPEAPEAX@Z:PROC
EXTRN	__imp_?dynamicMetaObject@QObjectData@@QEBAPEAUQMetaObject@@XZ:PROC
EXTRN	__imp_?qt_metacast@QWidget@@UEAAPEAXPEBD@Z:PROC
EXTRN	__imp_?qt_metacall@QWidget@@UEAAHW4Call@QMetaObject@@HPEAPEAX@Z:PROC
EXTRN	?UpdateInformation@wpointmass@@QEAAXPEAVxPointMass@@@Z:PROC ; wpointmass::UpdateInformation
EXTRN	?EnableConnectGeometry@wpointmass@@AEAAXXZ:PROC	; wpointmass::EnableConnectGeometry
EXTRN	strcmp:PROC
;	COMDAT pdata
pdata	SEGMENT
$pdata$?qt_metacast@wpointmass@@UEAAPEAXPEBD@Z DD imagerel $LN11
	DD	imagerel $LN11+151
	DD	imagerel $unwind$?qt_metacast@wpointmass@@UEAAPEAXPEBD@Z
pdata	ENDS
;	COMDAT pdata
pdata	SEGMENT
$pdata$?qt_metacall@wpointmass@@UEAAHW4Call@QMetaObject@@HPEAPEAX@Z DD imagerel $LN10
	DD	imagerel $LN10+112
	DD	imagerel $unwind$?qt_metacall@wpointmass@@UEAAHW4Call@QMetaObject@@HPEAPEAX@Z
pdata	ENDS
;	COMDAT pdata
pdata	SEGMENT
$pdata$?qt_static_metacall@wpointmass@@CAXPEAVQObject@@W4Call@QMetaObject@@HPEAPEAX@Z DD imagerel $LN20
	DD	imagerel $LN20+165
	DD	imagerel $unwind$?qt_static_metacall@wpointmass@@CAXPEAVQObject@@W4Call@QMetaObject@@HPEAPEAX@Z
pdata	ENDS
;	COMDAT pdata
pdata	SEGMENT
$pdata$?clickEnableConnectGeometry@wpointmass@@QEAAX_N@Z DD imagerel $LN4
	DD	imagerel $LN4+53
	DD	imagerel $unwind$?clickEnableConnectGeometry@wpointmass@@QEAAX_N@Z
pdata	ENDS
CRT$XCU	SEGMENT
??staticMetaObject$initializer$@wpointmass@@2P6AXXZEA@@3P6AXXZEA DQ FLAT:??__E?staticMetaObject@wpointmass@@2UQMetaObject@@B@@YAXXZ ; ??staticMetaObject$initializer$@wpointmass@@2P6AXXZEA@@3P6AXXZEA
CRT$XCU	ENDS
;	COMDAT ??_C@_0P@OCAIBDGA@Ui?3?3wpointmass@
CONST	SEGMENT
??_C@_0P@OCAIBDGA@Ui?3?3wpointmass@ DB 'Ui::wpointmass', 00H ; `string'
CONST	ENDS
_DATA	SEGMENT
?staticMetaObject@wpointmass@@2UQMetaObject@@B DB 8 DUP(00H) ; wpointmass::staticMetaObject
	DQ	FLAT:?qt_meta_stringdata_wpointmass@@3Uqt_meta_stringdata_wpointmass_t@@B
	DQ	FLAT:?qt_meta_data_wpointmass@@3QBIB
	DQ	FLAT:?qt_static_metacall@wpointmass@@CAXPEAVQObject@@W4Call@QMetaObject@@HPEAPEAX@Z
	DQ	0000000000000000H
	DQ	0000000000000000H
_DATA	ENDS
;	COMDAT xdata
xdata	SEGMENT
$unwind$?clickEnableConnectGeometry@wpointmass@@QEAAX_N@Z DD 010801H
	DD	06208H
xdata	ENDS
;	COMDAT xdata
xdata	SEGMENT
$unwind$?qt_static_metacall@wpointmass@@CAXPEAVQObject@@W4Call@QMetaObject@@HPEAPEAX@Z DD 010401H
	DD	06204H
xdata	ENDS
;	COMDAT xdata
xdata	SEGMENT
$unwind$?qt_metacall@wpointmass@@UEAAHW4Call@QMetaObject@@HPEAPEAX@Z DD 081401H
	DD	086414H
	DD	075414H
	DD	063414H
	DD	070103214H
xdata	ENDS
;	COMDAT xdata
xdata	SEGMENT
$unwind$?qt_metacast@wpointmass@@UEAAPEAXPEBD@Z DD 040a01H
	DD	06340aH
	DD	07006320aH
xdata	ENDS
; Function compile flags: /Ogtpy
;	COMDAT ??__E?staticMetaObject@wpointmass@@2UQMetaObject@@B@@YAXXZ
text$di	SEGMENT
??__E?staticMetaObject@wpointmass@@2UQMetaObject@@B@@YAXXZ PROC ; `dynamic initializer for 'wpointmass::staticMetaObject'', COMDAT
; File c:\xdynamics\xdynamics_gui\generatedfiles\release\moc_xpointmasswidget.cpp
; Line 103
	mov	rax, QWORD PTR __imp_?staticMetaObject@QWidget@@2UQMetaObject@@B
	mov	QWORD PTR ?staticMetaObject@wpointmass@@2UQMetaObject@@B, rax
; Line 108
	ret	0
??__E?staticMetaObject@wpointmass@@2UQMetaObject@@B@@YAXXZ ENDP ; `dynamic initializer for 'wpointmass::staticMetaObject''
text$di	ENDS
; Function compile flags: /Ogtpy
;	COMDAT ?clickEnableConnectGeometry@wpointmass@@QEAAX_N@Z
_TEXT	SEGMENT
_a$ = 32
this$ = 64
_t1$ = 72
?clickEnableConnectGeometry@wpointmass@@QEAAX_N@Z PROC	; wpointmass::clickEnableConnectGeometry, COMDAT
; File c:\xdynamics\xdynamics_gui\generatedfiles\release\moc_xpointmasswidget.cpp
; Line 146
$LN4:
	mov	BYTE PTR [rsp+16], dl
	sub	rsp, 56					; 00000038H
; Line 147
	lea	rax, QWORD PTR _t1$[rsp]
	mov	QWORD PTR _a$[rsp], 0
; Line 148
	lea	r9, QWORD PTR _a$[rsp]
	mov	QWORD PTR _a$[rsp+8], rax
	xor	r8d, r8d
	lea	rdx, OFFSET FLAT:?staticMetaObject@wpointmass@@2UQMetaObject@@B ; wpointmass::staticMetaObject
	call	QWORD PTR __imp_?activate@QMetaObject@@SAXPEAVQObject@@PEBU1@HPEAPEAX@Z
; Line 149
	add	rsp, 56					; 00000038H
	ret	0
?clickEnableConnectGeometry@wpointmass@@QEAAX_N@Z ENDP	; wpointmass::clickEnableConnectGeometry
_TEXT	ENDS
; Function compile flags: /Ogtpy
;	COMDAT ?qt_static_metacall@wpointmass@@CAXPEAVQObject@@W4Call@QMetaObject@@HPEAPEAX@Z
_TEXT	SEGMENT
_a$1 = 32
_o$ = 64
_t1$ = 72
_c$ = 72
_id$ = 80
_a$ = 88
?qt_static_metacall@wpointmass@@CAXPEAVQObject@@W4Call@QMetaObject@@HPEAPEAX@Z PROC ; wpointmass::qt_static_metacall, COMDAT
; File c:\xdynamics\xdynamics_gui\generatedfiles\release\moc_xpointmasswidget.cpp
; Line 80
$LN20:
	sub	rsp, 56					; 00000038H
	mov	r10, rcx
; Line 81
	test	edx, edx
	jne	SHORT $LN4@qt_static_
; Line 84
	test	r8d, r8d
	je	SHORT $LN6@qt_static_
	sub	r8d, 1
	je	SHORT $LN7@qt_static_
	cmp	r8d, 1
	jne	$LN11@qt_static_
; Line 100
	add	rsp, 56					; 00000038H
; Line 87
	jmp	?EnableConnectGeometry@wpointmass@@AEAAXXZ ; wpointmass::EnableConnectGeometry
$LN7@qt_static_:
; Line 86
	mov	rdx, QWORD PTR [r9+8]
	mov	rdx, QWORD PTR [rdx]
; Line 100
	add	rsp, 56					; 00000038H
; Line 86
	jmp	?UpdateInformation@wpointmass@@QEAAXPEAVxPointMass@@@Z ; wpointmass::UpdateInformation
$LN6@qt_static_:
; Line 85
	mov	rax, QWORD PTR [r9+8]
; Line 148
	lea	rdx, OFFSET FLAT:?staticMetaObject@wpointmass@@2UQMetaObject@@B ; wpointmass::staticMetaObject
	lea	r9, QWORD PTR _a$1[rsp]
	mov	QWORD PTR _a$1[rsp], 0
	xor	r8d, r8d
; Line 85
	movzx	ecx, BYTE PTR [rax]
; Line 147
	lea	rax, QWORD PTR _t1$[rsp]
; Line 85
	mov	BYTE PTR _t1$[rsp], cl
; Line 148
	mov	rcx, r10
	mov	QWORD PTR _a$1[rsp+8], rax
	call	QWORD PTR __imp_?activate@QMetaObject@@SAXPEAVQObject@@PEBU1@HPEAPEAX@Z
; Line 100
	add	rsp, 56					; 00000038H
	ret	0
$LN4@qt_static_:
; Line 90
	cmp	edx, 10
	jne	SHORT $LN11@qt_static_
; Line 94
	mov	rax, QWORD PTR [r9+8]
	lea	r8, OFFSET FLAT:?clickEnableConnectGeometry@wpointmass@@QEAAX_N@Z ; wpointmass::clickEnableConnectGeometry
	mov	rdx, QWORD PTR [r9]
	mov	rcx, QWORD PTR [rax]
	cmp	rcx, r8
	jne	SHORT $LN11@qt_static_
	test	rcx, rcx
	je	SHORT $LN18@qt_static_
	cmp	DWORD PTR [rax+8], 0
	jne	SHORT $LN11@qt_static_
$LN18@qt_static_:
; Line 95
	mov	DWORD PTR [rdx], 0
$LN11@qt_static_:
; Line 100
	add	rsp, 56					; 00000038H
	ret	0
?qt_static_metacall@wpointmass@@CAXPEAVQObject@@W4Call@QMetaObject@@HPEAPEAX@Z ENDP ; wpointmass::qt_static_metacall
_TEXT	ENDS
; Function compile flags: /Ogtpy
;	COMDAT ?qt_metacall@wpointmass@@UEAAHW4Call@QMetaObject@@HPEAPEAX@Z
_TEXT	SEGMENT
this$ = 48
_c$ = 56
_id$ = 64
_a$ = 72
?qt_metacall@wpointmass@@UEAAHW4Call@QMetaObject@@HPEAPEAX@Z PROC ; wpointmass::qt_metacall, COMDAT
; File c:\xdynamics\xdynamics_gui\generatedfiles\release\moc_xpointmasswidget.cpp
; Line 128
$LN10:
	mov	QWORD PTR [rsp+8], rbx
	mov	QWORD PTR [rsp+16], rbp
	mov	QWORD PTR [rsp+24], rsi
	push	rdi
	sub	rsp, 32					; 00000020H
	mov	rsi, r9
	mov	edi, edx
	mov	rbp, rcx
; Line 129
	call	QWORD PTR __imp_?qt_metacall@QWidget@@UEAAHW4Call@QMetaObject@@HPEAPEAX@Z
	mov	ebx, eax
; Line 130
	test	eax, eax
	js	SHORT $LN1@qt_metacal
; Line 132
	test	edi, edi
	jne	SHORT $LN3@qt_metacal
; Line 133
	cmp	eax, 3
	jge	SHORT $LN7@qt_metacal
; Line 134
	mov	r9, rsi
	mov	r8d, eax
	xor	edx, edx
	mov	rcx, rbp
	call	?qt_static_metacall@wpointmass@@CAXPEAVQObject@@W4Call@QMetaObject@@HPEAPEAX@Z ; wpointmass::qt_static_metacall
; Line 135
	jmp	SHORT $LN7@qt_metacal
$LN3@qt_metacal:
; Line 136
	cmp	edi, 12
	jne	SHORT $LN6@qt_metacal
; Line 137
	cmp	ebx, 3
	jge	SHORT $LN7@qt_metacal
; Line 138
	mov	rax, QWORD PTR [rsi]
	mov	DWORD PTR [rax], -1
$LN7@qt_metacal:
; Line 141
	sub	ebx, 3
$LN6@qt_metacal:
	mov	eax, ebx
$LN1@qt_metacal:
; Line 142
	mov	rbx, QWORD PTR [rsp+48]
	mov	rbp, QWORD PTR [rsp+56]
	mov	rsi, QWORD PTR [rsp+64]
	add	rsp, 32					; 00000020H
	pop	rdi
	ret	0
?qt_metacall@wpointmass@@UEAAHW4Call@QMetaObject@@HPEAPEAX@Z ENDP ; wpointmass::qt_metacall
_TEXT	ENDS
; Function compile flags: /Ogtpy
;	COMDAT ?qt_metacast@wpointmass@@UEAAPEAXPEBD@Z
_TEXT	SEGMENT
this$ = 48
_clname$ = 56
?qt_metacast@wpointmass@@UEAAPEAXPEBD@Z PROC		; wpointmass::qt_metacast, COMDAT
; File c:\xdynamics\xdynamics_gui\generatedfiles\release\moc_xpointmasswidget.cpp
; Line 118
$LN11:
	mov	QWORD PTR [rsp+8], rbx
	push	rdi
	sub	rsp, 32					; 00000020H
	mov	rdi, rdx
	mov	rbx, rcx
; Line 119
	test	rdx, rdx
	jne	SHORT $LN2@qt_metacas
	xor	eax, eax
; Line 125
	mov	rbx, QWORD PTR [rsp+48]
	add	rsp, 32					; 00000020H
	pop	rdi
	ret	0
$LN2@qt_metacas:
; Line 120
	lea	r8, OFFSET FLAT:?qt_meta_stringdata_wpointmass@@3Uqt_meta_stringdata_wpointmass_t@@B+168
	mov	rax, rdi
	sub	r8, rdi
	npad	1
$LL8@qt_metacas:
	movzx	edx, BYTE PTR [rax]
	movzx	ecx, BYTE PTR [rax+r8]
	sub	edx, ecx
	jne	SHORT $LN9@qt_metacas
	inc	rax
	test	ecx, ecx
	jne	SHORT $LL8@qt_metacas
$LN9@qt_metacas:
	test	edx, edx
	jne	SHORT $LN3@qt_metacas
; Line 121
	mov	rax, rbx
; Line 125
	mov	rbx, QWORD PTR [rsp+48]
	add	rsp, 32					; 00000020H
	pop	rdi
	ret	0
$LN3@qt_metacas:
; Line 122
	lea	rdx, OFFSET FLAT:??_C@_0P@OCAIBDGA@Ui?3?3wpointmass@
	mov	rcx, rdi
	call	strcmp
	test	eax, eax
	jne	SHORT $LN4@qt_metacas
; Line 123
	xor	ecx, ecx
	lea	rax, QWORD PTR [rbx+48]
	test	rbx, rbx
	cmove	rax, rcx
; Line 125
	mov	rbx, QWORD PTR [rsp+48]
	add	rsp, 32					; 00000020H
	pop	rdi
	ret	0
$LN4@qt_metacas:
; Line 124
	mov	rdx, rdi
	mov	rcx, rbx
; Line 125
	mov	rbx, QWORD PTR [rsp+48]
	add	rsp, 32					; 00000020H
	pop	rdi
; Line 124
	rex_jmp	QWORD PTR __imp_?qt_metacast@QWidget@@UEAAPEAXPEBD@Z
?qt_metacast@wpointmass@@UEAAPEAXPEBD@Z ENDP		; wpointmass::qt_metacast
_TEXT	ENDS
; Function compile flags: /Ogtpy
;	COMDAT ?metaObject@wpointmass@@UEBAPEBUQMetaObject@@XZ
_TEXT	SEGMENT
this$ = 8
?metaObject@wpointmass@@UEBAPEBUQMetaObject@@XZ PROC	; wpointmass::metaObject, COMDAT
; File c:\xdynamics\xdynamics_gui\generatedfiles\release\moc_xpointmasswidget.cpp
; Line 114
	mov	rcx, QWORD PTR [rcx+8]
	cmp	QWORD PTR [rcx+40], 0
	je	SHORT $LN3@metaObject
	rex_jmp	QWORD PTR __imp_?dynamicMetaObject@QObjectData@@QEBAPEAUQMetaObject@@XZ
$LN3@metaObject:
	lea	rax, OFFSET FLAT:?staticMetaObject@wpointmass@@2UQMetaObject@@B ; wpointmass::staticMetaObject
; Line 115
	ret	0
?metaObject@wpointmass@@UEBAPEBUQMetaObject@@XZ ENDP	; wpointmass::metaObject
_TEXT	ENDS
; Function compile flags: /Ogtpy
;	COMDAT ??C?$QScopedPointer@VQObjectData@@U?$QScopedPointerDeleter@VQObjectData@@@@@@QEBAPEAVQObjectData@@XZ
_TEXT	SEGMENT
this$ = 8
??C?$QScopedPointer@VQObjectData@@U?$QScopedPointerDeleter@VQObjectData@@@@@@QEBAPEAVQObjectData@@XZ PROC ; QScopedPointer<QObjectData,QScopedPointerDeleter<QObjectData> >::operator->, COMDAT
; File c:\qt\5.12.3\msvc2017_64\include\qtcore\qscopedpointer.h
; Line 118
	mov	rax, QWORD PTR [rcx]
; Line 119
	ret	0
??C?$QScopedPointer@VQObjectData@@U?$QScopedPointerDeleter@VQObjectData@@@@@@QEBAPEAVQObjectData@@XZ ENDP ; QScopedPointer<QObjectData,QScopedPointerDeleter<QObjectData> >::operator->
_TEXT	ENDS
END
