; Listing generated by Microsoft (R) Optimizing Compiler Version 19.16.27034.0 

include listing.inc

INCLUDELIB MSVCRT
INCLUDELIB OLDNAMES

EXTRN	__imp_?staticMetaObject@QWidget@@2UQMetaObject@@B:BYTE
CONST	SEGMENT
?qt_meta_stringdata_wsimulation@@3Uqt_meta_stringdata_wsimulation_t@@B DD 0ffffffffH ; qt_meta_stringdata_wsimulation
	DD	0bH
	DD	00H
	ORG $+4
	DQ	00000000000000c0H
	DD	0ffffffffH
	DD	012H
	DD	00H
	ORG $+4
	DQ	00000000000000b4H
	DD	0ffffffffH
	DD	00H
	DD	00H
	ORG $+4
	DQ	00000000000000afH
	DD	0ffffffffH
	DD	017H
	DD	00H
	ORG $+4
	DQ	0000000000000098H
	DD	0ffffffffH
	DD	011H
	DD	00H
	ORG $+4
	DQ	0000000000000098H
	DD	0ffffffffH
	DD	0bH
	DD	00H
	ORG $+4
	DQ	0000000000000092H
	DD	0ffffffffH
	DD	013H
	DD	00H
	ORG $+4
	DQ	0000000000000086H
	DD	0ffffffffH
	DD	012H
	DD	00H
	ORG $+4
	DQ	0000000000000082H
	DB	077H
	DB	073H
	DB	069H
	DB	06dH
	DB	075H
	DB	06cH
	DB	061H
	DB	074H
	DB	069H
	DB	06fH
	DB	06eH
	DB	00H
	DB	063H
	DB	06cH
	DB	069H
	DB	063H
	DB	06bH
	DB	065H
	DB	064H
	DB	053H
	DB	06fH
	DB	06cH
	DB	076H
	DB	065H
	DB	042H
	DB	075H
	DB	074H
	DB	074H
	DB	06fH
	DB	06eH
	DB	00H
	DB	00H
	DB	063H
	DB	06cH
	DB	069H
	DB	063H
	DB	06bH
	DB	065H
	DB	064H
	DB	053H
	DB	074H
	DB	061H
	DB	072H
	DB	074H
	DB	050H
	DB	06fH
	DB	069H
	DB	06eH
	DB	074H
	DB	042H
	DB	075H
	DB	074H
	DB	074H
	DB	06fH
	DB	06eH
	DB	00H
	DB	055H
	DB	070H
	DB	064H
	DB	061H
	DB	074H
	DB	065H
	DB	049H
	DB	06eH
	DB	066H
	DB	06fH
	DB	072H
	DB	06dH
	DB	061H
	DB	074H
	DB	069H
	DB	06fH
	DB	06eH
	DB	00H
	DB	053H
	DB	06fH
	DB	06cH
	DB	076H
	DB	065H
	DB	042H
	DB	075H
	DB	074H
	DB	074H
	DB	06fH
	DB	06eH
	DB	00H
	DB	053H
	DB	074H
	DB	061H
	DB	072H
	DB	074H
	DB	069H
	DB	06eH
	DB	067H
	DB	050H
	DB	06fH
	DB	069H
	DB	06eH
	DB	074H
	DB	042H
	DB	075H
	DB	074H
	DB	074H
	DB	06fH
	DB	06eH
	DB	00H
	DB	043H
	DB	068H
	DB	065H
	DB	063H
	DB	06bH
	DB	053H
	DB	074H
	DB	061H
	DB	072H
	DB	074H
	DB	069H
	DB	06eH
	DB	067H
	DB	050H
	DB	06fH
	DB	069H
	DB	06eH
	DB	074H
	DB	00H
	ORG $+3
?qt_meta_data_wsimulation@@3QBIB DD 08H			; qt_meta_data_wsimulation
	DD	00H
	DD	00H
	DD	00H
	DD	06H
	DD	0eH
	DD	00H
	DD	00H
	DD	00H
	DD	00H
	DD	00H
	DD	00H
	DD	00H
	DD	02H
	DD	01H
	DD	03H
	DD	02cH
	DD	02H
	DD	06H
	DD	03H
	DD	00H
	DD	033H
	DD	02H
	DD	06H
	DD	04H
	DD	00H
	DD	034H
	DD	02H
	DD	0aH
	DD	05H
	DD	00H
	DD	035H
	DD	02H
	DD	08H
	DD	06H
	DD	00H
	DD	036H
	DD	02H
	DD	08H
	DD	07H
	DD	01H
	DD	037H
	DD	02H
	DD	08H
	DD	02bH
	DD	06H
	DD	03H
	DD	06H
	DD	02H
	DD	02H
	DD	02H
	DD	02bH
	DD	02bH
	DD	02bH
	DD	02bH
	DD	02bH
	DD	01H
	DD	02H
	DD	00H
CONST	ENDS
PUBLIC	?metaObject@wsimulation@@UEBAPEBUQMetaObject@@XZ ; wsimulation::metaObject
PUBLIC	?qt_metacast@wsimulation@@UEAAPEAXPEBD@Z	; wsimulation::qt_metacast
PUBLIC	?qt_metacall@wsimulation@@UEAAHW4Call@QMetaObject@@HPEAPEAX@Z ; wsimulation::qt_metacall
PUBLIC	?qt_static_metacall@wsimulation@@CAXPEAVQObject@@W4Call@QMetaObject@@HPEAPEAX@Z ; wsimulation::qt_static_metacall
PUBLIC	?clickedSolveButton@wsimulation@@QEAAXNIN@Z	; wsimulation::clickedSolveButton
PUBLIC	?clickedStartPointButton@wsimulation@@QEAAXXZ	; wsimulation::clickedStartPointButton
PUBLIC	?staticMetaObject@wsimulation@@2UQMetaObject@@B	; wsimulation::staticMetaObject
PUBLIC	??_C@_0BA@PPIEKCJK@Ui?3?3wsimulation@		; `string'
EXTRN	__imp_?activate@QMetaObject@@SAXPEAVQObject@@PEBU1@HPEAPEAX@Z:PROC
EXTRN	__imp_?dynamicMetaObject@QObjectData@@QEBAPEAUQMetaObject@@XZ:PROC
EXTRN	__imp_?qt_metacast@QWidget@@UEAAPEAXPEBD@Z:PROC
EXTRN	__imp_?qt_metacall@QWidget@@UEAAHW4Call@QMetaObject@@HPEAPEAX@Z:PROC
EXTRN	?UpdateInformation@wsimulation@@QEAAXXZ:PROC	; wsimulation::UpdateInformation
EXTRN	?SolveButton@wsimulation@@AEAAXXZ:PROC		; wsimulation::SolveButton
EXTRN	?StartingPointButton@wsimulation@@AEAAXXZ:PROC	; wsimulation::StartingPointButton
EXTRN	?CheckStartingPoint@wsimulation@@AEAAX_N@Z:PROC	; wsimulation::CheckStartingPoint
EXTRN	__GSHandlerCheck:PROC
EXTRN	__security_check_cookie:PROC
EXTRN	strcmp:PROC
EXTRN	__ImageBase:BYTE
EXTRN	__security_cookie:QWORD
EXTRN	_fltused:DWORD
;	COMDAT pdata
pdata	SEGMENT
$pdata$?qt_metacast@wsimulation@@UEAAPEAXPEBD@Z DD imagerel $LN11
	DD	imagerel $LN11+151
	DD	imagerel $unwind$?qt_metacast@wsimulation@@UEAAPEAXPEBD@Z
pdata	ENDS
;	COMDAT pdata
pdata	SEGMENT
$pdata$?qt_metacall@wsimulation@@UEAAHW4Call@QMetaObject@@HPEAPEAX@Z DD imagerel $LN10
	DD	imagerel $LN10+112
	DD	imagerel $unwind$?qt_metacall@wsimulation@@UEAAHW4Call@QMetaObject@@HPEAPEAX@Z
pdata	ENDS
;	COMDAT pdata
pdata	SEGMENT
$pdata$?clickedSolveButton@wsimulation@@QEAAXNIN@Z DD imagerel $LN4
	DD	imagerel $LN4+108
	DD	imagerel $unwind$?clickedSolveButton@wsimulation@@QEAAXNIN@Z
pdata	ENDS
CRT$XCU	SEGMENT
??staticMetaObject$initializer$@wsimulation@@2P6AXXZEA@@3P6AXXZEA DQ FLAT:??__E?staticMetaObject@wsimulation@@2UQMetaObject@@B@@YAXXZ ; ??staticMetaObject$initializer$@wsimulation@@2P6AXXZEA@@3P6AXXZEA
CRT$XCU	ENDS
;	COMDAT ??_C@_0BA@PPIEKCJK@Ui?3?3wsimulation@
CONST	SEGMENT
??_C@_0BA@PPIEKCJK@Ui?3?3wsimulation@ DB 'Ui::wsimulation', 00H ; `string'
CONST	ENDS
_DATA	SEGMENT
?staticMetaObject@wsimulation@@2UQMetaObject@@B DB 8 DUP(00H) ; wsimulation::staticMetaObject
	DQ	FLAT:?qt_meta_stringdata_wsimulation@@3Uqt_meta_stringdata_wsimulation_t@@B
	DQ	FLAT:?qt_meta_data_wsimulation@@3QBIB
	DQ	FLAT:?qt_static_metacall@wsimulation@@CAXPEAVQObject@@W4Call@QMetaObject@@HPEAPEAX@Z
	DQ	0000000000000000H
	DQ	0000000000000000H
_DATA	ENDS
;	COMDAT xdata
xdata	SEGMENT
$unwind$?clickedSolveButton@wsimulation@@QEAAXNIN@Z DD 011619H
	DD	0c207H
	DD	imagerel __GSHandlerCheck
	DD	058H
xdata	ENDS
;	COMDAT xdata
xdata	SEGMENT
$unwind$?qt_metacall@wsimulation@@UEAAHW4Call@QMetaObject@@HPEAPEAX@Z DD 081401H
	DD	086414H
	DD	075414H
	DD	063414H
	DD	070103214H
xdata	ENDS
;	COMDAT xdata
xdata	SEGMENT
$unwind$?qt_metacast@wsimulation@@UEAAPEAXPEBD@Z DD 040a01H
	DD	06340aH
	DD	07006320aH
xdata	ENDS
; Function compile flags: /Ogtpy
;	COMDAT ??__E?staticMetaObject@wsimulation@@2UQMetaObject@@B@@YAXXZ
text$di	SEGMENT
??__E?staticMetaObject@wsimulation@@2UQMetaObject@@B@@YAXXZ PROC ; `dynamic initializer for 'wsimulation::staticMetaObject'', COMDAT
; File c:\xdynamics\xdynamics_gui\generatedfiles\release\moc_xsimulationwidget.cpp
; Line 121
	mov	rax, QWORD PTR __imp_?staticMetaObject@QWidget@@2UQMetaObject@@B
	mov	QWORD PTR ?staticMetaObject@wsimulation@@2UQMetaObject@@B, rax
; Line 126
	ret	0
??__E?staticMetaObject@wsimulation@@2UQMetaObject@@B@@YAXXZ ENDP ; `dynamic initializer for 'wsimulation::staticMetaObject''
text$di	ENDS
; Function compile flags: /Ogtpy
;	COMDAT ?clickedStartPointButton@wsimulation@@QEAAXXZ
_TEXT	SEGMENT
this$ = 8
?clickedStartPointButton@wsimulation@@QEAAXXZ PROC	; wsimulation::clickedStartPointButton, COMDAT
; File c:\xdynamics\xdynamics_gui\generatedfiles\release\moc_xsimulationwidget.cpp
; Line 172
	xor	r9d, r9d
	lea	rdx, OFFSET FLAT:?staticMetaObject@wsimulation@@2UQMetaObject@@B ; wsimulation::staticMetaObject
	lea	r8d, QWORD PTR [r9+1]
	rex_jmp	QWORD PTR __imp_?activate@QMetaObject@@SAXPEAVQObject@@PEBU1@HPEAPEAX@Z
?clickedStartPointButton@wsimulation@@QEAAXXZ ENDP	; wsimulation::clickedStartPointButton
_TEXT	ENDS
; Function compile flags: /Ogtpy
;	COMDAT ?clickedSolveButton@wsimulation@@QEAAXNIN@Z
_TEXT	SEGMENT
_t1$GSCopy$ = 40
_t3$GSCopy$ = 48
__$ArrayPad$ = 88
this$ = 112
_t1$ = 120
_t2$ = 128
_t3$ = 136
?clickedSolveButton@wsimulation@@QEAAXNIN@Z PROC	; wsimulation::clickedSolveButton, COMDAT
; File c:\xdynamics\xdynamics_gui\generatedfiles\release\moc_xsimulationwidget.cpp
; Line 164
$LN4:
	mov	r11, rsp
	sub	rsp, 104				; 00000068H
	mov	rax, QWORD PTR __security_cookie
	xor	rax, rsp
	mov	QWORD PTR __$ArrayPad$[rsp], rax
; Line 165
	lea	rax, QWORD PTR [r11-64]
	movsd	QWORD PTR _t1$GSCopy$[rsp], xmm1
	mov	DWORD PTR [r11-72], r8d
; Line 166
	lea	r9, QWORD PTR [r11-48]
	mov	QWORD PTR [r11-40], rax
	lea	rdx, OFFSET FLAT:?staticMetaObject@wsimulation@@2UQMetaObject@@B ; wsimulation::staticMetaObject
	lea	rax, QWORD PTR [r11-72]
	movsd	QWORD PTR _t3$GSCopy$[rsp], xmm3
	mov	QWORD PTR [r11-32], rax
	xor	r8d, r8d
	lea	rax, QWORD PTR [r11-56]
	mov	QWORD PTR [r11-48], 0
	mov	QWORD PTR [r11-24], rax
	call	QWORD PTR __imp_?activate@QMetaObject@@SAXPEAVQObject@@PEBU1@HPEAPEAX@Z
; Line 167
	mov	rcx, QWORD PTR __$ArrayPad$[rsp]
	xor	rcx, rsp
	call	__security_check_cookie
	add	rsp, 104				; 00000068H
	ret	0
?clickedSolveButton@wsimulation@@QEAAXNIN@Z ENDP	; wsimulation::clickedSolveButton
_TEXT	ENDS
; Function compile flags: /Ogtpy
;	COMDAT ?qt_static_metacall@wsimulation@@CAXPEAVQObject@@W4Call@QMetaObject@@HPEAPEAX@Z
_TEXT	SEGMENT
_o$ = 8
_c$ = 16
_id$ = 24
_a$ = 32
?qt_static_metacall@wsimulation@@CAXPEAVQObject@@W4Call@QMetaObject@@HPEAPEAX@Z PROC ; wsimulation::qt_static_metacall, COMDAT
; File c:\xdynamics\xdynamics_gui\generatedfiles\release\moc_xsimulationwidget.cpp
; Line 88
	mov	r10, rcx
; Line 89
	test	edx, edx
	jne	SHORT $LN4@qt_static_
; Line 92
	cmp	r8d, 5
	ja	$LN15@qt_static_
	lea	rcx, OFFSET FLAT:__ImageBase
	movsxd	rax, r8d
	mov	edx, DWORD PTR $LN30@qt_static_[rcx+rax*4]
	add	rdx, rcx
	jmp	rdx
$LN6@qt_static_:
; Line 93
	mov	rcx, QWORD PTR [r9+16]
	mov	rax, QWORD PTR [r9+24]
	mov	rdx, QWORD PTR [r9+8]
	mov	r8d, DWORD PTR [rcx]
	mov	rcx, r10
	movsd	xmm3, QWORD PTR [rax]
	movsd	xmm1, QWORD PTR [rdx]
	jmp	?clickedSolveButton@wsimulation@@QEAAXNIN@Z ; wsimulation::clickedSolveButton
$LN7@qt_static_:
; Line 172
	xor	r9d, r9d
	lea	rdx, OFFSET FLAT:?staticMetaObject@wsimulation@@2UQMetaObject@@B ; wsimulation::staticMetaObject
	mov	rcx, r10
	lea	r8d, QWORD PTR [r9+1]
	rex_jmp	QWORD PTR __imp_?activate@QMetaObject@@SAXPEAVQObject@@PEBU1@HPEAPEAX@Z
$LN8@qt_static_:
; Line 95
	mov	rcx, r10
	jmp	?UpdateInformation@wsimulation@@QEAAXXZ	; wsimulation::UpdateInformation
$LN9@qt_static_:
; Line 96
	mov	rcx, r10
	jmp	?SolveButton@wsimulation@@AEAAXXZ	; wsimulation::SolveButton
$LN10@qt_static_:
; Line 97
	mov	rcx, r10
	jmp	?StartingPointButton@wsimulation@@AEAAXXZ ; wsimulation::StartingPointButton
$LN11@qt_static_:
; Line 98
	mov	rax, QWORD PTR [r9+8]
	mov	rcx, r10
	movzx	edx, BYTE PTR [rax]
	jmp	?CheckStartingPoint@wsimulation@@AEAAX_N@Z ; wsimulation::CheckStartingPoint
$LN4@qt_static_:
; Line 101
	cmp	edx, 10
	jne	SHORT $LN15@qt_static_
; Line 105
	mov	rcx, QWORD PTR [r9+8]
	lea	r8, OFFSET FLAT:?clickedSolveButton@wsimulation@@QEAAXNIN@Z ; wsimulation::clickedSolveButton
	mov	rdx, QWORD PTR [r9]
	mov	rax, QWORD PTR [rcx]
	cmp	rax, r8
	jne	SHORT $LN14@qt_static_
	test	rax, rax
	je	SHORT $LN27@qt_static_
	cmp	DWORD PTR [rcx+8], 0
	jne	SHORT $LN14@qt_static_
$LN27@qt_static_:
; Line 106
	mov	DWORD PTR [rdx], 0
; Line 118
	ret	0
$LN14@qt_static_:
; Line 112
	lea	r8, OFFSET FLAT:?clickedStartPointButton@wsimulation@@QEAAXXZ ; wsimulation::clickedStartPointButton
	cmp	rax, r8
	jne	SHORT $LN15@qt_static_
	test	rax, rax
	je	SHORT $LN28@qt_static_
	cmp	DWORD PTR [rcx+8], 0
	jne	SHORT $LN15@qt_static_
$LN28@qt_static_:
; Line 113
	mov	DWORD PTR [rdx], 1
$LN15@qt_static_:
; Line 118
	ret	0
$LN30@qt_static_:
	DD	$LN6@qt_static_
	DD	$LN7@qt_static_
	DD	$LN8@qt_static_
	DD	$LN9@qt_static_
	DD	$LN10@qt_static_
	DD	$LN11@qt_static_
?qt_static_metacall@wsimulation@@CAXPEAVQObject@@W4Call@QMetaObject@@HPEAPEAX@Z ENDP ; wsimulation::qt_static_metacall
_TEXT	ENDS
; Function compile flags: /Ogtpy
;	COMDAT ?qt_metacall@wsimulation@@UEAAHW4Call@QMetaObject@@HPEAPEAX@Z
_TEXT	SEGMENT
this$ = 48
_c$ = 56
_id$ = 64
_a$ = 72
?qt_metacall@wsimulation@@UEAAHW4Call@QMetaObject@@HPEAPEAX@Z PROC ; wsimulation::qt_metacall, COMDAT
; File c:\xdynamics\xdynamics_gui\generatedfiles\release\moc_xsimulationwidget.cpp
; Line 146
$LN10:
	mov	QWORD PTR [rsp+8], rbx
	mov	QWORD PTR [rsp+16], rbp
	mov	QWORD PTR [rsp+24], rsi
	push	rdi
	sub	rsp, 32					; 00000020H
	mov	rsi, r9
	mov	edi, edx
	mov	rbp, rcx
; Line 147
	call	QWORD PTR __imp_?qt_metacall@QWidget@@UEAAHW4Call@QMetaObject@@HPEAPEAX@Z
	mov	ebx, eax
; Line 148
	test	eax, eax
	js	SHORT $LN1@qt_metacal
; Line 150
	test	edi, edi
	jne	SHORT $LN3@qt_metacal
; Line 151
	cmp	eax, 6
	jge	SHORT $LN7@qt_metacal
; Line 152
	mov	r9, rsi
	mov	r8d, eax
	xor	edx, edx
	mov	rcx, rbp
	call	?qt_static_metacall@wsimulation@@CAXPEAVQObject@@W4Call@QMetaObject@@HPEAPEAX@Z ; wsimulation::qt_static_metacall
; Line 153
	jmp	SHORT $LN7@qt_metacal
$LN3@qt_metacal:
; Line 154
	cmp	edi, 12
	jne	SHORT $LN6@qt_metacal
; Line 155
	cmp	ebx, 6
	jge	SHORT $LN7@qt_metacal
; Line 156
	mov	rax, QWORD PTR [rsi]
	mov	DWORD PTR [rax], -1
$LN7@qt_metacal:
; Line 159
	sub	ebx, 6
$LN6@qt_metacal:
	mov	eax, ebx
$LN1@qt_metacal:
; Line 160
	mov	rbx, QWORD PTR [rsp+48]
	mov	rbp, QWORD PTR [rsp+56]
	mov	rsi, QWORD PTR [rsp+64]
	add	rsp, 32					; 00000020H
	pop	rdi
	ret	0
?qt_metacall@wsimulation@@UEAAHW4Call@QMetaObject@@HPEAPEAX@Z ENDP ; wsimulation::qt_metacall
_TEXT	ENDS
; Function compile flags: /Ogtpy
;	COMDAT ?qt_metacast@wsimulation@@UEAAPEAXPEBD@Z
_TEXT	SEGMENT
this$ = 48
_clname$ = 56
?qt_metacast@wsimulation@@UEAAPEAXPEBD@Z PROC		; wsimulation::qt_metacast, COMDAT
; File c:\xdynamics\xdynamics_gui\generatedfiles\release\moc_xsimulationwidget.cpp
; Line 136
$LN11:
	mov	QWORD PTR [rsp+8], rbx
	push	rdi
	sub	rsp, 32					; 00000020H
	mov	rdi, rdx
	mov	rbx, rcx
; Line 137
	test	rdx, rdx
	jne	SHORT $LN2@qt_metacas
	xor	eax, eax
; Line 143
	mov	rbx, QWORD PTR [rsp+48]
	add	rsp, 32					; 00000020H
	pop	rdi
	ret	0
$LN2@qt_metacas:
; Line 138
	lea	r8, OFFSET FLAT:?qt_meta_stringdata_wsimulation@@3Uqt_meta_stringdata_wsimulation_t@@B+192
	mov	rax, rdi
	sub	r8, rdi
	npad	1
$LL8@qt_metacas:
	movzx	edx, BYTE PTR [rax]
	movzx	ecx, BYTE PTR [rax+r8]
	sub	edx, ecx
	jne	SHORT $LN9@qt_metacas
	inc	rax
	test	ecx, ecx
	jne	SHORT $LL8@qt_metacas
$LN9@qt_metacas:
	test	edx, edx
	jne	SHORT $LN3@qt_metacas
; Line 139
	mov	rax, rbx
; Line 143
	mov	rbx, QWORD PTR [rsp+48]
	add	rsp, 32					; 00000020H
	pop	rdi
	ret	0
$LN3@qt_metacas:
; Line 140
	lea	rdx, OFFSET FLAT:??_C@_0BA@PPIEKCJK@Ui?3?3wsimulation@
	mov	rcx, rdi
	call	strcmp
	test	eax, eax
	jne	SHORT $LN4@qt_metacas
; Line 141
	xor	ecx, ecx
	lea	rax, QWORD PTR [rbx+48]
	test	rbx, rbx
	cmove	rax, rcx
; Line 143
	mov	rbx, QWORD PTR [rsp+48]
	add	rsp, 32					; 00000020H
	pop	rdi
	ret	0
$LN4@qt_metacas:
; Line 142
	mov	rdx, rdi
	mov	rcx, rbx
; Line 143
	mov	rbx, QWORD PTR [rsp+48]
	add	rsp, 32					; 00000020H
	pop	rdi
; Line 142
	rex_jmp	QWORD PTR __imp_?qt_metacast@QWidget@@UEAAPEAXPEBD@Z
?qt_metacast@wsimulation@@UEAAPEAXPEBD@Z ENDP		; wsimulation::qt_metacast
_TEXT	ENDS
; Function compile flags: /Ogtpy
;	COMDAT ?metaObject@wsimulation@@UEBAPEBUQMetaObject@@XZ
_TEXT	SEGMENT
this$ = 8
?metaObject@wsimulation@@UEBAPEBUQMetaObject@@XZ PROC	; wsimulation::metaObject, COMDAT
; File c:\xdynamics\xdynamics_gui\generatedfiles\release\moc_xsimulationwidget.cpp
; Line 132
	mov	rcx, QWORD PTR [rcx+8]
	cmp	QWORD PTR [rcx+40], 0
	je	SHORT $LN3@metaObject
	rex_jmp	QWORD PTR __imp_?dynamicMetaObject@QObjectData@@QEBAPEAUQMetaObject@@XZ
$LN3@metaObject:
	lea	rax, OFFSET FLAT:?staticMetaObject@wsimulation@@2UQMetaObject@@B ; wsimulation::staticMetaObject
; Line 133
	ret	0
?metaObject@wsimulation@@UEBAPEBUQMetaObject@@XZ ENDP	; wsimulation::metaObject
_TEXT	ENDS
; Function compile flags: /Ogtpy
;	COMDAT ??C?$QScopedPointer@VQObjectData@@U?$QScopedPointerDeleter@VQObjectData@@@@@@QEBAPEAVQObjectData@@XZ
_TEXT	SEGMENT
this$ = 8
??C?$QScopedPointer@VQObjectData@@U?$QScopedPointerDeleter@VQObjectData@@@@@@QEBAPEAVQObjectData@@XZ PROC ; QScopedPointer<QObjectData,QScopedPointerDeleter<QObjectData> >::operator->, COMDAT
; File c:\qt\5.12.3\msvc2017_64\include\qtcore\qscopedpointer.h
; Line 118
	mov	rax, QWORD PTR [rcx]
; Line 119
	ret	0
??C?$QScopedPointer@VQObjectData@@U?$QScopedPointerDeleter@VQObjectData@@@@@@QEBAPEAVQObjectData@@XZ ENDP ; QScopedPointer<QObjectData,QScopedPointerDeleter<QObjectData> >::operator->
_TEXT	ENDS
END
