; Listing generated by Microsoft (R) Optimizing Compiler Version 19.16.27034.0 

include listing.inc

INCLUDELIB MSVCRT
INCLUDELIB OLDNAMES

EXTRN	__imp_?staticMetaObject@QDockWidget@@2UQMetaObject@@B:BYTE
CONST	SEGMENT
?qt_meta_stringdata_xChartControl@@3Uqt_meta_stringdata_xChartControl_t@@B DD 0ffffffffH ; qt_meta_stringdata_xChartControl
	DD	0dH
	DD	00H
	ORG $+4
	DQ	0000000000000048H
	DD	0ffffffffH
	DD	0eH
	DD	00H
	ORG $+4
	DQ	000000000000003eH
	DD	0ffffffffH
	DD	00H
	DD	00H
	ORG $+4
	DQ	0000000000000035H
	DB	078H
	DB	043H
	DB	068H
	DB	061H
	DB	072H
	DB	074H
	DB	043H
	DB	06fH
	DB	06eH
	DB	074H
	DB	072H
	DB	06fH
	DB	06cH
	DB	00H
	DB	063H
	DB	068H
	DB	061H
	DB	06eH
	DB	067H
	DB	065H
	DB	050H
	DB	072H
	DB	06fH
	DB	070H
	DB	065H
	DB	072H
	DB	074H
	DB	079H
	DB	00H
	DB	00H
	ORG $+2
	ORG $+8
?qt_meta_data_xChartControl@@3QBIB DD 08H		; qt_meta_data_xChartControl
	DD	00H
	DD	00H
	DD	00H
	DD	01H
	DD	0eH
	DD	00H
	DD	00H
	DD	00H
	DD	00H
	DD	00H
	DD	00H
	DD	00H
	DD	00H
	DD	01H
	DD	00H
	DD	013H
	DD	02H
	DD	08H
	DD	02bH
	DD	00H
CONST	ENDS
PUBLIC	?metaObject@xChartControl@@UEBAPEBUQMetaObject@@XZ ; xChartControl::metaObject
PUBLIC	?qt_metacast@xChartControl@@UEAAPEAXPEBD@Z	; xChartControl::qt_metacast
PUBLIC	?qt_metacall@xChartControl@@UEAAHW4Call@QMetaObject@@HPEAPEAX@Z ; xChartControl::qt_metacall
PUBLIC	?qt_static_metacall@xChartControl@@CAXPEAVQObject@@W4Call@QMetaObject@@HPEAPEAX@Z ; xChartControl::qt_static_metacall
PUBLIC	?staticMetaObject@xChartControl@@2UQMetaObject@@B ; xChartControl::staticMetaObject
EXTRN	__imp_?dynamicMetaObject@QObjectData@@QEBAPEAUQMetaObject@@XZ:PROC
EXTRN	__imp_?qt_metacast@QDockWidget@@UEAAPEAXPEBD@Z:PROC
EXTRN	__imp_?qt_metacall@QDockWidget@@UEAAHW4Call@QMetaObject@@HPEAPEAX@Z:PROC
EXTRN	?changeProperty@xChartControl@@AEAAXXZ:PROC	; xChartControl::changeProperty
;	COMDAT pdata
pdata	SEGMENT
$pdata$?qt_metacall@xChartControl@@UEAAHW4Call@QMetaObject@@HPEAPEAX@Z DD imagerel $LN18
	DD	imagerel $LN18+104
	DD	imagerel $unwind$?qt_metacall@xChartControl@@UEAAHW4Call@QMetaObject@@HPEAPEAX@Z
pdata	ENDS
CRT$XCU	SEGMENT
??staticMetaObject$initializer$@xChartControl@@2P6AXXZEA@@3P6AXXZEA DQ FLAT:??__E?staticMetaObject@xChartControl@@2UQMetaObject@@B@@YAXXZ ; ??staticMetaObject$initializer$@xChartControl@@2P6AXXZEA@@3P6AXXZEA
CRT$XCU	ENDS
_DATA	SEGMENT
?staticMetaObject@xChartControl@@2UQMetaObject@@B DB 8 DUP(00H) ; xChartControl::staticMetaObject
	DQ	FLAT:?qt_meta_stringdata_xChartControl@@3Uqt_meta_stringdata_xChartControl_t@@B
	DQ	FLAT:?qt_meta_data_xChartControl@@3QBIB
	DQ	FLAT:?qt_static_metacall@xChartControl@@CAXPEAVQObject@@W4Call@QMetaObject@@HPEAPEAX@Z
	DQ	0000000000000000H
	DQ	0000000000000000H
_DATA	ENDS
;	COMDAT xdata
xdata	SEGMENT
$unwind$?qt_metacall@xChartControl@@UEAAHW4Call@QMetaObject@@HPEAPEAX@Z DD 081501H
	DD	087415H
	DD	076415H
	DD	063415H
	DD	0e0113215H
xdata	ENDS
; Function compile flags: /Ogtpy
;	COMDAT ??__E?staticMetaObject@xChartControl@@2UQMetaObject@@B@@YAXXZ
text$di	SEGMENT
??__E?staticMetaObject@xChartControl@@2UQMetaObject@@B@@YAXXZ PROC ; `dynamic initializer for 'xChartControl::staticMetaObject'', COMDAT
; File c:\xdynamics\xdynamics_gui\generatedfiles\release\moc_xchartcontrol.cpp
; Line 79
	mov	rax, QWORD PTR __imp_?staticMetaObject@QDockWidget@@2UQMetaObject@@B
	mov	QWORD PTR ?staticMetaObject@xChartControl@@2UQMetaObject@@B, rax
; Line 84
	ret	0
??__E?staticMetaObject@xChartControl@@2UQMetaObject@@B@@YAXXZ ENDP ; `dynamic initializer for 'xChartControl::staticMetaObject''
text$di	ENDS
; Function compile flags: /Ogtpy
;	COMDAT ?qt_static_metacall@xChartControl@@CAXPEAVQObject@@W4Call@QMetaObject@@HPEAPEAX@Z
_TEXT	SEGMENT
_o$ = 8
_c$ = 16
_id$ = 24
_a$ = 32
?qt_static_metacall@xChartControl@@CAXPEAVQObject@@W4Call@QMetaObject@@HPEAPEAX@Z PROC ; xChartControl::qt_static_metacall, COMDAT
; File c:\xdynamics\xdynamics_gui\generatedfiles\release\moc_xchartcontrol.cpp
; Line 67
	test	edx, edx
	jne	SHORT $LN6@qt_static_
; Line 70
	test	r8d, r8d
	je	?changeProperty@xChartControl@@AEAAXXZ	; xChartControl::changeProperty
$LN6@qt_static_:
; Line 76
	ret	0
?qt_static_metacall@xChartControl@@CAXPEAVQObject@@W4Call@QMetaObject@@HPEAPEAX@Z ENDP ; xChartControl::qt_static_metacall
_TEXT	ENDS
; Function compile flags: /Ogtpy
;	COMDAT ?qt_metacall@xChartControl@@UEAAHW4Call@QMetaObject@@HPEAPEAX@Z
_TEXT	SEGMENT
this$ = 48
_c$ = 56
_id$ = 64
_a$ = 72
?qt_metacall@xChartControl@@UEAAHW4Call@QMetaObject@@HPEAPEAX@Z PROC ; xChartControl::qt_metacall, COMDAT
; File c:\xdynamics\xdynamics_gui\generatedfiles\release\moc_xchartcontrol.cpp
; Line 102
$LN18:
	mov	QWORD PTR [rsp+8], rbx
	mov	QWORD PTR [rsp+16], rsi
	mov	QWORD PTR [rsp+24], rdi
	push	r14
	sub	rsp, 32					; 00000020H
	mov	r14, r9
	mov	edi, edx
	mov	rsi, rcx
; Line 103
	call	QWORD PTR __imp_?qt_metacall@QDockWidget@@UEAAHW4Call@QMetaObject@@HPEAPEAX@Z
	mov	ebx, eax
; Line 104
	test	eax, eax
	js	SHORT $LN1@qt_metacal
; Line 106
	test	edi, edi
	jne	SHORT $LN3@qt_metacal
; Line 107
	test	eax, eax
	jne	SHORT $LN7@qt_metacal
; Line 71
	mov	rcx, rsi
	call	?changeProperty@xChartControl@@AEAAXXZ	; xChartControl::changeProperty
; Line 109
	jmp	SHORT $LN7@qt_metacal
$LN3@qt_metacal:
; Line 110
	cmp	edi, 12
	jne	SHORT $LN6@qt_metacal
; Line 111
	cmp	ebx, 1
	jge	SHORT $LN7@qt_metacal
; Line 112
	mov	rax, QWORD PTR [r14]
	mov	DWORD PTR [rax], -1
$LN7@qt_metacal:
; Line 115
	dec	ebx
$LN6@qt_metacal:
	mov	eax, ebx
$LN1@qt_metacal:
; Line 116
	mov	rbx, QWORD PTR [rsp+48]
	mov	rsi, QWORD PTR [rsp+56]
	mov	rdi, QWORD PTR [rsp+64]
	add	rsp, 32					; 00000020H
	pop	r14
	ret	0
?qt_metacall@xChartControl@@UEAAHW4Call@QMetaObject@@HPEAPEAX@Z ENDP ; xChartControl::qt_metacall
_TEXT	ENDS
; Function compile flags: /Ogtpy
;	COMDAT ?qt_metacast@xChartControl@@UEAAPEAXPEBD@Z
_TEXT	SEGMENT
this$ = 8
_clname$ = 16
?qt_metacast@xChartControl@@UEAAPEAXPEBD@Z PROC		; xChartControl::qt_metacast, COMDAT
; File c:\xdynamics\xdynamics_gui\generatedfiles\release\moc_xchartcontrol.cpp
; Line 94
	mov	r9, rdx
	mov	r10, rcx
; Line 95
	test	rdx, rdx
	jne	SHORT $LN2@qt_metacas
	xor	eax, eax
; Line 99
	ret	0
$LN2@qt_metacas:
; Line 96
	lea	r8, OFFSET FLAT:?qt_meta_stringdata_xChartControl@@3Uqt_meta_stringdata_xChartControl_t@@B+72
	mov	rax, r9
	sub	r8, r9
	npad	5
$LL5@qt_metacas:
	movzx	edx, BYTE PTR [rax]
	movzx	ecx, BYTE PTR [rax+r8]
	sub	edx, ecx
	jne	SHORT $LN6@qt_metacas
	inc	rax
	test	ecx, ecx
	jne	SHORT $LL5@qt_metacas
$LN6@qt_metacas:
	test	edx, edx
	jne	SHORT $LN3@qt_metacas
; Line 97
	mov	rax, r10
; Line 99
	ret	0
$LN3@qt_metacas:
; Line 98
	mov	rdx, r9
	mov	rcx, r10
	rex_jmp	QWORD PTR __imp_?qt_metacast@QDockWidget@@UEAAPEAXPEBD@Z
?qt_metacast@xChartControl@@UEAAPEAXPEBD@Z ENDP		; xChartControl::qt_metacast
_TEXT	ENDS
; Function compile flags: /Ogtpy
;	COMDAT ?metaObject@xChartControl@@UEBAPEBUQMetaObject@@XZ
_TEXT	SEGMENT
this$ = 8
?metaObject@xChartControl@@UEBAPEBUQMetaObject@@XZ PROC	; xChartControl::metaObject, COMDAT
; File c:\xdynamics\xdynamics_gui\generatedfiles\release\moc_xchartcontrol.cpp
; Line 90
	mov	rcx, QWORD PTR [rcx+8]
	cmp	QWORD PTR [rcx+40], 0
	je	SHORT $LN3@metaObject
	rex_jmp	QWORD PTR __imp_?dynamicMetaObject@QObjectData@@QEBAPEAUQMetaObject@@XZ
$LN3@metaObject:
	lea	rax, OFFSET FLAT:?staticMetaObject@xChartControl@@2UQMetaObject@@B ; xChartControl::staticMetaObject
; Line 91
	ret	0
?metaObject@xChartControl@@UEBAPEBUQMetaObject@@XZ ENDP	; xChartControl::metaObject
_TEXT	ENDS
; Function compile flags: /Ogtpy
;	COMDAT ??C?$QScopedPointer@VQObjectData@@U?$QScopedPointerDeleter@VQObjectData@@@@@@QEBAPEAVQObjectData@@XZ
_TEXT	SEGMENT
this$ = 8
??C?$QScopedPointer@VQObjectData@@U?$QScopedPointerDeleter@VQObjectData@@@@@@QEBAPEAVQObjectData@@XZ PROC ; QScopedPointer<QObjectData,QScopedPointerDeleter<QObjectData> >::operator->, COMDAT
; File c:\qt\5.12.3\msvc2017_64\include\qtcore\qscopedpointer.h
; Line 118
	mov	rax, QWORD PTR [rcx]
; Line 119
	ret	0
??C?$QScopedPointer@VQObjectData@@U?$QScopedPointerDeleter@VQObjectData@@@@@@QEBAPEAVQObjectData@@XZ ENDP ; QScopedPointer<QObjectData,QScopedPointerDeleter<QObjectData> >::operator->
_TEXT	ENDS
END
