; Listing generated by Microsoft (R) Optimizing Compiler Version 19.16.27034.0 

include listing.inc

INCLUDELIB MSVCRT
INCLUDELIB OLDNAMES

EXTRN	__imp_?staticMetaObject@QWidget@@2UQMetaObject@@B:BYTE
CONST	SEGMENT
?qt_meta_stringdata_wresult@@3Uqt_meta_stringdata_wresult_t@@B DD 0ffffffffH ; qt_meta_stringdata_wresult
	DD	07H
	DD	00H
	ORG $+4
	DQ	00000000000000a8H
	DD	0ffffffffH
	DD	012H
	DD	00H
	ORG $+4
	DQ	0000000000000098H
	DD	0ffffffffH
	DD	00H
	DD	00H
	ORG $+4
	DQ	0000000000000093H
	DD	0ffffffffH
	DD	012H
	DD	00H
	ORG $+4
	DQ	000000000000007cH
	DD	0ffffffffH
	DD	0bH
	DD	00H
	ORG $+4
	DQ	0000000000000077H
	DD	0ffffffffH
	DD	011H
	DD	00H
	ORG $+4
	DQ	000000000000006bH
	DD	0ffffffffH
	DD	011H
	DD	00H
	ORG $+4
	DQ	0000000000000065H
	DB	077H
	DB	072H
	DB	065H
	DB	073H
	DB	075H
	DB	06cH
	DB	074H
	DB	00H
	DB	063H
	DB	06cH
	DB	069H
	DB	063H
	DB	06bH
	DB	065H
	DB	064H
	DB	041H
	DB	070H
	DB	070H
	DB	06cH
	DB	079H
	DB	042H
	DB	075H
	DB	074H
	DB	074H
	DB	06fH
	DB	06eH
	DB	00H
	DB	00H
	DB	063H
	DB	068H
	DB	061H
	DB	06eH
	DB	067H
	DB	065H
	DB	064H
	DB	054H
	DB	061H
	DB	072H
	DB	067H
	DB	065H
	DB	074H
	DB	043H
	DB	06fH
	DB	06dH
	DB	062H
	DB	06fH
	DB	00H
	DB	041H
	DB	070H
	DB	070H
	DB	06cH
	DB	079H
	DB	042H
	DB	075H
	DB	074H
	DB	074H
	DB	06fH
	DB	06eH
	DB	00H
	DB	053H
	DB	065H
	DB	06cH
	DB	065H
	DB	063H
	DB	074H
	DB	052H
	DB	061H
	DB	064H
	DB	069H
	DB	06fH
	DB	042H
	DB	075H
	DB	074H
	DB	074H
	DB	06fH
	DB	06eH
	DB	00H
	DB	043H
	DB	068H
	DB	061H
	DB	06eH
	DB	067H
	DB	065H
	DB	054H
	DB	061H
	DB	072H
	DB	067H
	DB	065H
	DB	074H
	DB	043H
	DB	06fH
	DB	06dH
	DB	062H
	DB	06fH
	DB	00H
	ORG $+1
	ORG $+8
?qt_meta_data_wresult@@3QBIB DD 08H			; qt_meta_data_wresult
	DD	00H
	DD	00H
	DD	00H
	DD	05H
	DD	0eH
	DD	00H
	DD	00H
	DD	00H
	DD	00H
	DD	00H
	DD	00H
	DD	00H
	DD	02H
	DD	01H
	DD	01H
	DD	027H
	DD	02H
	DD	06H
	DD	03H
	DD	01H
	DD	02aH
	DD	02H
	DD	06H
	DD	04H
	DD	00H
	DD	02dH
	DD	02H
	DD	08H
	DD	05H
	DD	00H
	DD	02eH
	DD	02H
	DD	08H
	DD	06H
	DD	01H
	DD	02fH
	DD	02H
	DD	08H
	DD	02bH
	DD	02H
	DD	02H
	DD	02bH
	DD	02H
	DD	02H
	DD	02bH
	DD	02bH
	DD	02bH
	DD	02H
	DD	02H
	DD	00H
CONST	ENDS
PUBLIC	?metaObject@wresult@@UEBAPEBUQMetaObject@@XZ	; wresult::metaObject
PUBLIC	?qt_metacast@wresult@@UEAAPEAXPEBD@Z		; wresult::qt_metacast
PUBLIC	?qt_metacall@wresult@@UEAAHW4Call@QMetaObject@@HPEAPEAX@Z ; wresult::qt_metacall
PUBLIC	?qt_static_metacall@wresult@@CAXPEAVQObject@@W4Call@QMetaObject@@HPEAPEAX@Z ; wresult::qt_static_metacall
PUBLIC	?clickedApplyButton@wresult@@QEAAXH@Z		; wresult::clickedApplyButton
PUBLIC	?changedTargetCombo@wresult@@QEAAXH@Z		; wresult::changedTargetCombo
PUBLIC	?staticMetaObject@wresult@@2UQMetaObject@@B	; wresult::staticMetaObject
PUBLIC	??_C@_0M@KCPDGHOJ@Ui?3?3wresult@		; `string'
EXTRN	__imp_?activate@QMetaObject@@SAXPEAVQObject@@PEBU1@HPEAPEAX@Z:PROC
EXTRN	__imp_?dynamicMetaObject@QObjectData@@QEBAPEAUQMetaObject@@XZ:PROC
EXTRN	__imp_?qt_metacast@QWidget@@UEAAPEAXPEBD@Z:PROC
EXTRN	__imp_?qt_metacall@QWidget@@UEAAHW4Call@QMetaObject@@HPEAPEAX@Z:PROC
EXTRN	?ApplyButton@wresult@@AEAAXXZ:PROC		; wresult::ApplyButton
EXTRN	?SelectRadioButton@wresult@@AEAAXXZ:PROC	; wresult::SelectRadioButton
EXTRN	?ChangeTargetCombo@wresult@@AEAAXH@Z:PROC	; wresult::ChangeTargetCombo
EXTRN	strcmp:PROC
;	COMDAT pdata
pdata	SEGMENT
$pdata$?qt_metacast@wresult@@UEAAPEAXPEBD@Z DD imagerel $LN11
	DD	imagerel $LN11+151
	DD	imagerel $unwind$?qt_metacast@wresult@@UEAAPEAXPEBD@Z
pdata	ENDS
;	COMDAT pdata
pdata	SEGMENT
$pdata$?qt_metacall@wresult@@UEAAHW4Call@QMetaObject@@HPEAPEAX@Z DD imagerel $LN10
	DD	imagerel $LN10+112
	DD	imagerel $unwind$?qt_metacall@wresult@@UEAAHW4Call@QMetaObject@@HPEAPEAX@Z
pdata	ENDS
;	COMDAT pdata
pdata	SEGMENT
$pdata$?qt_static_metacall@wresult@@CAXPEAVQObject@@W4Call@QMetaObject@@HPEAPEAX@Z DD imagerel $LN30
	DD	imagerel $LN30+237
	DD	imagerel $unwind$?qt_static_metacall@wresult@@CAXPEAVQObject@@W4Call@QMetaObject@@HPEAPEAX@Z
pdata	ENDS
;	COMDAT pdata
pdata	SEGMENT
$pdata$?clickedApplyButton@wresult@@QEAAXH@Z DD imagerel $LN4
	DD	imagerel $LN4+53
	DD	imagerel $unwind$?clickedApplyButton@wresult@@QEAAXH@Z
pdata	ENDS
;	COMDAT pdata
pdata	SEGMENT
$pdata$?changedTargetCombo@wresult@@QEAAXH@Z DD imagerel $LN4
	DD	imagerel $LN4+56
	DD	imagerel $unwind$?changedTargetCombo@wresult@@QEAAXH@Z
pdata	ENDS
CRT$XCU	SEGMENT
??staticMetaObject$initializer$@wresult@@2P6AXXZEA@@3P6AXXZEA DQ FLAT:??__E?staticMetaObject@wresult@@2UQMetaObject@@B@@YAXXZ ; ??staticMetaObject$initializer$@wresult@@2P6AXXZEA@@3P6AXXZEA
CRT$XCU	ENDS
;	COMDAT ??_C@_0M@KCPDGHOJ@Ui?3?3wresult@
CONST	SEGMENT
??_C@_0M@KCPDGHOJ@Ui?3?3wresult@ DB 'Ui::wresult', 00H	; `string'
CONST	ENDS
_DATA	SEGMENT
?staticMetaObject@wresult@@2UQMetaObject@@B DB 8 DUP(00H) ; wresult::staticMetaObject
	DQ	FLAT:?qt_meta_stringdata_wresult@@3Uqt_meta_stringdata_wresult_t@@B
	DQ	FLAT:?qt_meta_data_wresult@@3QBIB
	DQ	FLAT:?qt_static_metacall@wresult@@CAXPEAVQObject@@W4Call@QMetaObject@@HPEAPEAX@Z
	DQ	0000000000000000H
	DQ	0000000000000000H
_DATA	ENDS
;	COMDAT xdata
xdata	SEGMENT
$unwind$?changedTargetCombo@wresult@@QEAAXH@Z DD 010801H
	DD	06208H
xdata	ENDS
;	COMDAT xdata
xdata	SEGMENT
$unwind$?clickedApplyButton@wresult@@QEAAXH@Z DD 010801H
	DD	06208H
xdata	ENDS
;	COMDAT xdata
xdata	SEGMENT
$unwind$?qt_static_metacall@wresult@@CAXPEAVQObject@@W4Call@QMetaObject@@HPEAPEAX@Z DD 010401H
	DD	06204H
xdata	ENDS
;	COMDAT xdata
xdata	SEGMENT
$unwind$?qt_metacall@wresult@@UEAAHW4Call@QMetaObject@@HPEAPEAX@Z DD 081401H
	DD	086414H
	DD	075414H
	DD	063414H
	DD	070103214H
xdata	ENDS
;	COMDAT xdata
xdata	SEGMENT
$unwind$?qt_metacast@wresult@@UEAAPEAXPEBD@Z DD 040a01H
	DD	06340aH
	DD	07006320aH
xdata	ENDS
; Function compile flags: /Ogtpy
;	COMDAT ??__E?staticMetaObject@wresult@@2UQMetaObject@@B@@YAXXZ
text$di	SEGMENT
??__E?staticMetaObject@wresult@@2UQMetaObject@@B@@YAXXZ PROC ; `dynamic initializer for 'wresult::staticMetaObject'', COMDAT
; File c:\xdynamics\xdynamics_gui\generatedfiles\release\moc_xresultwidget.cpp
; Line 116
	mov	rax, QWORD PTR __imp_?staticMetaObject@QWidget@@2UQMetaObject@@B
	mov	QWORD PTR ?staticMetaObject@wresult@@2UQMetaObject@@B, rax
; Line 121
	ret	0
??__E?staticMetaObject@wresult@@2UQMetaObject@@B@@YAXXZ ENDP ; `dynamic initializer for 'wresult::staticMetaObject''
text$di	ENDS
; Function compile flags: /Ogtpy
;	COMDAT ?changedTargetCombo@wresult@@QEAAXH@Z
_TEXT	SEGMENT
_a$ = 32
this$ = 64
_t1$ = 72
?changedTargetCombo@wresult@@QEAAXH@Z PROC		; wresult::changedTargetCombo, COMDAT
; File c:\xdynamics\xdynamics_gui\generatedfiles\release\moc_xresultwidget.cpp
; Line 166
$LN4:
	mov	DWORD PTR [rsp+16], edx
	sub	rsp, 56					; 00000038H
; Line 167
	lea	rax, QWORD PTR _t1$[rsp]
	mov	QWORD PTR _a$[rsp], 0
; Line 168
	lea	r9, QWORD PTR _a$[rsp]
	mov	QWORD PTR _a$[rsp+8], rax
	mov	r8d, 1
	lea	rdx, OFFSET FLAT:?staticMetaObject@wresult@@2UQMetaObject@@B ; wresult::staticMetaObject
	call	QWORD PTR __imp_?activate@QMetaObject@@SAXPEAVQObject@@PEBU1@HPEAPEAX@Z
; Line 169
	add	rsp, 56					; 00000038H
	ret	0
?changedTargetCombo@wresult@@QEAAXH@Z ENDP		; wresult::changedTargetCombo
_TEXT	ENDS
; Function compile flags: /Ogtpy
;	COMDAT ?clickedApplyButton@wresult@@QEAAXH@Z
_TEXT	SEGMENT
_a$ = 32
this$ = 64
_t1$ = 72
?clickedApplyButton@wresult@@QEAAXH@Z PROC		; wresult::clickedApplyButton, COMDAT
; File c:\xdynamics\xdynamics_gui\generatedfiles\release\moc_xresultwidget.cpp
; Line 159
$LN4:
	mov	DWORD PTR [rsp+16], edx
	sub	rsp, 56					; 00000038H
; Line 160
	lea	rax, QWORD PTR _t1$[rsp]
	mov	QWORD PTR _a$[rsp], 0
; Line 161
	lea	r9, QWORD PTR _a$[rsp]
	mov	QWORD PTR _a$[rsp+8], rax
	xor	r8d, r8d
	lea	rdx, OFFSET FLAT:?staticMetaObject@wresult@@2UQMetaObject@@B ; wresult::staticMetaObject
	call	QWORD PTR __imp_?activate@QMetaObject@@SAXPEAVQObject@@PEBU1@HPEAPEAX@Z
; Line 162
	add	rsp, 56					; 00000038H
	ret	0
?clickedApplyButton@wresult@@QEAAXH@Z ENDP		; wresult::clickedApplyButton
_TEXT	ENDS
; Function compile flags: /Ogtpy
;	COMDAT ?qt_static_metacall@wresult@@CAXPEAVQObject@@W4Call@QMetaObject@@HPEAPEAX@Z
_TEXT	SEGMENT
_a$1 = 32
_o$ = 64
_t1$ = 72
_c$ = 72
_id$ = 80
_a$ = 88
?qt_static_metacall@wresult@@CAXPEAVQObject@@W4Call@QMetaObject@@HPEAPEAX@Z PROC ; wresult::qt_static_metacall, COMDAT
; File c:\xdynamics\xdynamics_gui\generatedfiles\release\moc_xresultwidget.cpp
; Line 84
$LN30:
	sub	rsp, 56					; 00000038H
	mov	r10, rcx
; Line 85
	test	edx, edx
	jne	$LN4@qt_static_
; Line 88
	test	r8d, r8d
	je	SHORT $LN6@qt_static_
	sub	r8d, 1
	je	SHORT $LN7@qt_static_
	sub	r8d, 1
	je	SHORT $LN8@qt_static_
	sub	r8d, 1
	je	SHORT $LN9@qt_static_
	cmp	r8d, 1
	jne	$LN14@qt_static_
; Line 93
	mov	rax, QWORD PTR [r9+8]
	mov	edx, DWORD PTR [rax]
; Line 113
	add	rsp, 56					; 00000038H
; Line 93
	jmp	?ChangeTargetCombo@wresult@@AEAAXH@Z	; wresult::ChangeTargetCombo
$LN9@qt_static_:
; Line 113
	add	rsp, 56					; 00000038H
; Line 92
	jmp	?SelectRadioButton@wresult@@AEAAXXZ	; wresult::SelectRadioButton
$LN8@qt_static_:
; Line 113
	add	rsp, 56					; 00000038H
; Line 91
	jmp	?ApplyButton@wresult@@AEAAXXZ		; wresult::ApplyButton
$LN7@qt_static_:
; Line 90
	mov	rax, QWORD PTR [r9+8]
	mov	edx, DWORD PTR [rax]
; Line 113
	add	rsp, 56					; 00000038H
; Line 90
	jmp	?changedTargetCombo@wresult@@QEAAXH@Z	; wresult::changedTargetCombo
$LN6@qt_static_:
; Line 89
	mov	rax, QWORD PTR [r9+8]
; Line 161
	lea	rdx, OFFSET FLAT:?staticMetaObject@wresult@@2UQMetaObject@@B ; wresult::staticMetaObject
	lea	r9, QWORD PTR _a$1[rsp]
	mov	QWORD PTR _a$1[rsp], 0
	xor	r8d, r8d
; Line 89
	mov	ecx, DWORD PTR [rax]
; Line 160
	lea	rax, QWORD PTR _t1$[rsp]
; Line 89
	mov	DWORD PTR _t1$[rsp], ecx
; Line 161
	mov	rcx, r10
	mov	QWORD PTR _a$1[rsp+8], rax
	call	QWORD PTR __imp_?activate@QMetaObject@@SAXPEAVQObject@@PEBU1@HPEAPEAX@Z
; Line 113
	add	rsp, 56					; 00000038H
	ret	0
$LN4@qt_static_:
; Line 96
	cmp	edx, 10
	jne	SHORT $LN14@qt_static_
; Line 100
	mov	rcx, QWORD PTR [r9+8]
	lea	r8, OFFSET FLAT:?clickedApplyButton@wresult@@QEAAXH@Z ; wresult::clickedApplyButton
	mov	rdx, QWORD PTR [r9]
	mov	rax, QWORD PTR [rcx]
	cmp	rax, r8
	jne	SHORT $LN13@qt_static_
	test	rax, rax
	je	SHORT $LN26@qt_static_
	cmp	DWORD PTR [rcx+8], 0
	jne	SHORT $LN13@qt_static_
$LN26@qt_static_:
; Line 101
	mov	DWORD PTR [rdx], 0
; Line 113
	add	rsp, 56					; 00000038H
	ret	0
$LN13@qt_static_:
; Line 107
	lea	r8, OFFSET FLAT:?changedTargetCombo@wresult@@QEAAXH@Z ; wresult::changedTargetCombo
	cmp	rax, r8
	jne	SHORT $LN14@qt_static_
	test	rax, rax
	je	SHORT $LN27@qt_static_
	cmp	DWORD PTR [rcx+8], 0
	jne	SHORT $LN14@qt_static_
$LN27@qt_static_:
; Line 108
	mov	DWORD PTR [rdx], 1
$LN14@qt_static_:
; Line 113
	add	rsp, 56					; 00000038H
	ret	0
?qt_static_metacall@wresult@@CAXPEAVQObject@@W4Call@QMetaObject@@HPEAPEAX@Z ENDP ; wresult::qt_static_metacall
_TEXT	ENDS
; Function compile flags: /Ogtpy
;	COMDAT ?qt_metacall@wresult@@UEAAHW4Call@QMetaObject@@HPEAPEAX@Z
_TEXT	SEGMENT
this$ = 48
_c$ = 56
_id$ = 64
_a$ = 72
?qt_metacall@wresult@@UEAAHW4Call@QMetaObject@@HPEAPEAX@Z PROC ; wresult::qt_metacall, COMDAT
; File c:\xdynamics\xdynamics_gui\generatedfiles\release\moc_xresultwidget.cpp
; Line 141
$LN10:
	mov	QWORD PTR [rsp+8], rbx
	mov	QWORD PTR [rsp+16], rbp
	mov	QWORD PTR [rsp+24], rsi
	push	rdi
	sub	rsp, 32					; 00000020H
	mov	rsi, r9
	mov	edi, edx
	mov	rbp, rcx
; Line 142
	call	QWORD PTR __imp_?qt_metacall@QWidget@@UEAAHW4Call@QMetaObject@@HPEAPEAX@Z
	mov	ebx, eax
; Line 143
	test	eax, eax
	js	SHORT $LN1@qt_metacal
; Line 145
	test	edi, edi
	jne	SHORT $LN3@qt_metacal
; Line 146
	cmp	eax, 5
	jge	SHORT $LN7@qt_metacal
; Line 147
	mov	r9, rsi
	mov	r8d, eax
	xor	edx, edx
	mov	rcx, rbp
	call	?qt_static_metacall@wresult@@CAXPEAVQObject@@W4Call@QMetaObject@@HPEAPEAX@Z ; wresult::qt_static_metacall
; Line 148
	jmp	SHORT $LN7@qt_metacal
$LN3@qt_metacal:
; Line 149
	cmp	edi, 12
	jne	SHORT $LN6@qt_metacal
; Line 150
	cmp	ebx, 5
	jge	SHORT $LN7@qt_metacal
; Line 151
	mov	rax, QWORD PTR [rsi]
	mov	DWORD PTR [rax], -1
$LN7@qt_metacal:
; Line 154
	sub	ebx, 5
$LN6@qt_metacal:
	mov	eax, ebx
$LN1@qt_metacal:
; Line 155
	mov	rbx, QWORD PTR [rsp+48]
	mov	rbp, QWORD PTR [rsp+56]
	mov	rsi, QWORD PTR [rsp+64]
	add	rsp, 32					; 00000020H
	pop	rdi
	ret	0
?qt_metacall@wresult@@UEAAHW4Call@QMetaObject@@HPEAPEAX@Z ENDP ; wresult::qt_metacall
_TEXT	ENDS
; Function compile flags: /Ogtpy
;	COMDAT ?qt_metacast@wresult@@UEAAPEAXPEBD@Z
_TEXT	SEGMENT
this$ = 48
_clname$ = 56
?qt_metacast@wresult@@UEAAPEAXPEBD@Z PROC		; wresult::qt_metacast, COMDAT
; File c:\xdynamics\xdynamics_gui\generatedfiles\release\moc_xresultwidget.cpp
; Line 131
$LN11:
	mov	QWORD PTR [rsp+8], rbx
	push	rdi
	sub	rsp, 32					; 00000020H
	mov	rdi, rdx
	mov	rbx, rcx
; Line 132
	test	rdx, rdx
	jne	SHORT $LN2@qt_metacas
	xor	eax, eax
; Line 138
	mov	rbx, QWORD PTR [rsp+48]
	add	rsp, 32					; 00000020H
	pop	rdi
	ret	0
$LN2@qt_metacas:
; Line 133
	lea	r8, OFFSET FLAT:?qt_meta_stringdata_wresult@@3Uqt_meta_stringdata_wresult_t@@B+168
	mov	rax, rdi
	sub	r8, rdi
	npad	1
$LL8@qt_metacas:
	movzx	edx, BYTE PTR [rax]
	movzx	ecx, BYTE PTR [rax+r8]
	sub	edx, ecx
	jne	SHORT $LN9@qt_metacas
	inc	rax
	test	ecx, ecx
	jne	SHORT $LL8@qt_metacas
$LN9@qt_metacas:
	test	edx, edx
	jne	SHORT $LN3@qt_metacas
; Line 134
	mov	rax, rbx
; Line 138
	mov	rbx, QWORD PTR [rsp+48]
	add	rsp, 32					; 00000020H
	pop	rdi
	ret	0
$LN3@qt_metacas:
; Line 135
	lea	rdx, OFFSET FLAT:??_C@_0M@KCPDGHOJ@Ui?3?3wresult@
	mov	rcx, rdi
	call	strcmp
	test	eax, eax
	jne	SHORT $LN4@qt_metacas
; Line 136
	xor	ecx, ecx
	lea	rax, QWORD PTR [rbx+48]
	test	rbx, rbx
	cmove	rax, rcx
; Line 138
	mov	rbx, QWORD PTR [rsp+48]
	add	rsp, 32					; 00000020H
	pop	rdi
	ret	0
$LN4@qt_metacas:
; Line 137
	mov	rdx, rdi
	mov	rcx, rbx
; Line 138
	mov	rbx, QWORD PTR [rsp+48]
	add	rsp, 32					; 00000020H
	pop	rdi
; Line 137
	rex_jmp	QWORD PTR __imp_?qt_metacast@QWidget@@UEAAPEAXPEBD@Z
?qt_metacast@wresult@@UEAAPEAXPEBD@Z ENDP		; wresult::qt_metacast
_TEXT	ENDS
; Function compile flags: /Ogtpy
;	COMDAT ?metaObject@wresult@@UEBAPEBUQMetaObject@@XZ
_TEXT	SEGMENT
this$ = 8
?metaObject@wresult@@UEBAPEBUQMetaObject@@XZ PROC	; wresult::metaObject, COMDAT
; File c:\xdynamics\xdynamics_gui\generatedfiles\release\moc_xresultwidget.cpp
; Line 127
	mov	rcx, QWORD PTR [rcx+8]
	cmp	QWORD PTR [rcx+40], 0
	je	SHORT $LN3@metaObject
	rex_jmp	QWORD PTR __imp_?dynamicMetaObject@QObjectData@@QEBAPEAUQMetaObject@@XZ
$LN3@metaObject:
	lea	rax, OFFSET FLAT:?staticMetaObject@wresult@@2UQMetaObject@@B ; wresult::staticMetaObject
; Line 128
	ret	0
?metaObject@wresult@@UEBAPEBUQMetaObject@@XZ ENDP	; wresult::metaObject
_TEXT	ENDS
; Function compile flags: /Ogtpy
;	COMDAT ??C?$QScopedPointer@VQObjectData@@U?$QScopedPointerDeleter@VQObjectData@@@@@@QEBAPEAVQObjectData@@XZ
_TEXT	SEGMENT
this$ = 8
??C?$QScopedPointer@VQObjectData@@U?$QScopedPointerDeleter@VQObjectData@@@@@@QEBAPEAVQObjectData@@XZ PROC ; QScopedPointer<QObjectData,QScopedPointerDeleter<QObjectData> >::operator->, COMDAT
; File c:\qt\5.12.3\msvc2017_64\include\qtcore\qscopedpointer.h
; Line 118
	mov	rax, QWORD PTR [rcx]
; Line 119
	ret	0
??C?$QScopedPointer@VQObjectData@@U?$QScopedPointerDeleter@VQObjectData@@@@@@QEBAPEAVQObjectData@@XZ ENDP ; QScopedPointer<QObjectData,QScopedPointerDeleter<QObjectData> >::operator->
_TEXT	ENDS
END
