; Listing generated by Microsoft (R) Optimizing Compiler Version 19.16.27034.0 

include listing.inc

INCLUDELIB MSVCRT
INCLUDELIB OLDNAMES

EXTRN	__imp_?staticMetaObject@QProgressDialog@@2UQMetaObject@@B:BYTE
CONST	SEGMENT
?qt_meta_stringdata_xProgressDialog@@3Uqt_meta_stringdata_xProgressDialog_t@@B DD 0ffffffffH ; qt_meta_stringdata_xProgressDialog
	DD	0fH
	DD	00H
	ORG $+4
	DQ	0000000000000018H
	DB	078H
	DB	050H
	DB	072H
	DB	06fH
	DB	067H
	DB	072H
	DB	065H
	DB	073H
	DB	073H
	DB	044H
	DB	069H
	DB	061H
	DB	06cH
	DB	06fH
	DB	067H
	DB	00H
?qt_meta_data_xProgressDialog@@3QBIB DD 08H		; qt_meta_data_xProgressDialog
	DD	00H
	DD	00H
	DD	00H
	DD	00H
	DD	00H
	DD	00H
	DD	00H
	DD	00H
	DD	00H
	DD	00H
	DD	00H
	DD	00H
	DD	00H
	DD	00H
CONST	ENDS
PUBLIC	?metaObject@xProgressDialog@@UEBAPEBUQMetaObject@@XZ ; xProgressDialog::metaObject
PUBLIC	?qt_metacast@xProgressDialog@@UEAAPEAXPEBD@Z	; xProgressDialog::qt_metacast
PUBLIC	?qt_metacall@xProgressDialog@@UEAAHW4Call@QMetaObject@@HPEAPEAX@Z ; xProgressDialog::qt_metacall
PUBLIC	?qt_static_metacall@xProgressDialog@@CAXPEAVQObject@@W4Call@QMetaObject@@HPEAPEAX@Z ; xProgressDialog::qt_static_metacall
PUBLIC	?staticMetaObject@xProgressDialog@@2UQMetaObject@@B ; xProgressDialog::staticMetaObject
EXTRN	__imp_?dynamicMetaObject@QObjectData@@QEBAPEAUQMetaObject@@XZ:PROC
EXTRN	__imp_?qt_metacast@QProgressDialog@@UEAAPEAXPEBD@Z:PROC
EXTRN	__imp_?qt_metacall@QProgressDialog@@UEAAHW4Call@QMetaObject@@HPEAPEAX@Z:PROC
CRT$XCU	SEGMENT
??staticMetaObject$initializer$@xProgressDialog@@2P6AXXZEA@@3P6AXXZEA DQ FLAT:??__E?staticMetaObject@xProgressDialog@@2UQMetaObject@@B@@YAXXZ ; ??staticMetaObject$initializer$@xProgressDialog@@2P6AXXZEA@@3P6AXXZEA
CRT$XCU	ENDS
_DATA	SEGMENT
?staticMetaObject@xProgressDialog@@2UQMetaObject@@B DB 8 DUP(00H) ; xProgressDialog::staticMetaObject
	DQ	FLAT:?qt_meta_stringdata_xProgressDialog@@3Uqt_meta_stringdata_xProgressDialog_t@@B
	DQ	FLAT:?qt_meta_data_xProgressDialog@@3QBIB
	DQ	FLAT:?qt_static_metacall@xProgressDialog@@CAXPEAVQObject@@W4Call@QMetaObject@@HPEAPEAX@Z
	DQ	0000000000000000H
	DQ	0000000000000000H
_DATA	ENDS
; Function compile flags: /Ogtpy
;	COMDAT ??__E?staticMetaObject@xProgressDialog@@2UQMetaObject@@B@@YAXXZ
text$di	SEGMENT
??__E?staticMetaObject@xProgressDialog@@2UQMetaObject@@B@@YAXXZ PROC ; `dynamic initializer for 'xProgressDialog::staticMetaObject'', COMDAT
; File c:\xdynamics\xdynamics_gui\generatedfiles\release\moc_xprogressdialog.cpp
; Line 66
	mov	rax, QWORD PTR __imp_?staticMetaObject@QProgressDialog@@2UQMetaObject@@B
	mov	QWORD PTR ?staticMetaObject@xProgressDialog@@2UQMetaObject@@B, rax
; Line 71
	ret	0
??__E?staticMetaObject@xProgressDialog@@2UQMetaObject@@B@@YAXXZ ENDP ; `dynamic initializer for 'xProgressDialog::staticMetaObject''
text$di	ENDS
; Function compile flags: /Ogtpy
;	COMDAT ?qt_static_metacall@xProgressDialog@@CAXPEAVQObject@@W4Call@QMetaObject@@HPEAPEAX@Z
_TEXT	SEGMENT
_o$ = 8
_c$ = 16
_id$ = 24
_a$ = 32
?qt_static_metacall@xProgressDialog@@CAXPEAVQObject@@W4Call@QMetaObject@@HPEAPEAX@Z PROC ; xProgressDialog::qt_static_metacall, COMDAT
; File c:\xdynamics\xdynamics_gui\generatedfiles\release\moc_xprogressdialog.cpp
; Line 63
	ret	0
?qt_static_metacall@xProgressDialog@@CAXPEAVQObject@@W4Call@QMetaObject@@HPEAPEAX@Z ENDP ; xProgressDialog::qt_static_metacall
_TEXT	ENDS
; Function compile flags: /Ogtpy
;	COMDAT ?qt_metacall@xProgressDialog@@UEAAHW4Call@QMetaObject@@HPEAPEAX@Z
_TEXT	SEGMENT
this$ = 8
_c$ = 16
_id$ = 24
_a$ = 32
?qt_metacall@xProgressDialog@@UEAAHW4Call@QMetaObject@@HPEAPEAX@Z PROC ; xProgressDialog::qt_metacall, COMDAT
; File c:\xdynamics\xdynamics_gui\generatedfiles\release\moc_xprogressdialog.cpp
; Line 90
	rex_jmp	QWORD PTR __imp_?qt_metacall@QProgressDialog@@UEAAHW4Call@QMetaObject@@HPEAPEAX@Z
?qt_metacall@xProgressDialog@@UEAAHW4Call@QMetaObject@@HPEAPEAX@Z ENDP ; xProgressDialog::qt_metacall
_TEXT	ENDS
; Function compile flags: /Ogtpy
;	COMDAT ?qt_metacast@xProgressDialog@@UEAAPEAXPEBD@Z
_TEXT	SEGMENT
this$ = 8
_clname$ = 16
?qt_metacast@xProgressDialog@@UEAAPEAXPEBD@Z PROC	; xProgressDialog::qt_metacast, COMDAT
; File c:\xdynamics\xdynamics_gui\generatedfiles\release\moc_xprogressdialog.cpp
; Line 81
	mov	r9, rdx
	mov	r10, rcx
; Line 82
	test	rdx, rdx
	jne	SHORT $LN2@qt_metacas
	xor	eax, eax
; Line 86
	ret	0
$LN2@qt_metacas:
; Line 83
	lea	r8, OFFSET FLAT:?qt_meta_stringdata_xProgressDialog@@3Uqt_meta_stringdata_xProgressDialog_t@@B+24
	mov	rax, r9
	sub	r8, r9
	npad	5
$LL5@qt_metacas:
	movzx	edx, BYTE PTR [rax]
	movzx	ecx, BYTE PTR [rax+r8]
	sub	edx, ecx
	jne	SHORT $LN6@qt_metacas
	inc	rax
	test	ecx, ecx
	jne	SHORT $LL5@qt_metacas
$LN6@qt_metacas:
	test	edx, edx
	jne	SHORT $LN3@qt_metacas
; Line 84
	mov	rax, r10
; Line 86
	ret	0
$LN3@qt_metacas:
; Line 85
	mov	rdx, r9
	mov	rcx, r10
	rex_jmp	QWORD PTR __imp_?qt_metacast@QProgressDialog@@UEAAPEAXPEBD@Z
?qt_metacast@xProgressDialog@@UEAAPEAXPEBD@Z ENDP	; xProgressDialog::qt_metacast
_TEXT	ENDS
; Function compile flags: /Ogtpy
;	COMDAT ?metaObject@xProgressDialog@@UEBAPEBUQMetaObject@@XZ
_TEXT	SEGMENT
this$ = 8
?metaObject@xProgressDialog@@UEBAPEBUQMetaObject@@XZ PROC ; xProgressDialog::metaObject, COMDAT
; File c:\xdynamics\xdynamics_gui\generatedfiles\release\moc_xprogressdialog.cpp
; Line 77
	mov	rcx, QWORD PTR [rcx+8]
	cmp	QWORD PTR [rcx+40], 0
	je	SHORT $LN3@metaObject
	rex_jmp	QWORD PTR __imp_?dynamicMetaObject@QObjectData@@QEBAPEAUQMetaObject@@XZ
$LN3@metaObject:
	lea	rax, OFFSET FLAT:?staticMetaObject@xProgressDialog@@2UQMetaObject@@B ; xProgressDialog::staticMetaObject
; Line 78
	ret	0
?metaObject@xProgressDialog@@UEBAPEBUQMetaObject@@XZ ENDP ; xProgressDialog::metaObject
_TEXT	ENDS
; Function compile flags: /Ogtpy
;	COMDAT ??C?$QScopedPointer@VQObjectData@@U?$QScopedPointerDeleter@VQObjectData@@@@@@QEBAPEAVQObjectData@@XZ
_TEXT	SEGMENT
this$ = 8
??C?$QScopedPointer@VQObjectData@@U?$QScopedPointerDeleter@VQObjectData@@@@@@QEBAPEAVQObjectData@@XZ PROC ; QScopedPointer<QObjectData,QScopedPointerDeleter<QObjectData> >::operator->, COMDAT
; File c:\qt\5.12.3\msvc2017_64\include\qtcore\qscopedpointer.h
; Line 118
	mov	rax, QWORD PTR [rcx]
; Line 119
	ret	0
??C?$QScopedPointer@VQObjectData@@U?$QScopedPointerDeleter@VQObjectData@@@@@@QEBAPEAVQObjectData@@XZ ENDP ; QScopedPointer<QObjectData,QScopedPointerDeleter<QObjectData> >::operator->
_TEXT	ENDS
END
