; Listing generated by Microsoft (R) Optimizing Compiler Version 19.16.27034.0 

include listing.inc

INCLUDELIB MSVCRT
INCLUDELIB OLDNAMES

EXTRN	__imp_?staticMetaObject@QDialog@@2UQMetaObject@@B:BYTE
CONST	SEGMENT
?qt_meta_stringdata_xparticle_result_dlg@@3Uqt_meta_stringdata_xparticle_result_dlg_t@@B DD 0ffffffffH ; qt_meta_stringdata_xparticle_result_dlg
	DD	014H
	DD	00H
	ORG $+4
	DQ	00000000000000d8H
	DD	0ffffffffH
	DD	0aH
	DD	00H
	ORG $+4
	DQ	00000000000000d5H
	DD	0ffffffffH
	DD	00H
	DD	00H
	ORG $+4
	DQ	00000000000000c8H
	DD	0ffffffffH
	DD	0cH
	DD	00H
	ORG $+4
	DQ	00000000000000b1H
	DD	0ffffffffH
	DD	0aH
	DD	00H
	ORG $+4
	DQ	00000000000000a6H
	DD	0ffffffffH
	DD	010H
	DD	00H
	ORG $+4
	DQ	0000000000000099H
	DD	0ffffffffH
	DD	014H
	DD	00H
	ORG $+4
	DQ	0000000000000092H
	DD	0ffffffffH
	DD	0bH
	DD	00H
	ORG $+4
	DQ	000000000000008fH
	DD	0ffffffffH
	DD	0bH
	DD	00H
	ORG $+4
	DQ	0000000000000083H
	DB	078H
	DB	070H
	DB	061H
	DB	072H
	DB	074H
	DB	069H
	DB	063H
	DB	06cH
	DB	065H
	DB	05fH
	DB	072H
	DB	065H
	DB	073H
	DB	075H
	DB	06cH
	DB	074H
	DB	05fH
	DB	064H
	DB	06cH
	DB	067H
	DB	00H
	DB	063H
	DB	06cH
	DB	069H
	DB	063H
	DB	06bH
	DB	05fH
	DB	06cH
	DB	06fH
	DB	061H
	DB	064H
	DB	00H
	DB	00H
	DB	063H
	DB	06cH
	DB	069H
	DB	063H
	DB	06bH
	DB	05fH
	DB	065H
	DB	078H
	DB	070H
	DB	06fH
	DB	072H
	DB	074H
	DB	00H
	DB	063H
	DB	06cH
	DB	069H
	DB	063H
	DB	06bH
	DB	05fH
	DB	065H
	DB	078H
	DB	069H
	DB	074H
	DB	00H
	DB	065H
	DB	064H
	DB	069H
	DB	074H
	DB	05fH
	DB	074H
	DB	061H
	DB	072H
	DB	067H
	DB	065H
	DB	074H
	DB	05fH
	DB	070H
	DB	061H
	DB	072H
	DB	074H
	DB	00H
	DB	065H
	DB	064H
	DB	069H
	DB	074H
	DB	05fH
	DB	074H
	DB	061H
	DB	072H
	DB	067H
	DB	065H
	DB	074H
	DB	05fH
	DB	070H
	DB	061H
	DB	072H
	DB	074H
	DB	069H
	DB	063H
	DB	06cH
	DB	065H
	DB	00H
	DB	065H
	DB	06eH
	DB	061H
	DB	062H
	DB	06cH
	DB	065H
	DB	05fH
	DB	070H
	DB	061H
	DB	072H
	DB	074H
	DB	00H
	DB	065H
	DB	06eH
	DB	061H
	DB	062H
	DB	06cH
	DB	065H
	DB	05fH
	DB	074H
	DB	069H
	DB	06dH
	DB	065H
	DB	00H
	ORG $+1
?qt_meta_data_xparticle_result_dlg@@3QBIB DD 08H	; qt_meta_data_xparticle_result_dlg
	DD	00H
	DD	00H
	DD	00H
	DD	07H
	DD	0eH
	DD	00H
	DD	00H
	DD	00H
	DD	00H
	DD	00H
	DD	00H
	DD	00H
	DD	00H
	DD	01H
	DD	00H
	DD	031H
	DD	02H
	DD	08H
	DD	03H
	DD	00H
	DD	032H
	DD	02H
	DD	08H
	DD	04H
	DD	00H
	DD	033H
	DD	02H
	DD	08H
	DD	05H
	DD	00H
	DD	034H
	DD	02H
	DD	08H
	DD	06H
	DD	00H
	DD	035H
	DD	02H
	DD	08H
	DD	07H
	DD	00H
	DD	036H
	DD	02H
	DD	08H
	DD	08H
	DD	00H
	DD	037H
	DD	02H
	DD	08H
	DD	02bH
	DD	02bH
	DD	02bH
	DD	02bH
	DD	02bH
	DD	02bH
	DD	02bH
	DD	00H
CONST	ENDS
PUBLIC	?metaObject@xparticle_result_dlg@@UEBAPEBUQMetaObject@@XZ ; xparticle_result_dlg::metaObject
PUBLIC	?qt_metacast@xparticle_result_dlg@@UEAAPEAXPEBD@Z ; xparticle_result_dlg::qt_metacast
PUBLIC	?qt_metacall@xparticle_result_dlg@@UEAAHW4Call@QMetaObject@@HPEAPEAX@Z ; xparticle_result_dlg::qt_metacall
PUBLIC	?qt_static_metacall@xparticle_result_dlg@@CAXPEAVQObject@@W4Call@QMetaObject@@HPEAPEAX@Z ; xparticle_result_dlg::qt_static_metacall
PUBLIC	?staticMetaObject@xparticle_result_dlg@@2UQMetaObject@@B ; xparticle_result_dlg::staticMetaObject
EXTRN	__imp_?dynamicMetaObject@QObjectData@@QEBAPEAUQMetaObject@@XZ:PROC
EXTRN	__imp_?qt_metacast@QDialog@@UEAAPEAXPEBD@Z:PROC
EXTRN	__imp_?qt_metacall@QDialog@@UEAAHW4Call@QMetaObject@@HPEAPEAX@Z:PROC
EXTRN	?click_load@xparticle_result_dlg@@AEAAXXZ:PROC	; xparticle_result_dlg::click_load
EXTRN	?click_export@xparticle_result_dlg@@AEAAXXZ:PROC ; xparticle_result_dlg::click_export
EXTRN	?click_exit@xparticle_result_dlg@@AEAAXXZ:PROC	; xparticle_result_dlg::click_exit
EXTRN	?edit_target_part@xparticle_result_dlg@@AEAAXXZ:PROC ; xparticle_result_dlg::edit_target_part
EXTRN	?edit_target_particle@xparticle_result_dlg@@AEAAXXZ:PROC ; xparticle_result_dlg::edit_target_particle
EXTRN	?enable_part@xparticle_result_dlg@@AEAAXXZ:PROC	; xparticle_result_dlg::enable_part
EXTRN	?enable_time@xparticle_result_dlg@@AEAAXXZ:PROC	; xparticle_result_dlg::enable_time
EXTRN	__ImageBase:BYTE
;	COMDAT pdata
pdata	SEGMENT
$pdata$?qt_metacall@xparticle_result_dlg@@UEAAHW4Call@QMetaObject@@HPEAPEAX@Z DD imagerel $LN10
	DD	imagerel $LN10+112
	DD	imagerel $unwind$?qt_metacall@xparticle_result_dlg@@UEAAHW4Call@QMetaObject@@HPEAPEAX@Z
pdata	ENDS
CRT$XCU	SEGMENT
??staticMetaObject$initializer$@xparticle_result_dlg@@2P6AXXZEA@@3P6AXXZEA DQ FLAT:??__E?staticMetaObject@xparticle_result_dlg@@2UQMetaObject@@B@@YAXXZ ; ??staticMetaObject$initializer$@xparticle_result_dlg@@2P6AXXZEA@@3P6AXXZEA
CRT$XCU	ENDS
_DATA	SEGMENT
?staticMetaObject@xparticle_result_dlg@@2UQMetaObject@@B DB 8 DUP(00H) ; xparticle_result_dlg::staticMetaObject
	DQ	FLAT:?qt_meta_stringdata_xparticle_result_dlg@@3Uqt_meta_stringdata_xparticle_result_dlg_t@@B
	DQ	FLAT:?qt_meta_data_xparticle_result_dlg@@3QBIB
	DQ	FLAT:?qt_static_metacall@xparticle_result_dlg@@CAXPEAVQObject@@W4Call@QMetaObject@@HPEAPEAX@Z
	DQ	0000000000000000H
	DQ	0000000000000000H
_DATA	ENDS
;	COMDAT xdata
xdata	SEGMENT
$unwind$?qt_metacall@xparticle_result_dlg@@UEAAHW4Call@QMetaObject@@HPEAPEAX@Z DD 081401H
	DD	086414H
	DD	075414H
	DD	063414H
	DD	070103214H
xdata	ENDS
; Function compile flags: /Ogtpy
;	COMDAT ??__E?staticMetaObject@xparticle_result_dlg@@2UQMetaObject@@B@@YAXXZ
text$di	SEGMENT
??__E?staticMetaObject@xparticle_result_dlg@@2UQMetaObject@@B@@YAXXZ PROC ; `dynamic initializer for 'xparticle_result_dlg::staticMetaObject'', COMDAT
; File c:\xdynamics\xdynamics_gui\generatedfiles\release\moc_xparticle_result_dlg.cpp
; Line 106
	mov	rax, QWORD PTR __imp_?staticMetaObject@QDialog@@2UQMetaObject@@B
	mov	QWORD PTR ?staticMetaObject@xparticle_result_dlg@@2UQMetaObject@@B, rax
; Line 111
	ret	0
??__E?staticMetaObject@xparticle_result_dlg@@2UQMetaObject@@B@@YAXXZ ENDP ; `dynamic initializer for 'xparticle_result_dlg::staticMetaObject''
text$di	ENDS
; Function compile flags: /Ogtpy
;	COMDAT ?qt_static_metacall@xparticle_result_dlg@@CAXPEAVQObject@@W4Call@QMetaObject@@HPEAPEAX@Z
_TEXT	SEGMENT
_o$ = 8
_c$ = 16
_id$ = 24
_a$ = 32
?qt_static_metacall@xparticle_result_dlg@@CAXPEAVQObject@@W4Call@QMetaObject@@HPEAPEAX@Z PROC ; xparticle_result_dlg::qt_static_metacall, COMDAT
; File c:\xdynamics\xdynamics_gui\generatedfiles\release\moc_xparticle_result_dlg.cpp
; Line 88
	test	edx, edx
	jne	SHORT $LN12@qt_static_
; Line 91
	cmp	r8d, 6
	ja	SHORT $LN12@qt_static_
	movsxd	rax, r8d
	lea	r8, OFFSET FLAT:__ImageBase
	mov	edx, DWORD PTR $LN14@qt_static_[r8+rax*4]
	add	rdx, r8
	jmp	rdx
$LN5@qt_static_:
; Line 92
	jmp	?click_load@xparticle_result_dlg@@AEAAXXZ ; xparticle_result_dlg::click_load
$LN6@qt_static_:
; Line 93
	jmp	?click_export@xparticle_result_dlg@@AEAAXXZ ; xparticle_result_dlg::click_export
$LN7@qt_static_:
; Line 94
	jmp	?click_exit@xparticle_result_dlg@@AEAAXXZ ; xparticle_result_dlg::click_exit
$LN8@qt_static_:
; Line 95
	jmp	?edit_target_part@xparticle_result_dlg@@AEAAXXZ ; xparticle_result_dlg::edit_target_part
$LN9@qt_static_:
; Line 96
	jmp	?edit_target_particle@xparticle_result_dlg@@AEAAXXZ ; xparticle_result_dlg::edit_target_particle
$LN10@qt_static_:
; Line 97
	jmp	?enable_part@xparticle_result_dlg@@AEAAXXZ ; xparticle_result_dlg::enable_part
$LN11@qt_static_:
; Line 98
	jmp	?enable_time@xparticle_result_dlg@@AEAAXXZ ; xparticle_result_dlg::enable_time
$LN12@qt_static_:
; Line 103
	ret	0
	npad	3
$LN14@qt_static_:
	DD	$LN5@qt_static_
	DD	$LN6@qt_static_
	DD	$LN7@qt_static_
	DD	$LN8@qt_static_
	DD	$LN9@qt_static_
	DD	$LN10@qt_static_
	DD	$LN11@qt_static_
?qt_static_metacall@xparticle_result_dlg@@CAXPEAVQObject@@W4Call@QMetaObject@@HPEAPEAX@Z ENDP ; xparticle_result_dlg::qt_static_metacall
_TEXT	ENDS
; Function compile flags: /Ogtpy
;	COMDAT ?qt_metacall@xparticle_result_dlg@@UEAAHW4Call@QMetaObject@@HPEAPEAX@Z
_TEXT	SEGMENT
this$ = 48
_c$ = 56
_id$ = 64
_a$ = 72
?qt_metacall@xparticle_result_dlg@@UEAAHW4Call@QMetaObject@@HPEAPEAX@Z PROC ; xparticle_result_dlg::qt_metacall, COMDAT
; File c:\xdynamics\xdynamics_gui\generatedfiles\release\moc_xparticle_result_dlg.cpp
; Line 129
$LN10:
	mov	QWORD PTR [rsp+8], rbx
	mov	QWORD PTR [rsp+16], rbp
	mov	QWORD PTR [rsp+24], rsi
	push	rdi
	sub	rsp, 32					; 00000020H
	mov	rsi, r9
	mov	edi, edx
	mov	rbp, rcx
; Line 130
	call	QWORD PTR __imp_?qt_metacall@QDialog@@UEAAHW4Call@QMetaObject@@HPEAPEAX@Z
	mov	ebx, eax
; Line 131
	test	eax, eax
	js	SHORT $LN1@qt_metacal
; Line 133
	test	edi, edi
	jne	SHORT $LN3@qt_metacal
; Line 134
	cmp	eax, 7
	jge	SHORT $LN7@qt_metacal
; Line 135
	mov	r9, rsi
	mov	r8d, eax
	xor	edx, edx
	mov	rcx, rbp
	call	?qt_static_metacall@xparticle_result_dlg@@CAXPEAVQObject@@W4Call@QMetaObject@@HPEAPEAX@Z ; xparticle_result_dlg::qt_static_metacall
; Line 136
	jmp	SHORT $LN7@qt_metacal
$LN3@qt_metacal:
; Line 137
	cmp	edi, 12
	jne	SHORT $LN6@qt_metacal
; Line 138
	cmp	ebx, 7
	jge	SHORT $LN7@qt_metacal
; Line 139
	mov	rax, QWORD PTR [rsi]
	mov	DWORD PTR [rax], -1
$LN7@qt_metacal:
; Line 142
	sub	ebx, 7
$LN6@qt_metacal:
	mov	eax, ebx
$LN1@qt_metacal:
; Line 143
	mov	rbx, QWORD PTR [rsp+48]
	mov	rbp, QWORD PTR [rsp+56]
	mov	rsi, QWORD PTR [rsp+64]
	add	rsp, 32					; 00000020H
	pop	rdi
	ret	0
?qt_metacall@xparticle_result_dlg@@UEAAHW4Call@QMetaObject@@HPEAPEAX@Z ENDP ; xparticle_result_dlg::qt_metacall
_TEXT	ENDS
; Function compile flags: /Ogtpy
;	COMDAT ?qt_metacast@xparticle_result_dlg@@UEAAPEAXPEBD@Z
_TEXT	SEGMENT
this$ = 8
_clname$ = 16
?qt_metacast@xparticle_result_dlg@@UEAAPEAXPEBD@Z PROC	; xparticle_result_dlg::qt_metacast, COMDAT
; File c:\xdynamics\xdynamics_gui\generatedfiles\release\moc_xparticle_result_dlg.cpp
; Line 121
	mov	r9, rdx
	mov	r10, rcx
; Line 122
	test	rdx, rdx
	jne	SHORT $LN2@qt_metacas
	xor	eax, eax
; Line 126
	ret	0
$LN2@qt_metacas:
; Line 123
	lea	r8, OFFSET FLAT:?qt_meta_stringdata_xparticle_result_dlg@@3Uqt_meta_stringdata_xparticle_result_dlg_t@@B+216
	mov	rax, r9
	sub	r8, r9
	npad	5
$LL5@qt_metacas:
	movzx	edx, BYTE PTR [rax]
	movzx	ecx, BYTE PTR [rax+r8]
	sub	edx, ecx
	jne	SHORT $LN6@qt_metacas
	inc	rax
	test	ecx, ecx
	jne	SHORT $LL5@qt_metacas
$LN6@qt_metacas:
	test	edx, edx
	jne	SHORT $LN3@qt_metacas
; Line 124
	mov	rax, r10
; Line 126
	ret	0
$LN3@qt_metacas:
; Line 125
	mov	rdx, r9
	mov	rcx, r10
	rex_jmp	QWORD PTR __imp_?qt_metacast@QDialog@@UEAAPEAXPEBD@Z
?qt_metacast@xparticle_result_dlg@@UEAAPEAXPEBD@Z ENDP	; xparticle_result_dlg::qt_metacast
_TEXT	ENDS
; Function compile flags: /Ogtpy
;	COMDAT ?metaObject@xparticle_result_dlg@@UEBAPEBUQMetaObject@@XZ
_TEXT	SEGMENT
this$ = 8
?metaObject@xparticle_result_dlg@@UEBAPEBUQMetaObject@@XZ PROC ; xparticle_result_dlg::metaObject, COMDAT
; File c:\xdynamics\xdynamics_gui\generatedfiles\release\moc_xparticle_result_dlg.cpp
; Line 117
	mov	rcx, QWORD PTR [rcx+8]
	cmp	QWORD PTR [rcx+40], 0
	je	SHORT $LN3@metaObject
	rex_jmp	QWORD PTR __imp_?dynamicMetaObject@QObjectData@@QEBAPEAUQMetaObject@@XZ
$LN3@metaObject:
	lea	rax, OFFSET FLAT:?staticMetaObject@xparticle_result_dlg@@2UQMetaObject@@B ; xparticle_result_dlg::staticMetaObject
; Line 118
	ret	0
?metaObject@xparticle_result_dlg@@UEBAPEBUQMetaObject@@XZ ENDP ; xparticle_result_dlg::metaObject
_TEXT	ENDS
; Function compile flags: /Ogtpy
;	COMDAT ??C?$QScopedPointer@VQObjectData@@U?$QScopedPointerDeleter@VQObjectData@@@@@@QEBAPEAVQObjectData@@XZ
_TEXT	SEGMENT
this$ = 8
??C?$QScopedPointer@VQObjectData@@U?$QScopedPointerDeleter@VQObjectData@@@@@@QEBAPEAVQObjectData@@XZ PROC ; QScopedPointer<QObjectData,QScopedPointerDeleter<QObjectData> >::operator->, COMDAT
; File c:\qt\5.12.3\msvc2017_64\include\qtcore\qscopedpointer.h
; Line 118
	mov	rax, QWORD PTR [rcx]
; Line 119
	ret	0
??C?$QScopedPointer@VQObjectData@@U?$QScopedPointerDeleter@VQObjectData@@@@@@QEBAPEAVQObjectData@@XZ ENDP ; QScopedPointer<QObjectData,QScopedPointerDeleter<QObjectData> >::operator->
_TEXT	ENDS
END
