; Listing generated by Microsoft (R) Optimizing Compiler Version 19.16.27034.0 

include listing.inc

INCLUDELIB MSVCRT
INCLUDELIB OLDNAMES

EXTRN	__imp_?staticMetaObject@QGraphicsView@@2UQMetaObject@@B:BYTE
CONST	SEGMENT
?qt_meta_stringdata_xChartView@@3Uqt_meta_stringdata_xChartView_t@@B DD 0ffffffffH ; qt_meta_stringdata_xChartView
	DD	0aH
	DD	00H
	ORG $+4
	DQ	0000000000000060H
	DD	0ffffffffH
	DD	0bH
	DD	00H
	ORG $+4
	DQ	0000000000000053H
	DD	0ffffffffH
	DD	00H
	DD	00H
	ORG $+4
	DQ	0000000000000047H
	DD	0ffffffffH
	DD	07H
	DD	00H
	ORG $+4
	DQ	0000000000000030H
	DB	078H
	DB	043H
	DB	068H
	DB	061H
	DB	072H
	DB	074H
	DB	056H
	DB	069H
	DB	065H
	DB	077H
	DB	00H
	DB	06bH
	DB	065H
	DB	065H
	DB	070H
	DB	043H
	DB	061H
	DB	06cH
	DB	06cH
	DB	06fH
	DB	075H
	DB	074H
	DB	00H
	DB	00H
	DB	074H
	DB	06fH
	DB	06fH
	DB	06cH
	DB	074H
	DB	069H
	DB	070H
	DB	00H
?qt_meta_data_xChartView@@3QBIB DD 08H			; qt_meta_data_xChartView
	DD	00H
	DD	00H
	DD	00H
	DD	02H
	DD	0eH
	DD	00H
	DD	00H
	DD	00H
	DD	00H
	DD	00H
	DD	00H
	DD	00H
	DD	00H
	DD	01H
	DD	00H
	DD	018H
	DD	02H
	DD	0aH
	DD	03H
	DD	02H
	DD	019H
	DD	02H
	DD	0aH
	DD	02bH
	DD	02bH
	DD	01aH
	DD	01H
	DD	02H
	DD	02H
	DD	00H
CONST	ENDS
PUBLIC	?metaObject@xChartView@@UEBAPEBUQMetaObject@@XZ	; xChartView::metaObject
PUBLIC	?qt_metacast@xChartView@@UEAAPEAXPEBD@Z		; xChartView::qt_metacast
PUBLIC	?qt_metacall@xChartView@@UEAAHW4Call@QMetaObject@@HPEAPEAX@Z ; xChartView::qt_metacall
PUBLIC	?qt_static_metacall@xChartView@@CAXPEAVQObject@@W4Call@QMetaObject@@HPEAPEAX@Z ; xChartView::qt_static_metacall
PUBLIC	?staticMetaObject@xChartView@@2UQMetaObject@@B	; xChartView::staticMetaObject
EXTRN	__imp_?dynamicMetaObject@QObjectData@@QEBAPEAUQMetaObject@@XZ:PROC
EXTRN	__imp_?qt_metacast@QGraphicsView@@UEAAPEAXPEBD@Z:PROC
EXTRN	__imp_?qt_metacall@QGraphicsView@@UEAAHW4Call@QMetaObject@@HPEAPEAX@Z:PROC
EXTRN	?keepCallout@xChartView@@QEAAXXZ:PROC		; xChartView::keepCallout
EXTRN	?tooltip@xChartView@@QEAAXVQPointF@@_N@Z:PROC	; xChartView::tooltip
;	COMDAT pdata
pdata	SEGMENT
$pdata$?qt_metacall@xChartView@@UEAAHW4Call@QMetaObject@@HPEAPEAX@Z DD imagerel $LN18
	DD	imagerel $LN18+148
	DD	imagerel $unwind$?qt_metacall@xChartView@@UEAAHW4Call@QMetaObject@@HPEAPEAX@Z
pdata	ENDS
;	COMDAT pdata
pdata	SEGMENT
$pdata$?qt_static_metacall@xChartView@@CAXPEAVQObject@@W4Call@QMetaObject@@HPEAPEAX@Z DD imagerel $LN10
	DD	imagerel $LN10+68
	DD	imagerel $unwind$?qt_static_metacall@xChartView@@CAXPEAVQObject@@W4Call@QMetaObject@@HPEAPEAX@Z
pdata	ENDS
CRT$XCU	SEGMENT
??staticMetaObject$initializer$@xChartView@@2P6AXXZEA@@3P6AXXZEA DQ FLAT:??__E?staticMetaObject@xChartView@@2UQMetaObject@@B@@YAXXZ ; ??staticMetaObject$initializer$@xChartView@@2P6AXXZEA@@3P6AXXZEA
CRT$XCU	ENDS
_DATA	SEGMENT
?staticMetaObject@xChartView@@2UQMetaObject@@B DB 8 DUP(00H) ; xChartView::staticMetaObject
	DQ	FLAT:?qt_meta_stringdata_xChartView@@3Uqt_meta_stringdata_xChartView_t@@B
	DQ	FLAT:?qt_meta_data_xChartView@@3QBIB
	DQ	FLAT:?qt_static_metacall@xChartView@@CAXPEAVQObject@@W4Call@QMetaObject@@HPEAPEAX@Z
	DQ	0000000000000000H
	DQ	0000000000000000H
_DATA	ENDS
;	COMDAT xdata
xdata	SEGMENT
$unwind$?qt_static_metacall@xChartView@@CAXPEAVQObject@@W4Call@QMetaObject@@HPEAPEAX@Z DD 010401H
	DD	06204H
xdata	ENDS
;	COMDAT xdata
xdata	SEGMENT
$unwind$?qt_metacall@xChartView@@UEAAHW4Call@QMetaObject@@HPEAPEAX@Z DD 081401H
	DD	0a6414H
	DD	095414H
	DD	083414H
	DD	070105214H
xdata	ENDS
; Function compile flags: /Ogtpy
;	COMDAT ??__E?staticMetaObject@xChartView@@2UQMetaObject@@B@@YAXXZ
text$di	SEGMENT
??__E?staticMetaObject@xChartView@@2UQMetaObject@@B@@YAXXZ PROC ; `dynamic initializer for 'xChartView::staticMetaObject'', COMDAT
; File c:\xdynamics\xdynamics_gui\generatedfiles\release\moc_xchartview.cpp
; Line 82
	mov	rax, QWORD PTR __imp_?staticMetaObject@QGraphicsView@@2UQMetaObject@@B
	mov	QWORD PTR ?staticMetaObject@xChartView@@2UQMetaObject@@B, rax
; Line 87
	ret	0
??__E?staticMetaObject@xChartView@@2UQMetaObject@@B@@YAXXZ ENDP ; `dynamic initializer for 'xChartView::staticMetaObject''
text$di	ENDS
; Function compile flags: /Ogtpy
;	COMDAT ?qt_static_metacall@xChartView@@CAXPEAVQObject@@W4Call@QMetaObject@@HPEAPEAX@Z
_TEXT	SEGMENT
$T1 = 32
_o$ = 64
_c$ = 72
_id$ = 80
_a$ = 88
?qt_static_metacall@xChartView@@CAXPEAVQObject@@W4Call@QMetaObject@@HPEAPEAX@Z PROC ; xChartView::qt_static_metacall, COMDAT
; File c:\xdynamics\xdynamics_gui\generatedfiles\release\moc_xchartview.cpp
; Line 69
$LN10:
	sub	rsp, 56					; 00000038H
; Line 70
	test	edx, edx
	jne	SHORT $LN7@qt_static_
; Line 73
	test	r8d, r8d
	je	SHORT $LN5@qt_static_
	cmp	r8d, 1
	jne	SHORT $LN7@qt_static_
; Line 75
	mov	rax, QWORD PTR [r9+8]
	lea	rdx, QWORD PTR $T1[rsp]
	movups	xmm0, XMMWORD PTR [rax]
	mov	rax, QWORD PTR [r9+16]
	movaps	XMMWORD PTR $T1[rsp], xmm0
	movzx	r8d, BYTE PTR [rax]
	call	?tooltip@xChartView@@QEAAXVQPointF@@_N@Z ; xChartView::tooltip
; Line 79
	add	rsp, 56					; 00000038H
	ret	0
$LN5@qt_static_:
	add	rsp, 56					; 00000038H
; Line 74
	jmp	?keepCallout@xChartView@@QEAAXXZ	; xChartView::keepCallout
$LN7@qt_static_:
; Line 79
	add	rsp, 56					; 00000038H
	ret	0
?qt_static_metacall@xChartView@@CAXPEAVQObject@@W4Call@QMetaObject@@HPEAPEAX@Z ENDP ; xChartView::qt_static_metacall
_TEXT	ENDS
; Function compile flags: /Ogtpy
;	COMDAT ?qt_metacall@xChartView@@UEAAHW4Call@QMetaObject@@HPEAPEAX@Z
_TEXT	SEGMENT
$T1 = 32
this$ = 64
_c$ = 72
_id$ = 80
_a$ = 88
?qt_metacall@xChartView@@UEAAHW4Call@QMetaObject@@HPEAPEAX@Z PROC ; xChartView::qt_metacall, COMDAT
; File c:\xdynamics\xdynamics_gui\generatedfiles\release\moc_xchartview.cpp
; Line 105
$LN18:
	mov	QWORD PTR [rsp+8], rbx
	mov	QWORD PTR [rsp+16], rbp
	mov	QWORD PTR [rsp+24], rsi
	push	rdi
	sub	rsp, 48					; 00000030H
	mov	rdi, r9
	mov	esi, edx
	mov	rbp, rcx
; Line 106
	call	QWORD PTR __imp_?qt_metacall@QGraphicsView@@UEAAHW4Call@QMetaObject@@HPEAPEAX@Z
	mov	ebx, eax
; Line 107
	test	eax, eax
	js	SHORT $LN1@qt_metacal
; Line 109
	test	esi, esi
	jne	SHORT $LN3@qt_metacal
; Line 110
	cmp	eax, 2
	jge	SHORT $LN7@qt_metacal
; Line 73
	test	eax, eax
	je	SHORT $LN13@qt_metacal
	cmp	eax, 1
	jne	SHORT $LN7@qt_metacal
; Line 75
	mov	rax, QWORD PTR [rdi+8]
	lea	rdx, QWORD PTR $T1[rsp]
	mov	rcx, rbp
	movups	xmm0, XMMWORD PTR [rax]
	mov	rax, QWORD PTR [rdi+16]
	movaps	XMMWORD PTR $T1[rsp], xmm0
	movzx	r8d, BYTE PTR [rax]
	call	?tooltip@xChartView@@QEAAXVQPointF@@_N@Z ; xChartView::tooltip
	jmp	SHORT $LN7@qt_metacal
$LN13@qt_metacal:
; Line 74
	mov	rcx, rbp
	call	?keepCallout@xChartView@@QEAAXXZ	; xChartView::keepCallout
; Line 112
	jmp	SHORT $LN7@qt_metacal
$LN3@qt_metacal:
; Line 113
	cmp	esi, 12
	jne	SHORT $LN6@qt_metacal
; Line 114
	cmp	ebx, 2
	jge	SHORT $LN7@qt_metacal
; Line 115
	mov	rax, QWORD PTR [rdi]
	mov	DWORD PTR [rax], -1
$LN7@qt_metacal:
; Line 118
	sub	ebx, 2
$LN6@qt_metacal:
	mov	eax, ebx
$LN1@qt_metacal:
; Line 119
	mov	rbx, QWORD PTR [rsp+64]
	mov	rbp, QWORD PTR [rsp+72]
	mov	rsi, QWORD PTR [rsp+80]
	add	rsp, 48					; 00000030H
	pop	rdi
	ret	0
?qt_metacall@xChartView@@UEAAHW4Call@QMetaObject@@HPEAPEAX@Z ENDP ; xChartView::qt_metacall
_TEXT	ENDS
; Function compile flags: /Ogtpy
;	COMDAT ?qt_metacast@xChartView@@UEAAPEAXPEBD@Z
_TEXT	SEGMENT
this$ = 8
_clname$ = 16
?qt_metacast@xChartView@@UEAAPEAXPEBD@Z PROC		; xChartView::qt_metacast, COMDAT
; File c:\xdynamics\xdynamics_gui\generatedfiles\release\moc_xchartview.cpp
; Line 97
	mov	r9, rdx
	mov	r10, rcx
; Line 98
	test	rdx, rdx
	jne	SHORT $LN2@qt_metacas
	xor	eax, eax
; Line 102
	ret	0
$LN2@qt_metacas:
; Line 99
	lea	r8, OFFSET FLAT:?qt_meta_stringdata_xChartView@@3Uqt_meta_stringdata_xChartView_t@@B+96
	mov	rax, r9
	sub	r8, r9
	npad	5
$LL5@qt_metacas:
	movzx	edx, BYTE PTR [rax]
	movzx	ecx, BYTE PTR [rax+r8]
	sub	edx, ecx
	jne	SHORT $LN6@qt_metacas
	inc	rax
	test	ecx, ecx
	jne	SHORT $LL5@qt_metacas
$LN6@qt_metacas:
	test	edx, edx
	jne	SHORT $LN3@qt_metacas
; Line 100
	mov	rax, r10
; Line 102
	ret	0
$LN3@qt_metacas:
; Line 101
	mov	rdx, r9
	mov	rcx, r10
	rex_jmp	QWORD PTR __imp_?qt_metacast@QGraphicsView@@UEAAPEAXPEBD@Z
?qt_metacast@xChartView@@UEAAPEAXPEBD@Z ENDP		; xChartView::qt_metacast
_TEXT	ENDS
; Function compile flags: /Ogtpy
;	COMDAT ?metaObject@xChartView@@UEBAPEBUQMetaObject@@XZ
_TEXT	SEGMENT
this$ = 8
?metaObject@xChartView@@UEBAPEBUQMetaObject@@XZ PROC	; xChartView::metaObject, COMDAT
; File c:\xdynamics\xdynamics_gui\generatedfiles\release\moc_xchartview.cpp
; Line 93
	mov	rcx, QWORD PTR [rcx+8]
	cmp	QWORD PTR [rcx+40], 0
	je	SHORT $LN3@metaObject
	rex_jmp	QWORD PTR __imp_?dynamicMetaObject@QObjectData@@QEBAPEAUQMetaObject@@XZ
$LN3@metaObject:
	lea	rax, OFFSET FLAT:?staticMetaObject@xChartView@@2UQMetaObject@@B ; xChartView::staticMetaObject
; Line 94
	ret	0
?metaObject@xChartView@@UEBAPEBUQMetaObject@@XZ ENDP	; xChartView::metaObject
_TEXT	ENDS
; Function compile flags: /Ogtpy
;	COMDAT ??C?$QScopedPointer@VQObjectData@@U?$QScopedPointerDeleter@VQObjectData@@@@@@QEBAPEAVQObjectData@@XZ
_TEXT	SEGMENT
this$ = 8
??C?$QScopedPointer@VQObjectData@@U?$QScopedPointerDeleter@VQObjectData@@@@@@QEBAPEAVQObjectData@@XZ PROC ; QScopedPointer<QObjectData,QScopedPointerDeleter<QObjectData> >::operator->, COMDAT
; File c:\qt\5.12.3\msvc2017_64\include\qtcore\qscopedpointer.h
; Line 118
	mov	rax, QWORD PTR [rcx]
; Line 119
	ret	0
??C?$QScopedPointer@VQObjectData@@U?$QScopedPointerDeleter@VQObjectData@@@@@@QEBAPEAVQObjectData@@XZ ENDP ; QScopedPointer<QObjectData,QScopedPointerDeleter<QObjectData> >::operator->
_TEXT	ENDS
END
